
app.elf:     file format elf32-littleriscv
app.elf
architecture: riscv:rv32, flags 0x00000112:
EXEC_P, HAS_SYMS, D_PAGED
start address 0x00000348

Program Header:
0x70000003 off    0x00017122 vaddr 0x00000000 paddr 0x00000000 align 2**0
         filesz 0x00000038 memsz 0x00000000 flags r--
    LOAD off    0x00001000 vaddr 0x00000000 paddr 0x00000000 align 2**12
         filesz 0x00000020 memsz 0x00000020 flags r-x
    LOAD off    0x00001020 vaddr 0x00000020 paddr 0x00000020 align 2**12
         filesz 0x00014810 memsz 0x00014810 flags r-x
    LOAD off    0x00015830 vaddr 0x00014830 paddr 0x00016110 align 2**12
         filesz 0x000018e0 memsz 0x000018e0 flags rw-
    LOAD off    0x000009f0 vaddr 0x000179f0 paddr 0x000179f0 align 2**12
         filesz 0x00000000 memsz 0x000003e0 flags rw-

Sections:
Idx Name          Size      VMA       LMA       File off  Algn
  0 .entry        00000020  00000000  00000000  00001000  2**5
                  CONTENTS, ALLOC, LOAD, READONLY, CODE
  1 .exceptions   000002f4  00000020  00000020  00001020  2**2
                  CONTENTS, ALLOC, LOAD, READONLY, CODE
  2 .text         00013b80  00000314  00000314  00001314  2**2
                  CONTENTS, ALLOC, LOAD, READONLY, CODE
  3 .rodata       00000990  00013ea0  00013ea0  00014ea0  2**4
                  CONTENTS, ALLOC, LOAD, READONLY, DATA
  4 .rwdata       000018e0  00014830  00016110  00015830  2**3
                  CONTENTS, ALLOC, LOAD, DATA
  5 .bss          000003e0  000179f0  000179f0  000179f0  2**3
                  ALLOC
  6 .ram_0        00000000  00017dd0  00017dd0  00017110  2**0
                  CONTENTS
  7 .comment      00000012  00000000  00000000  00017110  2**0
                  CONTENTS, READONLY
  8 .riscv.attributes 00000038  00000000  00000000  00017122  2**0
                  CONTENTS, READONLY
  9 .debug_aranges 000007b0  00000000  00000000  00017160  2**3
                  CONTENTS, READONLY, DEBUGGING, OCTETS
 10 .debug_info   0000c415  00000000  00000000  00017910  2**0
                  CONTENTS, READONLY, DEBUGGING, OCTETS
 11 .debug_abbrev 000048af  00000000  00000000  00023d25  2**0
                  CONTENTS, READONLY, DEBUGGING, OCTETS
 12 .debug_line   00011977  00000000  00000000  000285d4  2**0
                  CONTENTS, READONLY, DEBUGGING, OCTETS
 13 .debug_frame  00001190  00000000  00000000  00039f4c  2**2
                  CONTENTS, READONLY, DEBUGGING, OCTETS
 14 .debug_str    000019a8  00000000  00000000  0003b0dc  2**0
                  CONTENTS, READONLY, DEBUGGING, OCTETS
 15 .debug_line_str 00001034  00000000  00000000  0003ca84  2**0
                  CONTENTS, READONLY, DEBUGGING, OCTETS
 16 .debug_ranges 00000020  00000000  00000000  0003dab8  2**3
                  CONTENTS, READONLY, DEBUGGING, OCTETS
 17 .debug_rnglists 00001606  00000000  00000000  0003dad8  2**0
                  CONTENTS, READONLY, DEBUGGING, OCTETS
 18 .debug_loclists 0000fa62  00000000  00000000  0003f0de  2**0
                  CONTENTS, READONLY, DEBUGGING, OCTETS
SYMBOL TABLE:
00000000 l    d  .entry	00000000 .entry
00000020 l    d  .exceptions	00000000 .exceptions
00000314 l    d  .text	00000000 .text
00013ea0 l    d  .rodata	00000000 .rodata
00014830 l    d  .rwdata	00000000 .rwdata
000179f0 l    d  .bss	00000000 .bss
00017dd0 l    d  .ram_0	00000000 .ram_0
00000000 l    d  .comment	00000000 .comment
00000000 l    d  .riscv.attributes	00000000 .riscv.attributes
00000000 l    d  .debug_aranges	00000000 .debug_aranges
00000000 l    d  .debug_info	00000000 .debug_info
00000000 l    d  .debug_abbrev	00000000 .debug_abbrev
00000000 l    d  .debug_line	00000000 .debug_line
00000000 l    d  .debug_frame	00000000 .debug_frame
00000000 l    d  .debug_str	00000000 .debug_str
00000000 l    d  .debug_line_str	00000000 .debug_line_str
00000000 l    d  .debug_ranges	00000000 .debug_ranges
00000000 l    d  .debug_rnglists	00000000 .debug_rnglists
00000000 l    d  .debug_loclists	00000000 .debug_loclists
00000000 l    df *ABS*	00000000 crt0.S.obj
00000400 l       .text	00000000 alt_after_alt_main
00000000 l    df *ABS*	00000000 machine_trap.S.obj
00000020 l       .exceptions	00000000 save_registers
00000000 l    df *ABS*	00000000 alt_irq_handler.c
00000000 l    df *ABS*	00000000 main.c
00000000 l    df *ABS*	00000000 alt_load.c
00000404 l     F .text	00000064 alt_load_section
00000000 l    df *ABS*	00000000 alt_main.c
00000000 l    df *ABS*	00000000 alt_sys_init.c
00014830 l     O .rwdata	00001060 jtag_uart_0
00000000 l    df *ABS*	00000000 altera_avalon_jtag_uart_fd.c
00000000 l    df *ABS*	00000000 altera_avalon_jtag_uart_init.c
00000860 l     F .text	00000238 altera_avalon_jtag_uart_irq
00000a98 l     F .text	000000bc altera_avalon_jtag_uart_timeout
00000000 l    df *ABS*	00000000 altera_avalon_jtag_uart_ioctl.c
00000000 l    df *ABS*	00000000 altera_avalon_jtag_uart_read.c
00000000 l    df *ABS*	00000000 altera_avalon_jtag_uart_write.c
00000000 l    df *ABS*	00000000 alt_alarm_start.c
00000000 l    df *ABS*	00000000 alt_dcache_flush_all.c
00000000 l    df *ABS*	00000000 alt_dev.c
000012d8 l     F .text	0000002c alt_dev_null_write
00000000 l    df *ABS*	00000000 alt_dev_llist_insert.c
00001340 l     F .text	00000044 alt_get_errno
00000000 l    df *ABS*	00000000 alt_do_ctors.c
00000000 l    df *ABS*	00000000 alt_do_dtors.c
00000000 l    df *ABS*	00000000 alt_errno.c
00000000 l    df *ABS*	00000000 alt_icache_flush_all.c
00000000 l    df *ABS*	00000000 alt_iic.c
00000000 l    df *ABS*	00000000 alt_iic_isr_register.c
00000000 l    df *ABS*	00000000 alt_io_redirect.c
000016dc l     F .text	000000dc alt_open_fd
00000000 l    df *ABS*	00000000 alt_release_fd.c
00000000 l    df *ABS*	00000000 alt_tick.c
00000000 l    df *ABS*	00000000 intel_niosv_irq.c
00000000 l    df *ABS*	00000000 mtimer.c
00000000 l    df *ABS*	00000000 libc_a-atexit.o
00000000 l    df *ABS*	00000000 libc_a-exit.o
00000000 l    df *ABS*	00000000 libc_a-findfp.o
00001eec l     F .text	0000001c stdio_exit_handler
00001f08 l     F .text	00000070 cleanup_stdio
00001f78 l     F .text	00000040 __fp_lock
00001fb8 l     F .text	00000040 __fp_unlock
00001ff8 l     F .text	00000190 global_stdio_init.part.0
00000000 l    df *ABS*	00000000 libc_a-fwalk.o
00000000 l    df *ABS*	00000000 libc_a-printf.o
00000000 l    df *ABS*	00000000 libc_a-setvbuf.o
00000000 l    df *ABS*	00000000 libc_a-stdio.o
00000000 l    df *ABS*	00000000 libc_a-closer.o
00000000 l    df *ABS*	00000000 libc_a-reent.o
00000000 l    df *ABS*	00000000 libc_a-lseekr.o
00000000 l    df *ABS*	00000000 libc_a-readr.o
00000000 l    df *ABS*	00000000 libc_a-writer.o
00000000 l    df *ABS*	00000000 libc_a-lock.o
00000000 l    df *ABS*	00000000 libc_a-sysclose.o
00000000 l    df *ABS*	00000000 libc_a-sysopen.o
00000000 l    df *ABS*	00000000 libc_a-memset.o
00000000 l    df *ABS*	00000000 libc_a-memcpy.o
00000000 l    df *ABS*	00000000 libc_a-__atexit.o
00000000 l    df *ABS*	00000000 libc_a-__call_atexit.o
000030c0 l     F .text	00000018 register_fini
00000000 l    df *ABS*	00000000 libc_a-freer.o
00000000 l    df *ABS*	00000000 libc_a-malloc.o
00000000 l    df *ABS*	00000000 libc_a-mallocr.o
00000000 l    df *ABS*	00000000 libc_a-mlock.o
00000000 l    df *ABS*	00000000 libc_a-vfprintf.o
00006704 l     F .text	000000f8 __sbprintf
00014238 l     O .rodata	00000010 blanks.1
00014248 l     O .rodata	00000010 zeroes.0
00000000 l    df *ABS*	00000000 libc_a-sprint_r.o
00000000 l    df *ABS*	00000000 libc_a-fclose.o
00000000 l    df *ABS*	00000000 libc_a-fflush.o
00000000 l    df *ABS*	00000000 libc_a-fvwrite.o
00000000 l    df *ABS*	00000000 libc_a-makebuf.o
00000000 l    df *ABS*	00000000 libc_a-wsetup.o
00000000 l    df *ABS*	00000000 libc_a-memchr.o
00000000 l    df *ABS*	00000000 libc_a-strncpy.o
00000000 l    df *ABS*	00000000 libc_a-localeconv.o
00000000 l    df *ABS*	00000000 libc_a-fstatr.o
00000000 l    df *ABS*	00000000 libc_a-isattyr.o
00000000 l    df *ABS*	00000000 libc_a-openr.o
00000000 l    df *ABS*	00000000 libc_a-sbrkr.o
00000000 l    df *ABS*	00000000 libc_a-fini.o
00000000 l    df *ABS*	00000000 libc_a-memmove-stub.o
00000000 l    df *ABS*	00000000 libc_a-strlen.o
00000000 l    df *ABS*	00000000 libm_a-frexpl.o
00000000 l    df *ABS*	00000000 libc_a-gdtoa-ldtoa.o
00000000 l    df *ABS*	00000000 libc_a-gdtoa-gdtoa.o
00000000 l    df *ABS*	00000000 libc_a-gdtoa-dmisc.o
00009d78 l     F .text	00000024 __rv_alloc_D2A.part.0
00000000 l    df *ABS*	00000000 libc_a-gdtoa-gmisc.o
00000000 l    df *ABS*	00000000 libc_a-mprec.o
000142d8 l     O .rodata	0000000c p05.0
00000000 l    df *ABS*	00000000 libc_a-reallocr.o
00000000 l    df *ABS*	00000000 libc_a-locale.o
00000000 l    df *ABS*	00000000 libc_a-strcmp.o
00000000 l    df *ABS*	00000000 libc_a-assert.o
00000000 l    df *ABS*	00000000 libc_a-callocr.o
00000000 l    df *ABS*	00000000 libc_a-mbtowc_r.o
00000000 l    df *ABS*	00000000 libc_a-wctomb_r.o
00000000 l    df *ABS*	00000000 libc_a-fiprintf.o
00000000 l    df *ABS*	00000000 libc_a-vfiprintf.o
0000d0e8 l     F .text	000000f8 __sbprintf
00014670 l     O .rodata	00000010 blanks.1
00014680 l     O .rodata	00000010 zeroes.0
00000000 l    df *ABS*	00000000 libc_a-errno.o
00000000 l    df *ABS*	00000000 libc_a-abort.o
00000000 l    df *ABS*	00000000 libc_a-signal.o
00000000 l    df *ABS*	00000000 libc_a-signalr.o
00000000 l    df *ABS*	00000000 adddf3.c
00000000 l    df *ABS*	00000000 divdf3.c
00000000 l    df *ABS*	00000000 eqdf2.c
00000000 l    df *ABS*	00000000 gedf2.c
00000000 l    df *ABS*	00000000 ledf2.c
00000000 l    df *ABS*	00000000 muldf3.c
00000000 l    df *ABS*	00000000 subdf3.c
00000000 l    df *ABS*	00000000 fixdfsi.c
00000000 l    df *ABS*	00000000 floatsidf.c
00000000 l    df *ABS*	00000000 eqtf2.c
00000000 l    df *ABS*	00000000 getf2.c
00000000 l    df *ABS*	00000000 letf2.c
00000000 l    df *ABS*	00000000 multf3.c
00000000 l    df *ABS*	00000000 subtf3.c
00000000 l    df *ABS*	00000000 unordtf2.c
00000000 l    df *ABS*	00000000 fixtfsi.c
00000000 l    df *ABS*	00000000 floatsitf.c
00000000 l    df *ABS*	00000000 extenddftf2.c
00000000 l    df *ABS*	00000000 libgcc2.c
00000000 l    df *ABS*	00000000 libgcc2.c
00000000 l    df *ABS*	00000000 alt_close.c
00012e8c l     F .text	00000044 alt_get_errno
00000000 l    df *ABS*	00000000 alt_exit.c
00000000 l    df *ABS*	00000000 alt_fstat.c
00012ff0 l     F .text	00000044 alt_get_errno
00000000 l    df *ABS*	00000000 alt_getpid.c
00000000 l    df *ABS*	00000000 alt_isatty.c
00013114 l     F .text	00000044 alt_get_errno
00000000 l    df *ABS*	00000000 alt_kill.c
00013254 l     F .text	00000044 alt_get_errno
00000000 l    df *ABS*	00000000 alt_lseek.c
0001338c l     F .text	00000044 alt_get_errno
00000000 l    df *ABS*	00000000 alt_open.c
000134b0 l     F .text	00000044 alt_get_errno
000134f4 l     F .text	000000e8 alt_file_locked
00000000 l    df *ABS*	00000000 alt_read.c
00013744 l     F .text	00000044 alt_get_errno
00000000 l    df *ABS*	00000000 alt_sbrk.c
0001610c l     O .rwdata	00000004 heap_end
00000000 l    df *ABS*	00000000 alt_write.c
00013944 l     F .text	00000044 alt_get_errno
00000000 l    df *ABS*	00000000 alt_find_dev.c
00000000 l    df *ABS*	00000000 alt_find_file.c
00000000 l    df *ABS*	00000000 alt_get_fd.c
00000000 l    df *ABS*	00000000 libc_a-sysfstat.o
00000000 l    df *ABS*	00000000 libc_a-stack_protector.o
00000000 l    df *ABS*	00000000 libc_a-syswrite.o
00009d9c g     F .text	0000006c __rv_alloc_D2A
00013e50 g     F .text	0000000c .hidden __stack_chk_fail_local
0000b2cc g     F .text	000000a4 _mprec_log10
0000b3d8 g     F .text	00000064 __any_on
00007870 g     F .text	00000058 _isatty_r
000143b0 g     O .rodata	00000028 __mprec_tinytens
000004dc g     F .text	00000088 alt_main
000130f4 g     F .text	00000020 _getpid
00017a60 g     O .bss	00000080 alt_irq
00002a50 g     F .text	00000064 _lseek_r
00016110 g       *ABS*	00000000 __flash_rwdata_start
0000fc78 g     F .text	00000160 .hidden __getf2
0000e7f8 g     F .text	0000008c .hidden __eqdf2
00017dd0 g       *ABS*	00000000 __alt_heap_start
0000d740 g     F .text	00000060 _kill_r
0000fba8 g     F .text	000000d0 .hidden __eqtf2
000024c4 g     F .text	0000004c printf
000168dc g       *ABS*	00000000 __global_pointer$
00017a40 g     O .bss	00000001 __lock___atexit_recursive_mutex
0000d25c g     F .text	0000009c _signal_r
00002894 g     F .text	00000078 __sseek
000022e0 g     F .text	00000070 __sinit
0000b9ac g     F .text	0000007c _setlocale_r
00014830 g       *ABS*	00000000 __tls_base
00003d20 g     F .text	0000000c __malloc_unlock
00012a24 g     F .text	00000198 .hidden __floatsitf
00017a28 g     O .bss	00000001 __lock___arc4random_mutex
000079e0 g     F .text	0000010c memmove
000000c0 g     F .exceptions	00000028 is_ecc_handler_present
0000a218 g     F .text	000000b4 _Balloc
00017a5c g     O .bss	00000004 __stack_chk_guard
0000e884 g     F .text	00000100 .hidden __gtdf2
00016100 g     O .rwdata	00000004 __atexit_recursive_mutex
0000d1e0 g     F .text	00000008 __errno
00002b84 g     F .text	00000004 __retarget_lock_close
00000000 g     F .entry	00000004 __reset
000077f0 g     F .text	00000008 __localeconv_l
00017a20 g     O .bss	00000004 __stdio_exit_handler
00000020 g       *ABS*	00000000 __flash_exceptions_start
00007810 g     F .text	00000060 _fstat_r
00017a24 g     O .bss	00000004 errno
00002804 g     F .text	00000008 __seofread
000179fc g     O .bss	00000004 alt_argv
000158b8 g     O .rwdata	00000180 alt_fd_list
00013a8c g     F .text	00000120 alt_find_dev
00002cdc g     F .text	000001a4 memcpy
00002510 g     F .text	00000298 setvbuf
0000faf0 g     F .text	000000b8 .hidden __floatsidf
00001d80 g     F .text	000000ac alt_niosv_timer_sc_isr
000017b8 g     F .text	000000fc alt_io_redirect
0000e984 g     F .text	00000108 .hidden __ltdf2
00013e94 g       *ABS*	00000000 __fini_array_end
0000b224 g     F .text	000000a8 __ratio
00000cc0 g     F .text	0000022c altera_avalon_jtag_uart_read
00003520 g     F .text	0000000c malloc
00002484 g     F .text	00000040 _printf_r
0000fdd8 g     F .text	00000160 .hidden __letf2
0000d2f8 g     F .text	000000c4 _raise_r
00013034 g     F .text	000000c0 _fstat
0000bc2c g     F .text	00000054 __assert_func
000142e8 g     O .rodata	000000c8 __mprec_tens
000001fc g     F .exceptions	00000118 handle_trap
00017a54 g     O .bss	00000004 __malloc_top_pad
0000d7a0 g     F .text	00000004 _getpid_r
00017a04 g     O .bss	00000004 __dso_handle
000077f8 g     F .text	0000000c _localeconv_r
0000a6cc g     F .text	000000b0 __i2b
00006dc0 g     F .text	00000510 __sfvwrite_r
0000d3bc g     F .text	000000e0 __sigtramp_r
0000792c g     F .text	00000058 _sbrk_r
00002ab4 g     F .text	00000064 _read_r
000160ec g     O .rwdata	00000004 alt_max_fd
00006848 g     F .text	00000170 _fclose_r
00006cf0 g     F .text	000000d0 fflush
00017a50 g     O .bss	00000004 __malloc_max_sbrked_mem
0000d7a4 g     F .text	000008c8 .hidden __adddf3
00013e5c g     F .text	0000001c __stack_chk_init
0000afb0 g     F .text	0000011c __b2d
00017a34 g     O .bss	00000001 __lock___env_recursive_mutex
00013158 g     F .text	000000fc _isatty
0000b43c g     F .text	00000570 _realloc_r
00017dd0 g       *ABS*	00000000 __bss_end
00001560 g     F .text	0000017c alt_iic_isr_register
000019c0 g     F .text	00000158 alt_tick
000143d8 g     O .rodata	00000028 __mprec_bigtens
0000a43c g     F .text	00000138 __s2b
0000d1e8 g     F .text	00000018 abort
000135dc g     F .text	00000168 _open
00013890 g     F .text	000000b4 _sbrk
0000ac90 g     F .text	00000058 __mcmp
00013db8 g     F .text	00000098 __stack_chk_fail
00014830 g       *ABS*	00000000 __tbss_start
00001e2c g     F .text	0000007c alt_niosv_mtimecmp_interrupt_init
00012890 g     F .text	00000094 .hidden __unordtf2
00000000 g       *ABS*	00000000 __alt_mem_ram_0
00002368 g     F .text	00000034 __fp_lock_all
00001928 g     F .text	00000098 alt_alarm_stop
00009e08 g     F .text	000000b8 __nrv_alloc_D2A
00000108 g     F .exceptions	000000f4 alt_irq_handler
00015890 g     O .rwdata	00000028 alt_dev_null
00007984 g     F .text	0000005c __libc_fini_array
00001bf8 g     F .text	00000080 alt_niosv_mtime_get
0000296c g     F .text	000000e4 _reclaim_reent
00001290 g     F .text	00000048 alt_dcache_flush_all
0000a574 g     F .text	00000078 __hi0bits
000000e8 g     F .exceptions	00000020 break_operation
0000fa6c g     F .text	00000084 .hidden __fixdfsi
00017a38 g     O .bss	00000001 __lock___malloc_recursive_mutex
00016110 g       *ABS*	00000000 __ram_rwdata_end
00017ae0 g     O .bss	00000138 __sf
000160e4 g     O .rwdata	00000008 alt_dev_list
00013e78 g     F .text	00000014 write
00001bd4 g     F .text	00000024 alt_timestamp_freq
00014830 g       *ABS*	00000000 __ram_rodata_end
00013da8 g     F .text	00000010 fstat
0000e984 g     F .text	00000108 .hidden __ledf2
00012924 g     F .text	00000100 .hidden __fixtfsi
0000a9b0 g     F .text	00000150 __pow5mult
000080fc g     F .text	00001c7c __gdtoa
00017dd0 g       *ABS*	00000000 end
00001304 g     F .text	0000003c alt_dev_reg
00002ba8 g     F .text	00000004 __retarget_lock_release_recursive
00002b9c g     F .text	00000008 __retarget_lock_try_acquire_recursive
000007a0 g     F .text	000000c0 altera_avalon_jtag_uart_init
00020000 g       *ABS*	00000000 __alt_stack_pointer
00012e04 g     F .text	00000088 .hidden __clzsi2
00000eec g     F .text	0000023c altera_avalon_jtag_uart_write
00002350 g     F .text	0000000c __sfp_lock_acquire
00007680 g     F .text	000000c4 memchr
00003218 g     F .text	00000308 _free_r
0000ba28 g     F .text	0000000c __locale_mb_cur_max
00002f6c g     F .text	00000154 __call_exitprocs
00017c18 g     O .bss	00000190 __atexit0
00016104 g     O .rwdata	00000004 __malloc_sbrk_base
00000348 g     F .text	000000bc _start
00017a08 g     O .bss	00000004 _alt_tick_rate
00009ed8 g     F .text	000001f8 __quorem_D2A
00002b94 g     F .text	00000008 __retarget_lock_try_acquire
000133d0 g     F .text	000000e0 _lseek
0000ab00 g     F .text	00000190 __lshift
0000fdd8 g     F .text	00000160 .hidden __lttf2
00017a10 g     O .bss	00000008 _alt_nticks
0000d55c g     F .text	000000a4 signal
0000fba8 g     F .text	000000d0 .hidden __netf2
00001cf4 g     F .text	0000008c alt_niosv_mtimecmp_get
0000059c g     F .text	00000090 alt_sys_init
000078c8 g     F .text	00000064 _open_r
00014830 g       *ABS*	00000000 __tdata_source
00002e80 g     F .text	000000ec __register_exitproc
00007fdc g     F .text	00000120 _ldcheck
0000a77c g     F .text	00000234 __multiply
00000b54 g     F .text	0000006c altera_avalon_jtag_uart_close
00014830 g       *ABS*	00000000 __ram_rwdata_start
00007744 g     F .text	000000ac strncpy
00013ea0 g       *ABS*	00000000 __ram_rodata_start
00017da8 g     O .bss	00000028 __malloc_current_mallinfo
0000b0cc g     F .text	00000158 __d2b
00017a18 g     O .bss	00000008 alt_niosv_timestamp_offset
000179f4 g     O .bss	00000004 alt_niosv_timer_interrupt_handler
0000062c g     F .text	00000064 altera_avalon_jtag_uart_read_fd
00013ce8 g     F .text	000000c0 alt_get_fd
00012bbc g     F .text	00000248 .hidden __extenddftf2
00002914 g     F .text	00000058 _close_r
000006f4 g     F .text	00000054 altera_avalon_jtag_uart_close_fd
00017dd0 g       *ABS*	00000000 __alt_stack_base
00000748 g     F .text	00000058 altera_avalon_jtag_uart_ioctl_fd
00002b88 g     F .text	00000004 __retarget_lock_close_recursive
00007540 g     F .text	00000140 __swsetup_r
0000e06c g     F .text	0000078c .hidden __divdf3
00002188 g     F .text	00000158 __sfp
0000b370 g     F .text	00000068 __copybits
00015b68 g     O .rwdata	00000408 __malloc_av_
00017a48 g     O .bss	00000004 __atexit
0000ea8c g     F .text	000006d8 .hidden __muldf3
000027a8 g     F .text	0000005c __sread
00013bac g     F .text	0000013c alt_find_file
00001384 g     F .text	000000a8 alt_dev_llist_insert
00003d14 g     F .text	0000000c __malloc_lock
00013e94 g       *ABS*	00000000 __fini_array_start
00006c10 g     F .text	000000e0 _fflush_r
0000bc94 g     F .text	000000e8 _calloc_r
00002b90 g     F .text	00000004 __retarget_lock_acquire_recursive
000179f0 g       *ABS*	00000000 __bss_start
00014830 g       *ABS*	00000000 __tdata_start
00014830 g       *ABS*	00000000 __tdata_end
00002c00 g     F .text	000000dc memset
00000314 g     F .text	00000034 main
00017a00 g     O .bss	00000004 alt_envp
00017a4c g     O .bss	00000004 __malloc_max_total_mem
00000690 g     F .text	00000064 altera_avalon_jtag_uart_write_fd
00002b80 g     F .text	00000004 __retarget_lock_init_recursive
0000290c g     F .text	00000008 __sclose
00020000 g       *ABS*	00000000 __alt_heap_limit
000069b8 g     F .text	0000000c fclose
00001b3c g     F .text	00000040 alt_timestamp_start
00013e94 g       *ABS*	00000000 __init_array_end
00003538 g     F .text	000007dc _malloc_r
0000bdfc g     F .text	00000030 __ascii_wctomb
000160f0 g     O .rwdata	00000004 alt_errno
0000be2c g     F .text	00000038 _fiprintf_r
0000d600 g     F .text	0000005c _init_signal
0000bd7c g     F .text	0000000c _mbtowc_r
000030d8 g     F .text	00000140 _malloc_trim_r
00009ec0 g     F .text	00000018 __freedtoa
0000bab0 g     F .text	0000017c strcmp
00013ea0 g       *ABS*	00000000 __flash_rodata_start
0000d0d4 g     F .text	00000014 vfiprintf
00002b7c g     F .text	00000004 __retarget_lock_init
0000ff38 g     F .text	000011b4 .hidden __multf3
0000e7f8 g     F .text	0000008c .hidden __nedf2
00000564 g     F .text	00000038 alt_irq_init
000018b4 g     F .text	00000074 alt_release_fd
000146d0 g     O .rodata	00000100 .hidden __clz_tab
00017a58 g     O .bss	00000004 _PathLocale
00001ea8 g     F .text	00000014 atexit
00002b18 g     F .text	00000064 _write_r
0000ba34 g     F .text	0000007c setlocale
000160fc g     O .rwdata	00000004 _impure_ptr
000179f8 g     O .bss	00000004 alt_argc
000069c4 g     F .text	0000024c __sflush_r
0000148c g     F .text	00000060 _do_dtors
000023d0 g     F .text	000000b4 _fwalk_sglue
0000fc78 g     F .text	00000160 .hidden __gttf2
0000bd88 g     F .text	00000068 __ascii_mbtowc
000110ec g     F .text	000017a4 .hidden __subtf3
0000af48 g     F .text	00000068 __ulp
0000239c g     F .text	00000034 __fp_unlock_all
000160dc g     O .rwdata	00000008 alt_fs_list
00000020 g       *ABS*	00000000 __ram_exceptions_start
00007804 g     F .text	0000000c localeconv
00001b7c g     F .text	00000058 alt_timestamp
00007468 g     F .text	000000d8 __swhatbuf_r
0000150c g     F .text	00000054 alt_ic_isr_register
00015a38 g     O .rwdata	0000000c __sglue
00000020 g     F .exceptions	00000000 trap_vector
00013988 g     F .text	00000104 _write
00016110 g       *ABS*	00000000 _edata
00017dd0 g       *ABS*	00000000 _end
00000314 g       *ABS*	00000000 __ram_exceptions_end
00017a3c g     O .bss	00000001 __lock___at_quick_exit_mutex
00000bc0 g     F .text	00000100 altera_avalon_jtag_uart_ioctl
00001b18 g     F .text	00000024 intel_niosv_irq_init
0000280c g     F .text	00000088 __swrite
00016108 g     O .rwdata	00000004 __malloc_trim_threshold
00001ebc g     F .text	00000030 exit
0000be64 g     F .text	00000048 fiprintf
0000beac g     F .text	00001228 _vfiprintf_r
0000a0d0 g     F .text	000000e4 __rshift_D2A
0000ace8 g     F .text	00000260 __mdiff
00013298 g     F .text	000000f4 _kill
00015a48 g     O .rwdata	00000120 _impure_data
00007b78 g     F .text	00000198 frexpl
00020000 g       *ABS*	00000000 __alt_data_end
00014830 g       *ABS*	00000000 __tbss_end
0000235c g     F .text	0000000c __sfp_lock_release
00007d10 g     F .text	000002cc _ldtoa_r
00014400 g     O .rodata	00000101 _ctype_
00013788 g     F .text	00000108 _read
00013e8c g       *ABS*	00000000 __init_array_start
00002b8c g     F .text	00000004 __retarget_lock_acquire
00002ba4 g     F .text	00000004 __retarget_lock_release
00012fb0 g     F .text	00000040 _exit
00001128 g     F .text	00000168 alt_alarm_start
00017a2c g     O .bss	00000001 __lock___dd_hash_mutex
000072d0 g     F .text	00000198 __smakebuf_r
00017a30 g     O .bss	00000001 __lock___tz_mutex
00007aec g     F .text	0000008c strlen
0000d200 g     F .text	0000005c _init_signal_r
00002bb8 g     F .text	00000048 open
0000e884 g     F .text	00000100 .hidden __gedf2
0000bc80 g     F .text	00000014 __assert
000067fc g     F .text	0000004c __sprint_r
000014ec g     F .text	00000020 alt_icache_flush_all
00001c78 g     F .text	0000007c alt_niosv_mtimecmp_set
0000bdf0 g     F .text	0000000c _wctomb_r
0000f164 g     F .text	00000908 .hidden __subdf3
00003d2c g     F .text	000029c4 _vfprintf_r
0000a5ec g     F .text	000000e0 __lo0bits
000160f4 g     O .rwdata	00000008 alt_alarm_list
0000142c g     F .text	00000060 _do_ctors
0000d65c g     F .text	000000e4 __sigtramp
00002bac g     F .text	0000000c close
00015f70 g     O .rwdata	0000016c __global_locale
00000468 g     F .text	00000074 alt_load
000066f0 g     F .text	00000014 vfprintf
000179f0 g     O .bss	00000004 alt_niosv_software_interrupt_handler
00017a44 g     O .bss	00000001 __lock___sfp_recursive_mutex
0000a1b4 g     F .text	00000064 __trailz_D2A
0000d49c g     F .text	000000c0 raise
00012ed0 g     F .text	000000e0 _close
0000352c g     F .text	0000000c free
0000a2f0 g     F .text	0000014c __multadd
0000a2cc g     F .text	00000024 _Bfree



Disassembly of section .entry:

00000000 <__reset>:
 * Jump to the _start entry point in the .text section if reset code
 * is allowed or if optimizing for RTL simulation.
 */

    /* Jump to the _start entry point in the .text section. */
    tail _start
   0:	3480006f          	j	348 <_start>
	...

Disassembly of section .exceptions:

00000020 <trap_vector>:
    /* Save caller-saved registers on the stack */

#if __riscv_flen == 32 // rv32if
    addi sp, sp, -36 * 4
#elif ALT_CPU_NUM_GPR == 32 // rv32i
	addi sp, sp, -16 * 4
  20:	fc010113          	add	sp,sp,-64
#else // rv32e (16-bit)
	addi sp, sp, -10 * 4
#endif

    /* rv32e (16-bit), rv32i and rv32if */
    sw ra,  0 * 4(sp)
  24:	00112023          	sw	ra,0(sp)
    sw t0,  1 * 4(sp)
  28:	00512223          	sw	t0,4(sp)
    sw t1,  2 * 4(sp)
  2c:	00612423          	sw	t1,8(sp)
    sw t2,  3 * 4(sp)
  30:	00712623          	sw	t2,12(sp)
    sw a0,  4 * 4(sp)
  34:	00a12823          	sw	a0,16(sp)
    sw a1,  5 * 4(sp)
  38:	00b12a23          	sw	a1,20(sp)
    sw a2,  6 * 4(sp)
  3c:	00c12c23          	sw	a2,24(sp)
    sw a3,  7 * 4(sp)
  40:	00d12e23          	sw	a3,28(sp)
    sw a4,  8 * 4(sp)
  44:	02e12023          	sw	a4,32(sp)
    sw a5,  9 * 4(sp)
  48:	02f12223          	sw	a5,36(sp)

    /* rv32i and rv32if */
#if ALT_CPU_NUM_GPR == 32 
    sw a6, 10 * 4(sp)
  4c:	03012423          	sw	a6,40(sp)
    sw a7, 11 * 4(sp)
  50:	03112623          	sw	a7,44(sp)
    sw t3, 12 * 4(sp)
  54:	03c12823          	sw	t3,48(sp)
    sw t4, 13 * 4(sp)
  58:	03d12a23          	sw	t4,52(sp)
    sw t5, 14 * 4(sp)
  5c:	03e12c23          	sw	t5,56(sp)
    sw t6, 15 * 4(sp)
  60:	03f12e23          	sw	t6,60(sp)
    fsw fa6, 34 * 4(sp)
    fsw fa7, 35 * 4(sp)
#endif
   
    /* Call handle_trap to dispatch the correct handler, if available */
    csrr a0, mcause
  64:	34202573          	csrr	a0,mcause
    csrr a1, mepc
  68:	341025f3          	csrr	a1,mepc
    csrr a2, mtval
  6c:	34302673          	csrr	a2,mtval
    jal handle_trap
  70:	18c000ef          	jal	1fc <handle_trap>
    csrw mepc, a0
  74:	34151073          	csrw	mepc,a0

    /* Restore caller-saved registers */

    /* rv32e (16-bit), rv32i and rv32if */
    lw ra,  0 * 4(sp)
  78:	00012083          	lw	ra,0(sp)
    lw t0,  1 * 4(sp)
  7c:	00412283          	lw	t0,4(sp)
    lw t1,  2 * 4(sp)
  80:	00812303          	lw	t1,8(sp)
    lw t2,  3 * 4(sp)
  84:	00c12383          	lw	t2,12(sp)
    lw a0,  4 * 4(sp)
  88:	01012503          	lw	a0,16(sp)
    lw a1,  5 * 4(sp)
  8c:	01412583          	lw	a1,20(sp)
    lw a2,  6 * 4(sp)
  90:	01812603          	lw	a2,24(sp)
    lw a3,  7 * 4(sp)
  94:	01c12683          	lw	a3,28(sp)
    lw a4,  8 * 4(sp)
  98:	02012703          	lw	a4,32(sp)
    lw a5,  9 * 4(sp)
  9c:	02412783          	lw	a5,36(sp)

    /* rv32i and rv32if */
#if ALT_CPU_NUM_GPR == 32	
    lw a6, 10 * 4(sp)
  a0:	02812803          	lw	a6,40(sp)
    lw a7, 11 * 4(sp)
  a4:	02c12883          	lw	a7,44(sp)
    lw t3, 12 * 4(sp)
  a8:	03012e03          	lw	t3,48(sp)
    lw t4, 13 * 4(sp)
  ac:	03412e83          	lw	t4,52(sp)
    lw t5, 14 * 4(sp)
  b0:	03812f03          	lw	t5,56(sp)
    lw t6, 15 * 4(sp)
  b4:	03c12f83          	lw	t6,60(sp)
#endif

#if __riscv_flen == 32 // rv32if
    addi sp, sp, 36 * 4
#elif ALT_CPU_NUM_GPR == 32 // rv32i
	addi sp, sp, 16 * 4
  b8:	04010113          	add	sp,sp,64
    lw s0, 0(sp)
    lw s1, 4(sp)
    addi sp, sp, 8
#endif

    mret
  bc:	30200073          	mret

000000c0 <is_ecc_handler_present>:
    }

    return epc;
}

alt_u32 is_ecc_handler_present (alt_u32 e_code) {
  c0:	fd010113          	add	sp,sp,-48
  c4:	02812623          	sw	s0,44(sp)
  c8:	03010413          	add	s0,sp,48
  cc:	fca42e23          	sw	a0,-36(s0)
#ifdef ALT_CPU_ECC_PRESENT
    alt_u32 present = (e_code == NIOSV_ECC_EXCEPTION && alt_ecc_exception_handler);
#else
    alt_u32 present = 0;
  d0:	fe042623          	sw	zero,-20(s0)
#endif
    return present;
  d4:	fec42783          	lw	a5,-20(s0)
} 
  d8:	00078513          	mv	a0,a5
  dc:	02c12403          	lw	s0,44(sp)
  e0:	03010113          	add	sp,sp,48
  e4:	00008067          	ret

000000e8 <break_operation>:

void break_operation (void)
{
  e8:	ff010113          	add	sp,sp,-16
  ec:	00812623          	sw	s0,12(sp)
  f0:	01010413          	add	s0,sp,16
#ifdef ALT_CPU_HAS_DEBUG_STUB
            NIOSV_EBREAK();
  f4:	00100073          	ebreak
#else  // ALT_CPU_HAS_DEBUG_STUB
            while(1)
                ;
#endif // ALT_CPU_HAS_DEBUG_STUB  
}
  f8:	00000013          	nop
  fc:	00c12403          	lw	s0,12(sp)
 100:	01010113          	add	sp,sp,16
 104:	00008067          	ret

00000108 <alt_irq_handler>:
 * This means that if there is never a call to alt_irq_register() then
 * this function will not get linked in to the executable. This is acceptable
 * since if no handler is ever registered, then an interrupt can never occur.
 */
void alt_irq_handler (void)
{
 108:	fd010113          	add	sp,sp,-48
 10c:	02112623          	sw	ra,44(sp)
 110:	02812423          	sw	s0,40(sp)
 114:	03010413          	add	s0,sp,48
    alt_u32 i;

    /*
     * Notify the operating system that we are at interrupt level.
     */  
    ALT_OS_INT_ENTER();
 118:	00000013          	nop
{
#if ALT_HAS_IRQ_SUPPORT
    alt_u32 active;
    alt_u32 enabled;

    NIOSV_READ_CSR(NIOSV_MIP_CSR, active);
 11c:	344027f3          	csrr	a5,mip
 120:	fef42023          	sw	a5,-32(s0)
    NIOSV_READ_CSR(NIOSV_MIE_CSR, enabled);
 124:	304027f3          	csrr	a5,mie
 128:	fef42223          	sw	a5,-28(s0)

    // Since this is used by alt_irq_handler, we want to only process the upper 16-bits
    // --> the interrupt lines connected via Platform Designer...
    return (active & enabled) >> 16;
 12c:	fe042703          	lw	a4,-32(s0)
 130:	fe442783          	lw	a5,-28(s0)
 134:	00f777b3          	and	a5,a4,a5
 138:	0107d793          	srl	a5,a5,0x10
     * reduced by finding out which interrupts are pending as late as possible.
     * Consider the case where the high priority interupt is asserted during
     * the interrupt entry sequence for a lower priority interrupt to see why
     * this is the case.
     */
    active = alt_irq_pending();
 13c:	fcf42a23          	sw	a5,-44(s0)

    do
    {
        i = 0;
 140:	fc042e23          	sw	zero,-36(s0)
        mask = 1;
 144:	00100793          	li	a5,1
 148:	fcf42c23          	sw	a5,-40(s0)
         * called to clear the interrupt condition.
         */

        do
        {
            if (active & mask)
 14c:	fd442703          	lw	a4,-44(s0)
 150:	fd842783          	lw	a5,-40(s0)
 154:	00f777b3          	and	a5,a4,a5
 158:	06078263          	beqz	a5,1bc <alt_irq_handler+0xb4>
            {
                alt_irq[i].handler(alt_irq[i].context); 
 15c:	000187b7          	lui	a5,0x18
 160:	a6078713          	add	a4,a5,-1440 # 17a60 <alt_irq>
 164:	fdc42783          	lw	a5,-36(s0)
 168:	00379793          	sll	a5,a5,0x3
 16c:	00f707b3          	add	a5,a4,a5
 170:	0007a703          	lw	a4,0(a5)
 174:	000187b7          	lui	a5,0x18
 178:	a6078693          	add	a3,a5,-1440 # 17a60 <alt_irq>
 17c:	fdc42783          	lw	a5,-36(s0)
 180:	00379793          	sll	a5,a5,0x3
 184:	00f687b3          	add	a5,a3,a5
 188:	0047a783          	lw	a5,4(a5)
 18c:	00078513          	mv	a0,a5
 190:	000700e7          	jalr	a4
                break;
 194:	00000013          	nop
    NIOSV_READ_CSR(NIOSV_MIP_CSR, active);
 198:	344027f3          	csrr	a5,mip
 19c:	fef42423          	sw	a5,-24(s0)
    NIOSV_READ_CSR(NIOSV_MIE_CSR, enabled);
 1a0:	304027f3          	csrr	a5,mie
 1a4:	fef42623          	sw	a5,-20(s0)
    return (active & enabled) >> 16;
 1a8:	fe842703          	lw	a4,-24(s0)
 1ac:	fec42783          	lw	a5,-20(s0)
 1b0:	00f777b3          	and	a5,a4,a5
 1b4:	0107d793          	srl	a5,a5,0x10
 1b8:	0200006f          	j	1d8 <alt_irq_handler+0xd0>
            }
            
            mask <<= 1;
 1bc:	fd842783          	lw	a5,-40(s0)
 1c0:	00179793          	sll	a5,a5,0x1
 1c4:	fcf42c23          	sw	a5,-40(s0)
            i++;
 1c8:	fdc42783          	lw	a5,-36(s0)
 1cc:	00178793          	add	a5,a5,1
 1d0:	fcf42e23          	sw	a5,-36(s0)
            if (active & mask)
 1d4:	f79ff06f          	j	14c <alt_irq_handler+0x44>
            
        } while (1);

        active = alt_irq_pending();
 1d8:	fcf42a23          	sw	a5,-44(s0)
    
    } while (active);
 1dc:	fd442783          	lw	a5,-44(s0)
 1e0:	f60790e3          	bnez	a5,140 <alt_irq_handler+0x38>

    /*
     * Notify the operating system that interrupt processing is complete.
     */ 

    ALT_OS_INT_EXIT();
 1e4:	00000013          	nop
}
 1e8:	00000013          	nop
 1ec:	02c12083          	lw	ra,44(sp)
 1f0:	02812403          	lw	s0,40(sp)
 1f4:	03010113          	add	sp,sp,48
 1f8:	00008067          	ret

000001fc <handle_trap>:
{
 1fc:	fd010113          	add	sp,sp,-48
 200:	02112623          	sw	ra,44(sp)
 204:	02812423          	sw	s0,40(sp)
 208:	03010413          	add	s0,sp,48
 20c:	fca42e23          	sw	a0,-36(s0)
 210:	fcb42c23          	sw	a1,-40(s0)
 214:	fcc42a23          	sw	a2,-44(s0)
    is_irq = (cause & NIOSV_MCAUSE_INTERRUPT_MASK);
 218:	fdc42703          	lw	a4,-36(s0)
 21c:	800007b7          	lui	a5,0x80000
 220:	00f777b3          	and	a5,a4,a5
 224:	fef42423          	sw	a5,-24(s0)
    exception_code = (cause & ~NIOSV_MCAUSE_INTERRUPT_MASK);
 228:	fdc42703          	lw	a4,-36(s0)
 22c:	800007b7          	lui	a5,0x80000
 230:	fff78793          	add	a5,a5,-1 # 7fffffff <__alt_data_end+0x7ffdffff>
 234:	00f777b3          	and	a5,a4,a5
 238:	fef42623          	sw	a5,-20(s0)
    if (is_irq) {
 23c:	fe842783          	lw	a5,-24(s0)
 240:	08078863          	beqz	a5,2d0 <handle_trap+0xd4>
        switch (exception_code) {
 244:	fec42703          	lw	a4,-20(s0)
 248:	00300793          	li	a5,3
 24c:	04f70063          	beq	a4,a5,28c <handle_trap+0x90>
 250:	fec42703          	lw	a4,-20(s0)
 254:	00700793          	li	a5,7
 258:	06f71263          	bne	a4,a5,2bc <handle_trap+0xc0>
                if (alt_niosv_timer_interrupt_handler) {
 25c:	000187b7          	lui	a5,0x18
 260:	9f47a783          	lw	a5,-1548(a5) # 179f4 <alt_niosv_timer_interrupt_handler>
 264:	08078263          	beqz	a5,2e8 <handle_trap+0xec>
                    ALT_OS_INT_ENTER();
 268:	00000013          	nop
                    alt_niosv_timer_interrupt_handler(cause, epc, tval);
 26c:	000187b7          	lui	a5,0x18
 270:	9f47a783          	lw	a5,-1548(a5) # 179f4 <alt_niosv_timer_interrupt_handler>
 274:	fd442603          	lw	a2,-44(s0)
 278:	fd842583          	lw	a1,-40(s0)
 27c:	fdc42503          	lw	a0,-36(s0)
 280:	000780e7          	jalr	a5
                    ALT_OS_INT_EXIT();
 284:	00000013          	nop
                break;
 288:	0600006f          	j	2e8 <handle_trap+0xec>
                if (alt_niosv_software_interrupt_handler) {
 28c:	000187b7          	lui	a5,0x18
 290:	9f07a783          	lw	a5,-1552(a5) # 179f0 <alt_niosv_software_interrupt_handler>
 294:	04078e63          	beqz	a5,2f0 <handle_trap+0xf4>
                    ALT_OS_INT_ENTER();
 298:	00000013          	nop
                    alt_niosv_software_interrupt_handler(cause, epc, tval);
 29c:	000187b7          	lui	a5,0x18
 2a0:	9f07a783          	lw	a5,-1552(a5) # 179f0 <alt_niosv_software_interrupt_handler>
 2a4:	fd442603          	lw	a2,-44(s0)
 2a8:	fd842583          	lw	a1,-40(s0)
 2ac:	fdc42503          	lw	a0,-36(s0)
 2b0:	000780e7          	jalr	a5
                    ALT_OS_INT_EXIT();
 2b4:	00000013          	nop
                break;
 2b8:	0380006f          	j	2f0 <handle_trap+0xf4>
                if (exception_code >= 16) {
 2bc:	fec42703          	lw	a4,-20(s0)
 2c0:	00f00793          	li	a5,15
 2c4:	02e7fa63          	bgeu	a5,a4,2f8 <handle_trap+0xfc>
                    alt_irq_handler();
 2c8:	e41ff0ef          	jal	108 <alt_irq_handler>
                break;
 2cc:	02c0006f          	j	2f8 <handle_trap+0xfc>
        if (!is_ecc_handler_present(exception_code)) {
 2d0:	fec42503          	lw	a0,-20(s0)
 2d4:	dedff0ef          	jal	c0 <is_ecc_handler_present>
 2d8:	00050793          	mv	a5,a0
 2dc:	02079063          	bnez	a5,2fc <handle_trap+0x100>
             break_operation();
 2e0:	e09ff0ef          	jal	e8 <break_operation>
 2e4:	0180006f          	j	2fc <handle_trap+0x100>
                break;
 2e8:	00000013          	nop
 2ec:	0100006f          	j	2fc <handle_trap+0x100>
                break;
 2f0:	00000013          	nop
 2f4:	0080006f          	j	2fc <handle_trap+0x100>
                break;
 2f8:	00000013          	nop
    return epc;
 2fc:	fd842783          	lw	a5,-40(s0)
}
 300:	00078513          	mv	a0,a5
 304:	02c12083          	lw	ra,44(sp)
 308:	02812403          	lw	s0,40(sp)
 30c:	03010113          	add	sp,sp,48
 310:	00008067          	ret

Disassembly of section .text:

00000314 <main>:
#include <stdio.h>

int main()
{
     314:	ff010113          	add	sp,sp,-16
     318:	00112623          	sw	ra,12(sp)
     31c:	00812423          	sw	s0,8(sp)
     320:	01010413          	add	s0,sp,16
	printf("hello_world");
     324:	000147b7          	lui	a5,0x14
     328:	ea078513          	add	a0,a5,-352 # 13ea0 <__flash_rodata_start>
     32c:	198020ef          	jal	24c4 <printf>
	return 0;
     330:	00000793          	li	a5,0
}
     334:	00078513          	mv	a0,a5
     338:	00c12083          	lw	ra,12(sp)
     33c:	00812403          	lw	s0,8(sp)
     340:	01010113          	add	sp,sp,16
     344:	00008067          	ret

00000348 <_start>:
    .type _start, @function
_start:
#if ALT_CPU_HAS_CSR_SUPPORT
    /* assume that we are in machine mode on startup */
    /* setup trap to catch anything that goes wrong early in the boot process */
    la t0, trap_vector
     348:	00000297          	auipc	t0,0x0
     34c:	cd828293          	add	t0,t0,-808 # 20 <trap_vector>
    csrw mtvec, t0
     350:	30529073          	csrw	mtvec,t0

    /* disable all interrupt */
    li t0, 0x88
     354:	08800293          	li	t0,136
    csrc mstatus, t0
     358:	3002b073          	csrc	mstatus,t0
    csrw mie, zero
     35c:	30401073          	csrw	mie,zero
    csrw mip, zero
     360:	34401073          	csrw	mip,zero
 * RTL simulations can ensure the data cache tag RAM is already
 * initialized so skipping this speeds up RTL simulation.
 */
#ifndef ALT_SIM_OPTIMIZE
#if ALT_CPU_DCACHE_SIZE > 0
    li t0, ALT_CPU_DCACHE_SIZE
     364:	000012b7          	lui	t0,0x1
0:
    /* cbo.inval.ix */
    .insn i 0x0F, 0x2, zero, t0, 0x080
     368:	0802a00f          	.insn	4, 0x0802a00f
    addi t0, t0, -ALT_CPU_DCACHE_LINE_SIZE
     36c:	fe028293          	add	t0,t0,-32 # fe0 <altera_avalon_jtag_uart_write+0xf4>
    bnez t0, 0b
     370:	fe029ce3          	bnez	t0,368 <_start+0x20>
#endif /* Initialize Data Cache */
#endif /* ALT_SIM_OPTIMIZE */

    .option push
    .option norelax
    la gp, __global_pointer$
     374:	00016197          	auipc	gp,0x16
     378:	56818193          	add	gp,gp,1384 # 168dc <__global_pointer$>

    /*
     * Now that the caches are initialized, set up the stack pointer and global pointer.
     * The values provided by the linker are assumed to be correctly aligned.
     */
    la sp, __alt_stack_pointer
     37c:	00020117          	auipc	sp,0x20
     380:	c8410113          	add	sp,sp,-892 # 20000 <__alt_data_end>
    /* Log that the BSS is about to be cleared. */
#ifdef ALT_LOG_ENABLE
    ALT_LOG_PUTS(alt_log_msg_bss)
#endif /* ALT_LOG_ENABLE */

    la t1, __bss_start
     384:	00017317          	auipc	t1,0x17
     388:	66c30313          	add	t1,t1,1644 # 179f0 <alt_niosv_software_interrupt_handler>
    la t2, __bss_end
     38c:	00018397          	auipc	t2,0x18
     390:	a4438393          	add	t2,t2,-1468 # 17dd0 <__alt_heap_start>
0:
    sw zero, (t1)
     394:	00032023          	sw	zero,0(t1)
    addi t1, t1, 4
     398:	00430313          	add	t1,t1,4
    bltu t1, t2, 0b
     39c:	fe736ce3          	bltu	t1,t2,394 <_start+0x4c>
/*
 * The alt_load() facility is normally used when there is no bootloader.
 * It copies some sections into RAM so it acts like a mini-bootloader.
 */
#ifdef CALL_ALT_LOAD
    call alt_load
     3a0:	0c8000ef          	jal	468 <alt_load>
 */
#ifndef ALT_SIM_OPTIMIZE
.globl __tbss_start
.globl __tbss_end

    la t1, __tbss_start
     3a4:	00014317          	auipc	t1,0x14
     3a8:	48c30313          	add	t1,t1,1164 # 14830 <jtag_uart_0>
    la t2, __tbss_end
     3ac:	00014397          	auipc	t2,0x14
     3b0:	48438393          	add	t2,t2,1156 # 14830 <jtag_uart_0>
    
    // Check if we need to skip this (if .tbss is empty)
    bgeu t1, t2, 1f
     3b4:	00737863          	bgeu	t1,t2,3c4 <_start+0x7c>
0:
    sw zero, (t1)
     3b8:	00032023          	sw	zero,0(t1)
    addi t1, t1, 4
     3bc:	00430313          	add	t1,t1,4
    bltu t1, t2, 0b
     3c0:	fe736ce3          	bltu	t1,t2,3b8 <_start+0x70>
// Copy tdata to tdata golden source location
.globl __tdata_start
.globl __tdata_end
.globl __tdata_source

    la t0, __tdata_start
     3c4:	00014297          	auipc	t0,0x14
     3c8:	46c28293          	add	t0,t0,1132 # 14830 <jtag_uart_0>
    la t1, __tdata_end
     3cc:	00014317          	auipc	t1,0x14
     3d0:	46430313          	add	t1,t1,1124 # 14830 <jtag_uart_0>
    la t2, __tdata_source
     3d4:	00014397          	auipc	t2,0x14
     3d8:	45c38393          	add	t2,t2,1116 # 14830 <jtag_uart_0>

    // Check if we need to skip this (if .tdata is empty)
    bgeu t0, t1, 1f
     3dc:	0062fc63          	bgeu	t0,t1,3f4 <_start+0xac>
0:
    lw s1, (t0)
     3e0:	0002a483          	lw	s1,0(t0)
    sw s1, (t2)
     3e4:	0093a023          	sw	s1,0(t2)
    addi t0, t0, 4
     3e8:	00428293          	add	t0,t0,4
    addi t2, t2, 4
     3ec:	00438393          	add	t2,t2,4
    bltu t0, t1, 0b
     3f0:	fe62e8e3          	bltu	t0,t1,3e0 <_start+0x98>
1:

// Assign thread pointer register (tp) to main thread tls base
.globl __tls_base
    la tp, __tls_base
     3f4:	00014217          	auipc	tp,0x14
     3f8:	43c20213          	add	tp,tp,1084 # 14830 <jtag_uart_0>
#ifdef ALT_LOG_ENABLE
    ALT_LOG_PUTS(alt_log_msg_alt_main)
#endif /* ALT_LOG_ENABLE */

    /* Call the C entry point. It should never return. */
    call alt_main
     3fc:	0e0000ef          	jal	4dc <alt_main>

00000400 <alt_after_alt_main>:

    /* Wait in infinite loop in case alt_main does return. */
alt_after_alt_main:
    j alt_after_alt_main
     400:	0000006f          	j	400 <alt_after_alt_main>

00000404 <alt_load_section>:
     404:	fe010113          	add	sp,sp,-32
     408:	00812e23          	sw	s0,28(sp)
 */  

void alt_load (void)
{
  /* 
   * Copy the .rwdata section. 
     40c:	02010413          	add	s0,sp,32
     410:	fea42623          	sw	a0,-20(s0)
     414:	feb42423          	sw	a1,-24(s0)
     418:	fec42223          	sw	a2,-28(s0)
   */
     41c:	fe842703          	lw	a4,-24(s0)
     420:	fec42783          	lw	a5,-20(s0)
     424:	02f70a63          	beq	a4,a5,458 <alt_load_section+0x54>

  alt_load_section (&__flash_rwdata_start, 
     428:	0240006f          	j	44c <alt_load_section+0x48>
		               &__ram_rwdata_start,
		               &__ram_rwdata_end);
     42c:	fec42703          	lw	a4,-20(s0)
     430:	00470793          	add	a5,a4,4
     434:	fef42623          	sw	a5,-20(s0)
     438:	fe842783          	lw	a5,-24(s0)
     43c:	00478693          	add	a3,a5,4
     440:	fed42423          	sw	a3,-24(s0)
     444:	00072703          	lw	a4,0(a4)
     448:	00e7a023          	sw	a4,0(a5)
  alt_load_section (&__flash_rwdata_start, 
     44c:	fe842703          	lw	a4,-24(s0)
     450:	fe442783          	lw	a5,-28(s0)
     454:	fcf71ce3          	bne	a4,a5,42c <alt_load_section+0x28>

  /*
   * Copy the exception handler.
     458:	00000013          	nop
     45c:	01c12403          	lw	s0,28(sp)
     460:	02010113          	add	sp,sp,32
     464:	00008067          	ret

00000468 <alt_load>:
{
     468:	ff010113          	add	sp,sp,-16
     46c:	00112623          	sw	ra,12(sp)
     470:	00812423          	sw	s0,8(sp)
     474:	01010413          	add	s0,sp,16
  alt_load_section (&__flash_rwdata_start, 
     478:	000167b7          	lui	a5,0x16
     47c:	11078613          	add	a2,a5,272 # 16110 <__flash_rwdata_start>
     480:	000157b7          	lui	a5,0x15
     484:	83078593          	add	a1,a5,-2000 # 14830 <jtag_uart_0>
     488:	000167b7          	lui	a5,0x16
     48c:	11078513          	add	a0,a5,272 # 16110 <__flash_rwdata_start>
     490:	f75ff0ef          	jal	404 <alt_load_section>
   */

  alt_load_section (&__flash_exceptions_start, 
     494:	31400613          	li	a2,788
     498:	02000593          	li	a1,32
     49c:	02000513          	li	a0,32
     4a0:	f65ff0ef          	jal	404 <alt_load_section>

  /*
   * Copy the .rodata section.
   */

  alt_load_section (&__flash_rodata_start, 
     4a4:	000157b7          	lui	a5,0x15
     4a8:	83078613          	add	a2,a5,-2000 # 14830 <jtag_uart_0>
     4ac:	000147b7          	lui	a5,0x14
     4b0:	ea078593          	add	a1,a5,-352 # 13ea0 <__flash_rodata_start>
     4b4:	000147b7          	lui	a5,0x14
     4b8:	ea078513          	add	a0,a5,-352 # 13ea0 <__flash_rodata_start>
     4bc:	f49ff0ef          	jal	404 <alt_load_section>
  
  /*
   * Now ensure that the caches are in synch.
   */
  
  alt_dcache_flush_all();
     4c0:	5d1000ef          	jal	1290 <alt_dcache_flush_all>
  alt_icache_flush_all();
     4c4:	028010ef          	jal	14ec <alt_icache_flush_all>
}
     4c8:	00000013          	nop
     4cc:	00c12083          	lw	ra,12(sp)
     4d0:	00812403          	lw	s0,8(sp)
     4d4:	01010113          	add	sp,sp,16
     4d8:	00008067          	ret

000004dc <alt_main>:
 * devices/filesystems/components in the system; and call the entry point for
 * the users application, i.e. main().
 */

void alt_main (void)
{
     4dc:	fe010113          	add	sp,sp,-32
     4e0:	00112e23          	sw	ra,28(sp)
     4e4:	00812c23          	sw	s0,24(sp)
     4e8:	02010413          	add	s0,sp,32
#endif

  /* ALT LOG - please see HAL/sys/alt_log_printf.h for details */
  ALT_LOG_PRINT_BOOT("[alt_main.c] Entering alt_main, calling alt_irq_init.\r\n");
  /* Initialize the interrupt controller. */
  alt_irq_init (NULL);
     4ec:	00000513          	li	a0,0
     4f0:	074000ef          	jal	564 <alt_irq_init>

  /* Initialize the operating system */
  ALT_LOG_PRINT_BOOT("[alt_main.c] Done alt_irq_init, calling alt_os_init.\r\n");
  ALT_OS_INIT();
     4f4:	00000013          	nop
  ALT_LOG_PRINT_BOOT("[alt_main.c] Done OS Init, calling alt_sem_create.\r\n");
  ALT_SEM_CREATE (&alt_fd_list_lock, 1);

  /* Initialize the device drivers/software components. */
  ALT_LOG_PRINT_BOOT("[alt_main.c] Calling alt_sys_init.\r\n");
  alt_sys_init();
     4f8:	0a4000ef          	jal	59c <alt_sys_init>
   * devices be present (not equal to /dev/null) and if direct drivers
   * aren't being used.
   */

    ALT_LOG_PRINT_BOOT("[alt_main.c] Redirecting IO.\r\n");
    alt_io_redirect(ALT_STDOUT, ALT_STDIN, ALT_STDERR);
     4fc:	000147b7          	lui	a5,0x14
     500:	eac78613          	add	a2,a5,-340 # 13eac <__flash_rodata_start+0xc>
     504:	000147b7          	lui	a5,0x14
     508:	eac78593          	add	a1,a5,-340 # 13eac <__flash_rodata_start+0xc>
     50c:	000147b7          	lui	a5,0x14
     510:	eac78513          	add	a0,a5,-340 # 13eac <__flash_rodata_start+0xc>
     514:	2a4010ef          	jal	17b8 <alt_io_redirect>
  /* 
   * Call the C++ constructors 
   */

  ALT_LOG_PRINT_BOOT("[alt_main.c] Calling C++ constructors.\r\n");
  _do_ctors ();
     518:	715000ef          	jal	142c <_do_ctors>
   * redefined as _exit()). This is in the interest of reducing code footprint,
   * in that the atexit() overhead is removed when it's not needed.
   */

  ALT_LOG_PRINT_BOOT("[alt_main.c] Calling atexit.\r\n");
  atexit (_do_dtors);
     51c:	000017b7          	lui	a5,0x1
     520:	48c78513          	add	a0,a5,1164 # 148c <_do_dtors>
     524:	185010ef          	jal	1ea8 <atexit>
  ALT_LOG_PRINT_BOOT("[alt_main.c] Calling main.\r\n");

#ifdef ALT_NO_EXIT
  main (alt_argc, alt_argv, alt_envp);
#else
  result = main (alt_argc, alt_argv, alt_envp);
     528:	000187b7          	lui	a5,0x18
     52c:	9f87a703          	lw	a4,-1544(a5) # 179f8 <alt_argc>
     530:	000187b7          	lui	a5,0x18
     534:	9fc7a683          	lw	a3,-1540(a5) # 179fc <alt_argv>
     538:	000187b7          	lui	a5,0x18
     53c:	a007a783          	lw	a5,-1536(a5) # 17a00 <alt_envp>
     540:	00078613          	mv	a2,a5
     544:	00068593          	mv	a1,a3
     548:	00070513          	mv	a0,a4
     54c:	dc9ff0ef          	jal	314 <main>
     550:	fea42623          	sw	a0,-20(s0)
  close(STDOUT_FILENO);
     554:	00100513          	li	a0,1
     558:	654020ef          	jal	2bac <close>
  exit (result);
     55c:	fec42503          	lw	a0,-20(s0)
     560:	15d010ef          	jal	1ebc <exit>

00000564 <alt_irq_init>:
 * The "base" parameter is ignored and only
 * present for backwards-compatibility.
 */

void alt_irq_init ( const void* base )
{
     564:	fe010113          	add	sp,sp,-32
     568:	00112e23          	sw	ra,28(sp)
     56c:	00812c23          	sw	s0,24(sp)
     570:	02010413          	add	s0,sp,32
     574:	fea42623          	sw	a0,-20(s0)
    INTEL_NIOSV_G_IRQ_INIT ( INTEL_NIOSV_G_0, intel_niosv_g_0);
     578:	5a0010ef          	jal	1b18 <intel_niosv_irq_init>
    NIOSV_SET_CSR(NIOSV_MSTATUS_CSR, NIOSV_MSTATUS_MIE_MASK);
     57c:	00800793          	li	a5,8
     580:	3007a073          	csrs	mstatus,a5
}
     584:	00000013          	nop
    alt_irq_cpu_enable_interrupts();
}
     588:	00000013          	nop
     58c:	01c12083          	lw	ra,28(sp)
     590:	01812403          	lw	s0,24(sp)
     594:	02010113          	add	sp,sp,32
     598:	00008067          	ret

0000059c <alt_sys_init>:
 * Initialize the non-interrupt controller devices.
 * Called after alt_irq_init().
 */

void alt_sys_init( void )
{
     59c:	fe010113          	add	sp,sp,-32
     5a0:	00112e23          	sw	ra,28(sp)
     5a4:	00812c23          	sw	s0,24(sp)
     5a8:	02010413          	add	s0,sp,32
    ALTERA_AVALON_JTAG_UART_INIT ( JTAG_UART_0, jtag_uart_0);
     5ac:	00000613          	li	a2,0
     5b0:	00000593          	li	a1,0
     5b4:	000157b7          	lui	a5,0x15
     5b8:	85878513          	add	a0,a5,-1960 # 14858 <jtag_uart_0+0x28>
     5bc:	1e4000ef          	jal	7a0 <altera_avalon_jtag_uart_init>
     5c0:	000157b7          	lui	a5,0x15
     5c4:	83078513          	add	a0,a5,-2000 # 14830 <jtag_uart_0>
     5c8:	53d000ef          	jal	1304 <alt_dev_reg>
    ALTERA_AVALON_SYSID_QSYS_INIT ( SYSID_QSYS_0, sysid_qsys_0);
     5cc:	00000013          	nop
     5d0:	3e800793          	li	a5,1000
     5d4:	fef42623          	sw	a5,-20(s0)
 * in order to initialise the value of the clock frequency.
 */

static ALT_INLINE int ALT_ALWAYS_INLINE alt_sysclk_init (alt_u32 nticks)
{
  if (! _alt_tick_rate)
     5d8:	000187b7          	lui	a5,0x18
     5dc:	a087a783          	lw	a5,-1528(a5) # 17a08 <_alt_tick_rate>
     5e0:	00079a63          	bnez	a5,5f4 <alt_sys_init+0x58>
  {
    _alt_tick_rate = nticks;
     5e4:	000187b7          	lui	a5,0x18
     5e8:	fec42703          	lw	a4,-20(s0)
     5ec:	a0e7a423          	sw	a4,-1528(a5) # 17a08 <_alt_tick_rate>
    return 0;
     5f0:	0080006f          	j	5f8 <alt_sys_init+0x5c>
  }
  else
  {
    return -1;
     5f4:	00000013          	nop
     5f8:	000027b7          	lui	a5,0x2
     5fc:	d8078793          	add	a5,a5,-640 # 1d80 <alt_niosv_timer_sc_isr>
     600:	fef42423          	sw	a5,-24(s0)
alt_u64 alt_niosv_mtimecmp_get();
void alt_niosv_mtimecmp_interrupt_init();
extern alt_niosv_timer_isr_t alt_niosv_timer_interrupt_handler;

static ALT_INLINE void ALT_ALWAYS_INLINE alt_niosv_register_mtimecmp_interrupt_handle(alt_niosv_timer_isr_t handle) {
    alt_niosv_timer_interrupt_handler = handle;
     604:	000187b7          	lui	a5,0x18
     608:	fe842703          	lw	a4,-24(s0)
     60c:	9ee7aa23          	sw	a4,-1548(a5) # 179f4 <alt_niosv_timer_interrupt_handler>
}
     610:	00000013          	nop
    INTEL_NIOSV_G_INIT ( INTEL_NIOSV_G_0, intel_niosv_g_0);
     614:	019010ef          	jal	1e2c <alt_niosv_mtimecmp_interrupt_init>
}
     618:	00000013          	nop
     61c:	01c12083          	lw	ra,28(sp)
     620:	01812403          	lw	s0,24(sp)
     624:	02010113          	add	sp,sp,32
     628:	00008067          	ret

0000062c <altera_avalon_jtag_uart_read_fd>:
 *
 */

int 
altera_avalon_jtag_uart_read_fd(alt_fd* fd, char* buffer, int space)
{
     62c:	fd010113          	add	sp,sp,-48
     630:	02112623          	sw	ra,44(sp)
     634:	02812423          	sw	s0,40(sp)
     638:	03010413          	add	s0,sp,48
     63c:	fca42e23          	sw	a0,-36(s0)
     640:	fcb42c23          	sw	a1,-40(s0)
     644:	fcc42a23          	sw	a2,-44(s0)
    altera_avalon_jtag_uart_dev* dev = (altera_avalon_jtag_uart_dev*) fd->dev; 
     648:	fdc42783          	lw	a5,-36(s0)
     64c:	0007a783          	lw	a5,0(a5)
     650:	fef42623          	sw	a5,-20(s0)

    return altera_avalon_jtag_uart_read(&dev->state, buffer, space,
     654:	fec42783          	lw	a5,-20(s0)
     658:	02878713          	add	a4,a5,40
     65c:	fdc42783          	lw	a5,-36(s0)
     660:	0087a783          	lw	a5,8(a5)
     664:	00078693          	mv	a3,a5
     668:	fd442603          	lw	a2,-44(s0)
     66c:	fd842583          	lw	a1,-40(s0)
     670:	00070513          	mv	a0,a4
     674:	64c000ef          	jal	cc0 <altera_avalon_jtag_uart_read>
     678:	00050793          	mv	a5,a0
      fd->fd_flags);
}
     67c:	00078513          	mv	a0,a5
     680:	02c12083          	lw	ra,44(sp)
     684:	02812403          	lw	s0,40(sp)
     688:	03010113          	add	sp,sp,48
     68c:	00008067          	ret

00000690 <altera_avalon_jtag_uart_write_fd>:

int 
altera_avalon_jtag_uart_write_fd(alt_fd* fd, const char* buffer, int space)
{
     690:	fd010113          	add	sp,sp,-48
     694:	02112623          	sw	ra,44(sp)
     698:	02812423          	sw	s0,40(sp)
     69c:	03010413          	add	s0,sp,48
     6a0:	fca42e23          	sw	a0,-36(s0)
     6a4:	fcb42c23          	sw	a1,-40(s0)
     6a8:	fcc42a23          	sw	a2,-44(s0)
    altera_avalon_jtag_uart_dev* dev = (altera_avalon_jtag_uart_dev*) fd->dev; 
     6ac:	fdc42783          	lw	a5,-36(s0)
     6b0:	0007a783          	lw	a5,0(a5)
     6b4:	fef42623          	sw	a5,-20(s0)

    return altera_avalon_jtag_uart_write(&dev->state, buffer, space,
     6b8:	fec42783          	lw	a5,-20(s0)
     6bc:	02878713          	add	a4,a5,40
     6c0:	fdc42783          	lw	a5,-36(s0)
     6c4:	0087a783          	lw	a5,8(a5)
     6c8:	00078693          	mv	a3,a5
     6cc:	fd442603          	lw	a2,-44(s0)
     6d0:	fd842583          	lw	a1,-40(s0)
     6d4:	00070513          	mv	a0,a4
     6d8:	015000ef          	jal	eec <altera_avalon_jtag_uart_write>
     6dc:	00050793          	mv	a5,a0
      fd->fd_flags);
}
     6e0:	00078513          	mv	a0,a5
     6e4:	02c12083          	lw	ra,44(sp)
     6e8:	02812403          	lw	s0,40(sp)
     6ec:	03010113          	add	sp,sp,48
     6f0:	00008067          	ret

000006f4 <altera_avalon_jtag_uart_close_fd>:

#ifndef ALTERA_AVALON_JTAG_UART_SMALL

int 
altera_avalon_jtag_uart_close_fd(alt_fd* fd)
{
     6f4:	fd010113          	add	sp,sp,-48
     6f8:	02112623          	sw	ra,44(sp)
     6fc:	02812423          	sw	s0,40(sp)
     700:	03010413          	add	s0,sp,48
     704:	fca42e23          	sw	a0,-36(s0)
    altera_avalon_jtag_uart_dev* dev = (altera_avalon_jtag_uart_dev*) fd->dev; 
     708:	fdc42783          	lw	a5,-36(s0)
     70c:	0007a783          	lw	a5,0(a5)
     710:	fef42623          	sw	a5,-20(s0)

    return altera_avalon_jtag_uart_close(&dev->state, fd->fd_flags);
     714:	fec42783          	lw	a5,-20(s0)
     718:	02878713          	add	a4,a5,40
     71c:	fdc42783          	lw	a5,-36(s0)
     720:	0087a783          	lw	a5,8(a5)
     724:	00078593          	mv	a1,a5
     728:	00070513          	mv	a0,a4
     72c:	428000ef          	jal	b54 <altera_avalon_jtag_uart_close>
     730:	00050793          	mv	a5,a0
}
     734:	00078513          	mv	a0,a5
     738:	02c12083          	lw	ra,44(sp)
     73c:	02812403          	lw	s0,40(sp)
     740:	03010113          	add	sp,sp,48
     744:	00008067          	ret

00000748 <altera_avalon_jtag_uart_ioctl_fd>:

int 
altera_avalon_jtag_uart_ioctl_fd(alt_fd* fd, int req, void* arg)
{
     748:	fd010113          	add	sp,sp,-48
     74c:	02112623          	sw	ra,44(sp)
     750:	02812423          	sw	s0,40(sp)
     754:	03010413          	add	s0,sp,48
     758:	fca42e23          	sw	a0,-36(s0)
     75c:	fcb42c23          	sw	a1,-40(s0)
     760:	fcc42a23          	sw	a2,-44(s0)
    altera_avalon_jtag_uart_dev* dev = (altera_avalon_jtag_uart_dev*) fd->dev;
     764:	fdc42783          	lw	a5,-36(s0)
     768:	0007a783          	lw	a5,0(a5)
     76c:	fef42623          	sw	a5,-20(s0)

    return altera_avalon_jtag_uart_ioctl(&dev->state, req, arg);
     770:	fec42783          	lw	a5,-20(s0)
     774:	02878793          	add	a5,a5,40
     778:	fd442603          	lw	a2,-44(s0)
     77c:	fd842583          	lw	a1,-40(s0)
     780:	00078513          	mv	a0,a5
     784:	43c000ef          	jal	bc0 <altera_avalon_jtag_uart_ioctl>
     788:	00050793          	mv	a5,a0
}
     78c:	00078513          	mv	a0,a5
     790:	02c12083          	lw	ra,44(sp)
     794:	02812403          	lw	s0,40(sp)
     798:	03010113          	add	sp,sp,48
     79c:	00008067          	ret

000007a0 <altera_avalon_jtag_uart_init>:
 * Return 1 on sucessful IRQ register and 0 on failure.
 */

void altera_avalon_jtag_uart_init(altera_avalon_jtag_uart_state* sp, 
                                  int irq_controller_id, int irq)
{
     7a0:	fd010113          	add	sp,sp,-48
     7a4:	02112623          	sw	ra,44(sp)
     7a8:	02812423          	sw	s0,40(sp)
     7ac:	03010413          	add	s0,sp,48
     7b0:	fca42e23          	sw	a0,-36(s0)
     7b4:	fcb42c23          	sw	a1,-40(s0)
     7b8:	fcc42a23          	sw	a2,-44(s0)
  ALT_FLAG_CREATE(&sp->events, 0);
  ALT_SEM_CREATE(&sp->read_lock, 1);
  ALT_SEM_CREATE(&sp->write_lock, 1);

  /* enable read interrupts at the device */
  sp->irq_enable = ALTERA_AVALON_JTAG_UART_CONTROL_RE_MSK;
     7bc:	fdc42783          	lw	a5,-36(s0)
     7c0:	00100713          	li	a4,1
     7c4:	02e7a023          	sw	a4,32(a5)

  IOWR_ALTERA_AVALON_JTAG_UART_CONTROL(sp->base, sp->irq_enable); 
     7c8:	fdc42783          	lw	a5,-36(s0)
     7cc:	0207a783          	lw	a5,32(a5)
     7d0:	fef42623          	sw	a5,-20(s0)
     7d4:	fdc42783          	lw	a5,-36(s0)
     7d8:	0007a783          	lw	a5,0(a5)
     7dc:	00478793          	add	a5,a5,4
     7e0:	00078713          	mv	a4,a5
     7e4:	fec42783          	lw	a5,-20(s0)
     7e8:	00f72023          	sw	a5,0(a4)
  
  /* register the interrupt handler */
#ifdef ALT_ENHANCED_INTERRUPT_API_PRESENT
  alt_ic_isr_register(irq_controller_id, irq, altera_avalon_jtag_uart_irq, 
     7ec:	fd842503          	lw	a0,-40(s0)
     7f0:	fd442583          	lw	a1,-44(s0)
     7f4:	00000713          	li	a4,0
     7f8:	fdc42683          	lw	a3,-36(s0)
     7fc:	000017b7          	lui	a5,0x1
     800:	86078613          	add	a2,a5,-1952 # 860 <altera_avalon_jtag_uart_irq>
     804:	509000ef          	jal	150c <alt_ic_isr_register>
#else
  alt_irq_register(irq, sp, altera_avalon_jtag_uart_irq);
#endif  

  /* Register an alarm to go off every second to check for presence of host */
  sp->host_inactive = 0;
     808:	fdc42783          	lw	a5,-36(s0)
     80c:	0207a223          	sw	zero,36(a5)

  if (alt_alarm_start(&sp->alarm, alt_ticks_per_second(), 
     810:	fdc42783          	lw	a5,-36(s0)
     814:	00878713          	add	a4,a5,8
  return _alt_tick_rate;
     818:	000187b7          	lui	a5,0x18
     81c:	a087a583          	lw	a1,-1528(a5) # 17a08 <_alt_tick_rate>
     820:	fdc42683          	lw	a3,-36(s0)
     824:	000017b7          	lui	a5,0x1
     828:	a9878613          	add	a2,a5,-1384 # a98 <altera_avalon_jtag_uart_timeout>
     82c:	00070513          	mv	a0,a4
     830:	0f9000ef          	jal	1128 <alt_alarm_start>
     834:	00050793          	mv	a5,a0
     838:	0007da63          	bgez	a5,84c <altera_avalon_jtag_uart_init+0xac>
    &altera_avalon_jtag_uart_timeout, sp) < 0)
  {
    /* If we can't set the alarm then record "don't know if host present" 
     * and behave as though the host is present.
     */
    sp->timeout = INT_MAX;
     83c:	fdc42783          	lw	a5,-36(s0)
     840:	80000737          	lui	a4,0x80000
     844:	fff70713          	add	a4,a4,-1 # 7fffffff <__alt_data_end+0x7ffdffff>
     848:	00e7a223          	sw	a4,4(a5)
  }

  /* ALT_LOG - see altera_hal/HAL/inc/sys/alt_log_printf.h */ 
  ALT_LOG_JTAG_UART_ALARM_REGISTER(sp, sp->base);
}
     84c:	00000013          	nop
     850:	02c12083          	lw	ra,44(sp)
     854:	02812403          	lw	s0,40(sp)
     858:	03010113          	add	sp,sp,48
     85c:	00008067          	ret

00000860 <altera_avalon_jtag_uart_irq>:
#ifdef ALT_ENHANCED_INTERRUPT_API_PRESENT
static void altera_avalon_jtag_uart_irq(void* context)
#else
static void altera_avalon_jtag_uart_irq(void* context, alt_u32 id)
#endif
{
     860:	fa010113          	add	sp,sp,-96
     864:	04812e23          	sw	s0,92(sp)
     868:	06010413          	add	s0,sp,96
     86c:	faa42623          	sw	a0,-84(s0)
  altera_avalon_jtag_uart_state* sp = (altera_avalon_jtag_uart_state*) context;
     870:	fac42783          	lw	a5,-84(s0)
     874:	fcf42223          	sw	a5,-60(s0)
  unsigned int base = sp->base;
     878:	fc442783          	lw	a5,-60(s0)
     87c:	0007a783          	lw	a5,0(a5)
     880:	fcf42423          	sw	a5,-56(s0)
  unsigned int postflag=0;
     884:	fa042c23          	sw	zero,-72(s0)
  /* ALT_LOG - see altera_hal/HAL/inc/sys/alt_log_printf.h */ 
  ALT_LOG_JTAG_UART_ISR_FUNCTION(base, sp);

  for ( ; ; )
  {
    unsigned int control = IORD_ALTERA_AVALON_JTAG_UART_CONTROL(base);
     888:	fc842783          	lw	a5,-56(s0)
     88c:	00478793          	add	a5,a5,4
     890:	0007a783          	lw	a5,0(a5)
     894:	fcf42623          	sw	a5,-52(s0)
     898:	fcc42783          	lw	a5,-52(s0)
     89c:	fcf42823          	sw	a5,-48(s0)

    /* Return once nothing more to do */
    if ((control & (ALTERA_AVALON_JTAG_UART_CONTROL_RI_MSK | ALTERA_AVALON_JTAG_UART_CONTROL_WI_MSK)) == 0)
     8a0:	fd042783          	lw	a5,-48(s0)
     8a4:	3007f793          	and	a5,a5,768
     8a8:	1c078e63          	beqz	a5,a84 <altera_avalon_jtag_uart_irq+0x224>
      break;

    if (control & ALTERA_AVALON_JTAG_UART_CONTROL_RI_MSK)
     8ac:	fd042783          	lw	a5,-48(s0)
     8b0:	1007f793          	and	a5,a5,256
     8b4:	0e078663          	beqz	a5,9a0 <altera_avalon_jtag_uart_irq+0x140>
    {
      /* process a read irq.  Start by assuming that there is data in the
       * receive FIFO (otherwise why would we have been interrupted?)
       */
      unsigned int data = 1 << ALTERA_AVALON_JTAG_UART_DATA_RAVAIL_OFST;
     8b8:	000107b7          	lui	a5,0x10
     8bc:	faf42e23          	sw	a5,-68(s0)
      for ( ; ; )
      {
        /* Check whether there is space in the buffer.  If not then we must not
         * read any characters from the buffer as they will be lost.
         */
        unsigned int next = (sp->rx_in + 1) % ALTERA_AVALON_JTAG_UART_BUF_LEN;
     8c0:	fc442783          	lw	a5,-60(s0)
     8c4:	0287a783          	lw	a5,40(a5) # 10028 <__multf3+0xf0>
     8c8:	00178793          	add	a5,a5,1
     8cc:	7ff7f793          	and	a5,a5,2047
     8d0:	fcf42a23          	sw	a5,-44(s0)
        if (next == sp->rx_out)
     8d4:	fc442783          	lw	a5,-60(s0)
     8d8:	02c7a783          	lw	a5,44(a5)
     8dc:	fd442703          	lw	a4,-44(s0)
     8e0:	06f70263          	beq	a4,a5,944 <altera_avalon_jtag_uart_irq+0xe4>
          break;

        /* Try to remove a character from the FIFO and find out whether there
         * are any more characters remaining.
         */
        data = IORD_ALTERA_AVALON_JTAG_UART_DATA(base);
     8e4:	fc842783          	lw	a5,-56(s0)
     8e8:	0007a783          	lw	a5,0(a5)
     8ec:	fcf42c23          	sw	a5,-40(s0)
     8f0:	fd842783          	lw	a5,-40(s0)
     8f4:	faf42e23          	sw	a5,-68(s0)
        
        if ((data & ALTERA_AVALON_JTAG_UART_DATA_RVALID_MSK) == 0)
     8f8:	fbc42703          	lw	a4,-68(s0)
     8fc:	000087b7          	lui	a5,0x8
     900:	00f777b3          	and	a5,a4,a5
     904:	04078463          	beqz	a5,94c <altera_avalon_jtag_uart_irq+0xec>
          break;

        sp->rx_buf[sp->rx_in] = (data & ALTERA_AVALON_JTAG_UART_DATA_DATA_MSK) >> ALTERA_AVALON_JTAG_UART_DATA_DATA_OFST;
     908:	fc442783          	lw	a5,-60(s0)
     90c:	0287a783          	lw	a5,40(a5) # 8028 <_ldcheck+0x4c>
     910:	fbc42703          	lw	a4,-68(s0)
     914:	0ff77713          	zext.b	a4,a4
     918:	fc442683          	lw	a3,-60(s0)
     91c:	00f687b3          	add	a5,a3,a5
     920:	02e78c23          	sb	a4,56(a5)
        sp->rx_in = (sp->rx_in + 1) % ALTERA_AVALON_JTAG_UART_BUF_LEN;
     924:	fc442783          	lw	a5,-60(s0)
     928:	0287a783          	lw	a5,40(a5)
     92c:	00178793          	add	a5,a5,1
     930:	7ff7f713          	and	a4,a5,2047
     934:	fc442783          	lw	a5,-60(s0)
     938:	02e7a423          	sw	a4,40(a5)
 * HAL.
 */

static ALT_INLINE int ALT_ALWAYS_INLINE alt_no_error (void)
{
  return 0;
     93c:	00000013          	nop
      {
     940:	f81ff06f          	j	8c0 <altera_avalon_jtag_uart_irq+0x60>
          break;
     944:	00000013          	nop
     948:	0080006f          	j	950 <altera_avalon_jtag_uart_irq+0xf0>
          break;
     94c:	00000013          	nop

        /* Post an event to notify jtag_uart_read that a character has been read */
        ALT_FLAG_POST (sp->events, ALT_JTAG_UART_READ_RDY, ALT_FLAG_SET);
      }

      if (data & ALTERA_AVALON_JTAG_UART_DATA_RAVAIL_MSK)
     950:	fbc42703          	lw	a4,-68(s0)
     954:	000107b7          	lui	a5,0x10
     958:	04f76463          	bltu	a4,a5,9a0 <altera_avalon_jtag_uart_irq+0x140>
      {
        /* If there is still data available here then the buffer is full 
         * so turn off receive interrupts until some space becomes available.
         */
        sp->irq_enable &= ~ALTERA_AVALON_JTAG_UART_CONTROL_RE_MSK;
     95c:	fc442783          	lw	a5,-60(s0)
     960:	0207a783          	lw	a5,32(a5) # 10020 <__multf3+0xe8>
     964:	ffe7f713          	and	a4,a5,-2
     968:	fc442783          	lw	a5,-60(s0)
     96c:	02e7a023          	sw	a4,32(a5)
        IOWR_ALTERA_AVALON_JTAG_UART_CONTROL(base, sp->irq_enable);
     970:	fc442783          	lw	a5,-60(s0)
     974:	0207a783          	lw	a5,32(a5)
     978:	fcf42e23          	sw	a5,-36(s0)
     97c:	fc842783          	lw	a5,-56(s0)
     980:	00478793          	add	a5,a5,4
     984:	00078713          	mv	a4,a5
     988:	fdc42783          	lw	a5,-36(s0)
     98c:	00f72023          	sw	a5,0(a4)
        
        /* Dummy read to ensure IRQ is cleared prior to ISR completion */
        IORD_ALTERA_AVALON_JTAG_UART_CONTROL(base);
     990:	fc842783          	lw	a5,-56(s0)
     994:	00478793          	add	a5,a5,4
     998:	0007a783          	lw	a5,0(a5)
     99c:	fef42023          	sw	a5,-32(s0)
      }
    }

    if (control & ALTERA_AVALON_JTAG_UART_CONTROL_WI_MSK)
     9a0:	fd042783          	lw	a5,-48(s0)
     9a4:	2007f793          	and	a5,a5,512
     9a8:	ee0780e3          	beqz	a5,888 <altera_avalon_jtag_uart_irq+0x28>
    {
      /* process a write irq */
      unsigned int space = (control & ALTERA_AVALON_JTAG_UART_CONTROL_WSPACE_MSK) >> ALTERA_AVALON_JTAG_UART_CONTROL_WSPACE_OFST;
     9ac:	fd042783          	lw	a5,-48(s0)
     9b0:	0107d793          	srl	a5,a5,0x10
     9b4:	fcf42023          	sw	a5,-64(s0)

      while (space > 0 && sp->tx_out != sp->tx_in)
     9b8:	05c0006f          	j	a14 <altera_avalon_jtag_uart_irq+0x1b4>
      {
        IOWR_ALTERA_AVALON_JTAG_UART_DATA(base, sp->tx_buf[sp->tx_out]);
     9bc:	fc442783          	lw	a5,-60(s0)
     9c0:	0347a783          	lw	a5,52(a5)
     9c4:	fc442703          	lw	a4,-60(s0)
     9c8:	00f707b3          	add	a5,a4,a5
     9cc:	00001737          	lui	a4,0x1
     9d0:	00f707b3          	add	a5,a4,a5
     9d4:	8387c783          	lbu	a5,-1992(a5)
     9d8:	fef42223          	sw	a5,-28(s0)
     9dc:	fc842783          	lw	a5,-56(s0)
     9e0:	fe442703          	lw	a4,-28(s0)
     9e4:	00e7a023          	sw	a4,0(a5)

        sp->tx_out = (sp->tx_out + 1) % ALTERA_AVALON_JTAG_UART_BUF_LEN;
     9e8:	fc442783          	lw	a5,-60(s0)
     9ec:	0347a783          	lw	a5,52(a5)
     9f0:	00178793          	add	a5,a5,1
     9f4:	7ff7f713          	and	a4,a5,2047
     9f8:	fc442783          	lw	a5,-60(s0)
     9fc:	02e7aa23          	sw	a4,52(a5)
        
        /* indicate that the ALT_FLAG_POST routine must be called */
        postflag=1;
     a00:	00100793          	li	a5,1
     a04:	faf42c23          	sw	a5,-72(s0)

        space--;
     a08:	fc042783          	lw	a5,-64(s0)
     a0c:	fff78793          	add	a5,a5,-1
     a10:	fcf42023          	sw	a5,-64(s0)
      while (space > 0 && sp->tx_out != sp->tx_in)
     a14:	fc042783          	lw	a5,-64(s0)
     a18:	00078c63          	beqz	a5,a30 <altera_avalon_jtag_uart_irq+0x1d0>
     a1c:	fc442783          	lw	a5,-60(s0)
     a20:	0347a703          	lw	a4,52(a5)
     a24:	fc442783          	lw	a5,-60(s0)
     a28:	0307a783          	lw	a5,48(a5)
     a2c:	f8f718e3          	bne	a4,a5,9bc <altera_avalon_jtag_uart_irq+0x15c>
      {
        /* Post an event to notify jtag_uart_write that a character has been written */
        ALT_FLAG_POST (sp->events, ALT_JTAG_UART_WRITE_RDY, ALT_FLAG_SET);
      }

      if (space > 0)
     a30:	fc042783          	lw	a5,-64(s0)
     a34:	e4078ae3          	beqz	a5,888 <altera_avalon_jtag_uart_irq+0x28>
      {
        /* If we don't have any more data available then turn off the TX interrupt */
        sp->irq_enable &= ~ALTERA_AVALON_JTAG_UART_CONTROL_WE_MSK;
     a38:	fc442783          	lw	a5,-60(s0)
     a3c:	0207a783          	lw	a5,32(a5)
     a40:	ffd7f713          	and	a4,a5,-3
     a44:	fc442783          	lw	a5,-60(s0)
     a48:	02e7a023          	sw	a4,32(a5)
        IOWR_ALTERA_AVALON_JTAG_UART_CONTROL(sp->base, sp->irq_enable);
     a4c:	fc442783          	lw	a5,-60(s0)
     a50:	0207a783          	lw	a5,32(a5)
     a54:	fef42423          	sw	a5,-24(s0)
     a58:	fc442783          	lw	a5,-60(s0)
     a5c:	0007a783          	lw	a5,0(a5)
     a60:	00478793          	add	a5,a5,4
     a64:	00078713          	mv	a4,a5
     a68:	fe842783          	lw	a5,-24(s0)
     a6c:	00f72023          	sw	a5,0(a4) # 1000 <altera_avalon_jtag_uart_write+0x114>
        
        /* Dummy read to ensure IRQ is cleared prior to ISR completion */
        IORD_ALTERA_AVALON_JTAG_UART_CONTROL(base);
     a70:	fc842783          	lw	a5,-56(s0)
     a74:	00478793          	add	a5,a5,4
     a78:	0007a783          	lw	a5,0(a5)
     a7c:	fef42623          	sw	a5,-20(s0)
  {
     a80:	e09ff06f          	j	888 <altera_avalon_jtag_uart_irq+0x28>
      break;
     a84:	00000013          	nop
      }
    }
  }
}
     a88:	00000013          	nop
     a8c:	05c12403          	lw	s0,92(sp)
     a90:	06010113          	add	sp,sp,96
     a94:	00008067          	ret

00000a98 <altera_avalon_jtag_uart_timeout>:
 * Timeout routine is called every second
 */

static alt_u32 
altera_avalon_jtag_uart_timeout(void* context) 
{
     a98:	fd010113          	add	sp,sp,-48
     a9c:	02812623          	sw	s0,44(sp)
     aa0:	03010413          	add	s0,sp,48
     aa4:	fca42e23          	sw	a0,-36(s0)
  altera_avalon_jtag_uart_state* sp = (altera_avalon_jtag_uart_state *) context;
     aa8:	fdc42783          	lw	a5,-36(s0)
     aac:	fef42023          	sw	a5,-32(s0)

  unsigned int control = IORD_ALTERA_AVALON_JTAG_UART_CONTROL(sp->base);
     ab0:	fe042783          	lw	a5,-32(s0)
     ab4:	0007a783          	lw	a5,0(a5)
     ab8:	00478793          	add	a5,a5,4
     abc:	0007a783          	lw	a5,0(a5)
     ac0:	fef42223          	sw	a5,-28(s0)
     ac4:	fe442783          	lw	a5,-28(s0)
     ac8:	fef42423          	sw	a5,-24(s0)

  if (control & ALTERA_AVALON_JTAG_UART_CONTROL_AC_MSK)
     acc:	fe842783          	lw	a5,-24(s0)
     ad0:	4007f793          	and	a5,a5,1024
     ad4:	02078c63          	beqz	a5,b0c <altera_avalon_jtag_uart_timeout+0x74>
  {
    IOWR_ALTERA_AVALON_JTAG_UART_CONTROL(sp->base, sp->irq_enable | ALTERA_AVALON_JTAG_UART_CONTROL_AC_MSK);
     ad8:	fe042783          	lw	a5,-32(s0)
     adc:	0207a783          	lw	a5,32(a5)
     ae0:	4007e793          	or	a5,a5,1024
     ae4:	fef42623          	sw	a5,-20(s0)
     ae8:	fe042783          	lw	a5,-32(s0)
     aec:	0007a783          	lw	a5,0(a5)
     af0:	00478793          	add	a5,a5,4
     af4:	00078713          	mv	a4,a5
     af8:	fec42783          	lw	a5,-20(s0)
     afc:	00f72023          	sw	a5,0(a4)
    sp->host_inactive = 0;
     b00:	fe042783          	lw	a5,-32(s0)
     b04:	0207a223          	sw	zero,36(a5)
     b08:	0340006f          	j	b3c <altera_avalon_jtag_uart_timeout+0xa4>
  }
  else if (sp->host_inactive < INT_MAX - 2) {
     b0c:	fe042783          	lw	a5,-32(s0)
     b10:	0247a703          	lw	a4,36(a5)
     b14:	800007b7          	lui	a5,0x80000
     b18:	ffc78793          	add	a5,a5,-4 # 7ffffffc <__alt_data_end+0x7ffdfffc>
     b1c:	02e7e063          	bltu	a5,a4,b3c <altera_avalon_jtag_uart_timeout+0xa4>
    sp->host_inactive++;
     b20:	fe042783          	lw	a5,-32(s0)
     b24:	0247a783          	lw	a5,36(a5)
     b28:	00178713          	add	a4,a5,1
     b2c:	fe042783          	lw	a5,-32(s0)
     b30:	02e7a223          	sw	a4,36(a5)
    
    if (sp->host_inactive >= sp->timeout) {
     b34:	fe042783          	lw	a5,-32(s0)
     b38:	0247a783          	lw	a5,36(a5)
     b3c:	000187b7          	lui	a5,0x18
     b40:	a087a783          	lw	a5,-1528(a5) # 17a08 <_alt_tick_rate>
      ALT_FLAG_POST (sp->events, ALT_JTAG_UART_TIMEOUT, ALT_FLAG_SET);
    }
  }

  return alt_ticks_per_second();
}
     b44:	00078513          	mv	a0,a5
     b48:	02c12403          	lw	s0,44(sp)
     b4c:	03010113          	add	sp,sp,48
     b50:	00008067          	ret

00000b54 <altera_avalon_jtag_uart_close>:
 * The close routine is not implemented for the small driver; instead it will
 * map to null. This is because the small driver simply waits while characters
 * are transmitted; there is no interrupt-serviced buffer to empty 
 */
int altera_avalon_jtag_uart_close(altera_avalon_jtag_uart_state* sp, int flags)
{
     b54:	fe010113          	add	sp,sp,-32
     b58:	00812e23          	sw	s0,28(sp)
     b5c:	02010413          	add	s0,sp,32
     b60:	fea42623          	sw	a0,-20(s0)
     b64:	feb42423          	sw	a1,-24(s0)
  /* 
   * Wait for all transmit data to be emptied by the JTAG UART ISR, or
   * for a host-inactivity timeout, in which case transmit data will be lost
   */
  while ( (sp->tx_out != sp->tx_in) && (sp->host_inactive < sp->timeout) ) {
     b68:	01c0006f          	j	b84 <altera_avalon_jtag_uart_close+0x30>
    if (flags & O_NONBLOCK) {
     b6c:	fe842703          	lw	a4,-24(s0)
     b70:	000047b7          	lui	a5,0x4
     b74:	00f777b3          	and	a5,a4,a5
     b78:	00078663          	beqz	a5,b84 <altera_avalon_jtag_uart_close+0x30>
      return -EWOULDBLOCK; 
     b7c:	ff500793          	li	a5,-11
     b80:	0300006f          	j	bb0 <altera_avalon_jtag_uart_close+0x5c>
  while ( (sp->tx_out != sp->tx_in) && (sp->host_inactive < sp->timeout) ) {
     b84:	fec42783          	lw	a5,-20(s0)
     b88:	0347a703          	lw	a4,52(a5) # 4034 <_vfprintf_r+0x308>
     b8c:	fec42783          	lw	a5,-20(s0)
     b90:	0307a783          	lw	a5,48(a5)
     b94:	00f70c63          	beq	a4,a5,bac <altera_avalon_jtag_uart_close+0x58>
     b98:	fec42783          	lw	a5,-20(s0)
     b9c:	0247a703          	lw	a4,36(a5)
     ba0:	fec42783          	lw	a5,-20(s0)
     ba4:	0047a783          	lw	a5,4(a5)
     ba8:	fcf762e3          	bltu	a4,a5,b6c <altera_avalon_jtag_uart_close+0x18>
    }
  }

  return 0;
     bac:	00000793          	li	a5,0
}
     bb0:	00078513          	mv	a0,a5
     bb4:	01c12403          	lw	s0,28(sp)
     bb8:	02010113          	add	sp,sp,32
     bbc:	00008067          	ret

00000bc0 <altera_avalon_jtag_uart_ioctl>:
/* ----------------------------------------------------------- */

int 
altera_avalon_jtag_uart_ioctl(altera_avalon_jtag_uart_state* sp, int req,
  void* arg)
{
     bc0:	fd010113          	add	sp,sp,-48
     bc4:	02812623          	sw	s0,44(sp)
     bc8:	03010413          	add	s0,sp,48
     bcc:	fca42e23          	sw	a0,-36(s0)
     bd0:	fcb42c23          	sw	a1,-40(s0)
     bd4:	fcc42a23          	sw	a2,-44(s0)
  int rc = -ENOTTY;
     bd8:	fe700793          	li	a5,-25
     bdc:	fef42423          	sw	a5,-24(s0)

  switch (req)
     be0:	fd842703          	lw	a4,-40(s0)
     be4:	000077b7          	lui	a5,0x7
     be8:	a0178793          	add	a5,a5,-1535 # 6a01 <__sflush_r+0x3d>
     bec:	00f70c63          	beq	a4,a5,c04 <altera_avalon_jtag_uart_ioctl+0x44>
     bf0:	fd842703          	lw	a4,-40(s0)
     bf4:	000077b7          	lui	a5,0x7
     bf8:	a0278793          	add	a5,a5,-1534 # 6a02 <__sflush_r+0x3e>
     bfc:	06f70263          	beq	a4,a5,c60 <altera_avalon_jtag_uart_ioctl+0xa0>
      rc = 0;
    }
    break;

  default:
    break;
     c00:	0ac0006f          	j	cac <altera_avalon_jtag_uart_ioctl+0xec>
    if (sp->timeout != INT_MAX)
     c04:	fdc42783          	lw	a5,-36(s0)
     c08:	0047a703          	lw	a4,4(a5)
     c0c:	800007b7          	lui	a5,0x80000
     c10:	fff78793          	add	a5,a5,-1 # 7fffffff <__alt_data_end+0x7ffdffff>
     c14:	08f70663          	beq	a4,a5,ca0 <altera_avalon_jtag_uart_ioctl+0xe0>
      int timeout = *((int *)arg);
     c18:	fd442783          	lw	a5,-44(s0)
     c1c:	0007a783          	lw	a5,0(a5)
     c20:	fef42623          	sw	a5,-20(s0)
      sp->timeout = (timeout >= 2 && timeout < INT_MAX) ? timeout : INT_MAX - 1;
     c24:	fec42703          	lw	a4,-20(s0)
     c28:	00100793          	li	a5,1
     c2c:	00e7de63          	bge	a5,a4,c48 <altera_avalon_jtag_uart_ioctl+0x88>
     c30:	fec42703          	lw	a4,-20(s0)
     c34:	800007b7          	lui	a5,0x80000
     c38:	fff78793          	add	a5,a5,-1 # 7fffffff <__alt_data_end+0x7ffdffff>
     c3c:	00f70663          	beq	a4,a5,c48 <altera_avalon_jtag_uart_ioctl+0x88>
     c40:	fec42783          	lw	a5,-20(s0)
     c44:	00c0006f          	j	c50 <altera_avalon_jtag_uart_ioctl+0x90>
     c48:	800007b7          	lui	a5,0x80000
     c4c:	ffe78793          	add	a5,a5,-2 # 7ffffffe <__alt_data_end+0x7ffdfffe>
     c50:	fdc42703          	lw	a4,-36(s0)
     c54:	00f72223          	sw	a5,4(a4)
      rc = 0;
     c58:	fe042423          	sw	zero,-24(s0)
    break;
     c5c:	0440006f          	j	ca0 <altera_avalon_jtag_uart_ioctl+0xe0>
    if (sp->timeout != INT_MAX)
     c60:	fdc42783          	lw	a5,-36(s0)
     c64:	0047a703          	lw	a4,4(a5)
     c68:	800007b7          	lui	a5,0x80000
     c6c:	fff78793          	add	a5,a5,-1 # 7fffffff <__alt_data_end+0x7ffdffff>
     c70:	02f70c63          	beq	a4,a5,ca8 <altera_avalon_jtag_uart_ioctl+0xe8>
      *((int *)arg) = (sp->host_inactive < sp->timeout) ? 1 : 0;
     c74:	fdc42783          	lw	a5,-36(s0)
     c78:	0247a703          	lw	a4,36(a5)
     c7c:	fdc42783          	lw	a5,-36(s0)
     c80:	0047a783          	lw	a5,4(a5)
     c84:	00f737b3          	sltu	a5,a4,a5
     c88:	0ff7f793          	zext.b	a5,a5
     c8c:	00078713          	mv	a4,a5
     c90:	fd442783          	lw	a5,-44(s0)
     c94:	00e7a023          	sw	a4,0(a5)
      rc = 0;
     c98:	fe042423          	sw	zero,-24(s0)
    break;
     c9c:	00c0006f          	j	ca8 <altera_avalon_jtag_uart_ioctl+0xe8>
    break;
     ca0:	00000013          	nop
     ca4:	0080006f          	j	cac <altera_avalon_jtag_uart_ioctl+0xec>
    break;
     ca8:	00000013          	nop
  }

  return rc;
     cac:	fe842783          	lw	a5,-24(s0)
}
     cb0:	00078513          	mv	a0,a5
     cb4:	02c12403          	lw	s0,44(sp)
     cb8:	03010113          	add	sp,sp,48
     cbc:	00008067          	ret

00000cc0 <altera_avalon_jtag_uart_read>:
/* ----------------------------------------------------------- */

int 
altera_avalon_jtag_uart_read(altera_avalon_jtag_uart_state* sp, 
  char * buffer, int space, int flags)
{
     cc0:	fc010113          	add	sp,sp,-64
     cc4:	02112e23          	sw	ra,60(sp)
     cc8:	02812c23          	sw	s0,56(sp)
     ccc:	04010413          	add	s0,sp,64
     cd0:	fca42623          	sw	a0,-52(s0)
     cd4:	fcb42423          	sw	a1,-56(s0)
     cd8:	fcc42223          	sw	a2,-60(s0)
     cdc:	fcd42023          	sw	a3,-64(s0)
  char * ptr = buffer;
     ce0:	fc842783          	lw	a5,-56(s0)
     ce4:	fcf42823          	sw	a5,-48(s0)
   * When running in a multi threaded environment, obtain the "read_lock"
   * semaphore. This ensures that reading from the device is thread-safe.
   */
  ALT_SEM_PEND (sp->read_lock, 0);

  while (space > 0)
     ce8:	1280006f          	j	e10 <altera_avalon_jtag_uart_read+0x150>
    unsigned int in, out;

    /* Read as much data as possible */
    do
    {
      in  = sp->rx_in;
     cec:	fcc42783          	lw	a5,-52(s0)
     cf0:	0287a783          	lw	a5,40(a5)
     cf4:	fcf42c23          	sw	a5,-40(s0)
      out = sp->rx_out;
     cf8:	fcc42783          	lw	a5,-52(s0)
     cfc:	02c7a783          	lw	a5,44(a5)
     d00:	fcf42e23          	sw	a5,-36(s0)

      if (in >= out)
     d04:	fd842703          	lw	a4,-40(s0)
     d08:	fdc42783          	lw	a5,-36(s0)
     d0c:	00f76c63          	bltu	a4,a5,d24 <altera_avalon_jtag_uart_read+0x64>
        n = in - out;
     d10:	fd842703          	lw	a4,-40(s0)
     d14:	fdc42783          	lw	a5,-36(s0)
     d18:	40f707b3          	sub	a5,a4,a5
     d1c:	fcf42a23          	sw	a5,-44(s0)
     d20:	0180006f          	j	d38 <altera_avalon_jtag_uart_read+0x78>
      else
        n = ALTERA_AVALON_JTAG_UART_BUF_LEN - out;
     d24:	000017b7          	lui	a5,0x1
     d28:	80078713          	add	a4,a5,-2048 # 800 <altera_avalon_jtag_uart_init+0x60>
     d2c:	fdc42783          	lw	a5,-36(s0)
     d30:	40f707b3          	sub	a5,a4,a5
     d34:	fcf42a23          	sw	a5,-44(s0)

      if (n == 0)
     d38:	fd442783          	lw	a5,-44(s0)
     d3c:	06078e63          	beqz	a5,db8 <altera_avalon_jtag_uart_read+0xf8>
        break; /* No more data available */

      if (n > space)
     d40:	fc442783          	lw	a5,-60(s0)
     d44:	fd442703          	lw	a4,-44(s0)
     d48:	00e7f663          	bgeu	a5,a4,d54 <altera_avalon_jtag_uart_read+0x94>
        n = space;
     d4c:	fc442783          	lw	a5,-60(s0)
     d50:	fcf42a23          	sw	a5,-44(s0)

      memcpy(ptr, sp->rx_buf + out, n);
     d54:	fcc42783          	lw	a5,-52(s0)
     d58:	03878713          	add	a4,a5,56
     d5c:	fdc42783          	lw	a5,-36(s0)
     d60:	00f707b3          	add	a5,a4,a5
     d64:	fd442603          	lw	a2,-44(s0)
     d68:	00078593          	mv	a1,a5
     d6c:	fd042503          	lw	a0,-48(s0)
     d70:	76d010ef          	jal	2cdc <memcpy>
      ptr   += n;
     d74:	fd042703          	lw	a4,-48(s0)
     d78:	fd442783          	lw	a5,-44(s0)
     d7c:	00f707b3          	add	a5,a4,a5
     d80:	fcf42823          	sw	a5,-48(s0)
      space -= n;
     d84:	fc442703          	lw	a4,-60(s0)
     d88:	fd442783          	lw	a5,-44(s0)
     d8c:	40f707b3          	sub	a5,a4,a5
     d90:	fcf42223          	sw	a5,-60(s0)

      sp->rx_out = (out + n) % ALTERA_AVALON_JTAG_UART_BUF_LEN;
     d94:	fdc42703          	lw	a4,-36(s0)
     d98:	fd442783          	lw	a5,-44(s0)
     d9c:	00f707b3          	add	a5,a4,a5
     da0:	7ff7f713          	and	a4,a5,2047
     da4:	fcc42783          	lw	a5,-52(s0)
     da8:	02e7a623          	sw	a4,44(a5)
    }
    while (space > 0);
     dac:	fc442783          	lw	a5,-60(s0)
     db0:	f2f04ee3          	bgtz	a5,cec <altera_avalon_jtag_uart_read+0x2c>
     db4:	0080006f          	j	dbc <altera_avalon_jtag_uart_read+0xfc>
        break; /* No more data available */
     db8:	00000013          	nop

    /* If we read any data then return it */
    if (ptr != buffer)
     dbc:	fd042703          	lw	a4,-48(s0)
     dc0:	fc842783          	lw	a5,-56(s0)
     dc4:	04f71c63          	bne	a4,a5,e1c <altera_avalon_jtag_uart_read+0x15c>
      break;

    /* If in non-blocking mode then return error */
    if (flags & O_NONBLOCK)
     dc8:	fc042703          	lw	a4,-64(s0)
     dcc:	000047b7          	lui	a5,0x4
     dd0:	00f777b3          	and	a5,a4,a5
     dd4:	04079863          	bnez	a5,e24 <altera_avalon_jtag_uart_read+0x164>
      while (in == sp->rx_in && sp->host_inactive < sp->timeout)
        ;
    }
#else
    /* No OS: Always spin */
    while (in == sp->rx_in && sp->host_inactive < sp->timeout)
     dd8:	00000013          	nop
     ddc:	fcc42783          	lw	a5,-52(s0)
     de0:	0287a783          	lw	a5,40(a5) # 4028 <_vfprintf_r+0x2fc>
     de4:	fd842703          	lw	a4,-40(s0)
     de8:	00f71c63          	bne	a4,a5,e00 <altera_avalon_jtag_uart_read+0x140>
     dec:	fcc42783          	lw	a5,-52(s0)
     df0:	0247a703          	lw	a4,36(a5)
     df4:	fcc42783          	lw	a5,-52(s0)
     df8:	0047a783          	lw	a5,4(a5)
     dfc:	fef760e3          	bltu	a4,a5,ddc <altera_avalon_jtag_uart_read+0x11c>
      ;
#endif /* __ucosii__ */

    if (in == sp->rx_in)
     e00:	fcc42783          	lw	a5,-52(s0)
     e04:	0287a783          	lw	a5,40(a5)
     e08:	fd842703          	lw	a4,-40(s0)
     e0c:	02f70063          	beq	a4,a5,e2c <altera_avalon_jtag_uart_read+0x16c>
  while (space > 0)
     e10:	fc442783          	lw	a5,-60(s0)
     e14:	ecf04ce3          	bgtz	a5,cec <altera_avalon_jtag_uart_read+0x2c>
     e18:	0180006f          	j	e30 <altera_avalon_jtag_uart_read+0x170>
      break;
     e1c:	00000013          	nop
     e20:	0100006f          	j	e30 <altera_avalon_jtag_uart_read+0x170>
      break;
     e24:	00000013          	nop
     e28:	0080006f          	j	e30 <altera_avalon_jtag_uart_read+0x170>
      break;
     e2c:	00000013          	nop
   * semaphore so that other threads can access the buffer.
   */

  ALT_SEM_POST (sp->read_lock);

  if (ptr != buffer)
     e30:	fd042703          	lw	a4,-48(s0)
     e34:	fc842783          	lw	a5,-56(s0)
     e38:	06f70463          	beq	a4,a5,ea0 <altera_avalon_jtag_uart_read+0x1e0>
    NIOSV_READ_AND_CLR_CSR(NIOSV_MSTATUS_CSR, context, NIOSV_MSTATUS_MIE_MASK);
     e3c:	00800793          	li	a5,8
     e40:	3007b7f3          	csrrc	a5,mstatus,a5
     e44:	fef42623          	sw	a5,-20(s0)
    return context;
     e48:	fec42783          	lw	a5,-20(s0)
  {
    /* If we read any data then there is space in the buffer so enable interrupts */
    context = alt_irq_disable_all();
     e4c:	fef42023          	sw	a5,-32(s0)
    sp->irq_enable |= ALTERA_AVALON_JTAG_UART_CONTROL_RE_MSK;
     e50:	fcc42783          	lw	a5,-52(s0)
     e54:	0207a783          	lw	a5,32(a5)
     e58:	0017e713          	or	a4,a5,1
     e5c:	fcc42783          	lw	a5,-52(s0)
     e60:	02e7a023          	sw	a4,32(a5)
    IOWR_ALTERA_AVALON_JTAG_UART_CONTROL(sp->base, sp->irq_enable);
     e64:	fcc42783          	lw	a5,-52(s0)
     e68:	0207a783          	lw	a5,32(a5)
     e6c:	fef42223          	sw	a5,-28(s0)
     e70:	fcc42783          	lw	a5,-52(s0)
     e74:	0007a783          	lw	a5,0(a5)
     e78:	00478793          	add	a5,a5,4
     e7c:	00078713          	mv	a4,a5
     e80:	fe442783          	lw	a5,-28(s0)
     e84:	00f72023          	sw	a5,0(a4)
     e88:	fe042783          	lw	a5,-32(s0)
     e8c:	fef42423          	sw	a5,-24(s0)
    NIOSV_SET_CSR(NIOSV_MSTATUS_CSR, context & NIOSV_MSTATUS_MIE_MASK);
     e90:	fe842783          	lw	a5,-24(s0)
     e94:	0087f793          	and	a5,a5,8
     e98:	3007a073          	csrs	mstatus,a5
}
     e9c:	00000013          	nop
    alt_irq_enable_all(context);
  }

  if (ptr != buffer)
     ea0:	fd042703          	lw	a4,-48(s0)
     ea4:	fc842783          	lw	a5,-56(s0)
     ea8:	00f70a63          	beq	a4,a5,ebc <altera_avalon_jtag_uart_read+0x1fc>
    return ptr - buffer;
     eac:	fd042703          	lw	a4,-48(s0)
     eb0:	fc842783          	lw	a5,-56(s0)
     eb4:	40f707b3          	sub	a5,a4,a5
     eb8:	0200006f          	j	ed8 <altera_avalon_jtag_uart_read+0x218>
  else if (flags & O_NONBLOCK)
     ebc:	fc042703          	lw	a4,-64(s0)
     ec0:	000047b7          	lui	a5,0x4
     ec4:	00f777b3          	and	a5,a4,a5
     ec8:	00078663          	beqz	a5,ed4 <altera_avalon_jtag_uart_read+0x214>
    return -EWOULDBLOCK;
     ecc:	ff500793          	li	a5,-11
     ed0:	0080006f          	j	ed8 <altera_avalon_jtag_uart_read+0x218>
  else
    return -EIO;
     ed4:	ffb00793          	li	a5,-5
}
     ed8:	00078513          	mv	a0,a5
     edc:	03c12083          	lw	ra,60(sp)
     ee0:	03812403          	lw	s0,56(sp)
     ee4:	04010113          	add	sp,sp,64
     ee8:	00008067          	ret

00000eec <altera_avalon_jtag_uart_write>:
/* ----------------------------------------------------------- */

int 
altera_avalon_jtag_uart_write(altera_avalon_jtag_uart_state* sp, 
  const char * ptr, int count, int flags)
{
     eec:	fc010113          	add	sp,sp,-64
     ef0:	02112e23          	sw	ra,60(sp)
     ef4:	02812c23          	sw	s0,56(sp)
     ef8:	04010413          	add	s0,sp,64
     efc:	fca42623          	sw	a0,-52(s0)
     f00:	fcb42423          	sw	a1,-56(s0)
     f04:	fcc42223          	sw	a2,-60(s0)
     f08:	fcd42023          	sw	a3,-64(s0)
  /* Remove warning at optimisation level 03 by seting out to 0 */
  unsigned int in, out=0;
     f0c:	fc042823          	sw	zero,-48(s0)
  unsigned int n;
  alt_irq_context context;

  const char * start = ptr;
     f10:	fc842783          	lw	a5,-56(s0)
     f14:	fcf42c23          	sw	a5,-40(s0)
  ALT_SEM_PEND (sp->write_lock, 0);

  do
  {
    /* Copy as much as we can into the transmit buffer */
    while (count > 0)
     f18:	0ec0006f          	j	1004 <altera_avalon_jtag_uart_write+0x118>
    {
      /* We need a stable value of the out pointer to calculate the space available */
      in  = sp->tx_in;
     f1c:	fcc42783          	lw	a5,-52(s0)
     f20:	0307a783          	lw	a5,48(a5) # 4030 <_vfprintf_r+0x304>
     f24:	fcf42e23          	sw	a5,-36(s0)
      out = sp->tx_out;
     f28:	fcc42783          	lw	a5,-52(s0)
     f2c:	0347a783          	lw	a5,52(a5)
     f30:	fcf42823          	sw	a5,-48(s0)

      if (in < out)
     f34:	fdc42703          	lw	a4,-36(s0)
     f38:	fd042783          	lw	a5,-48(s0)
     f3c:	00f77e63          	bgeu	a4,a5,f58 <altera_avalon_jtag_uart_write+0x6c>
        n = out - 1 - in;
     f40:	fd042703          	lw	a4,-48(s0)
     f44:	fdc42783          	lw	a5,-36(s0)
     f48:	40f707b3          	sub	a5,a4,a5
     f4c:	fff78793          	add	a5,a5,-1
     f50:	fcf42a23          	sw	a5,-44(s0)
     f54:	0340006f          	j	f88 <altera_avalon_jtag_uart_write+0x9c>
      else if (out > 0)
     f58:	fd042783          	lw	a5,-48(s0)
     f5c:	00078e63          	beqz	a5,f78 <altera_avalon_jtag_uart_write+0x8c>
        n = ALTERA_AVALON_JTAG_UART_BUF_LEN - in;
     f60:	000017b7          	lui	a5,0x1
     f64:	80078713          	add	a4,a5,-2048 # 800 <altera_avalon_jtag_uart_init+0x60>
     f68:	fdc42783          	lw	a5,-36(s0)
     f6c:	40f707b3          	sub	a5,a4,a5
     f70:	fcf42a23          	sw	a5,-44(s0)
     f74:	0140006f          	j	f88 <altera_avalon_jtag_uart_write+0x9c>
      else
        n = ALTERA_AVALON_JTAG_UART_BUF_LEN - 1 - in;
     f78:	7ff00713          	li	a4,2047
     f7c:	fdc42783          	lw	a5,-36(s0)
     f80:	40f707b3          	sub	a5,a4,a5
     f84:	fcf42a23          	sw	a5,-44(s0)

      if (n == 0)
     f88:	fd442783          	lw	a5,-44(s0)
     f8c:	08078263          	beqz	a5,1010 <altera_avalon_jtag_uart_write+0x124>
        break;

      if (n > count)
     f90:	fc442783          	lw	a5,-60(s0)
     f94:	fd442703          	lw	a4,-44(s0)
     f98:	00e7f663          	bgeu	a5,a4,fa4 <altera_avalon_jtag_uart_write+0xb8>
        n = count;
     f9c:	fc442783          	lw	a5,-60(s0)
     fa0:	fcf42a23          	sw	a5,-44(s0)

      memcpy(sp->tx_buf + in, ptr, n);
     fa4:	fcc42703          	lw	a4,-52(s0)
     fa8:	000017b7          	lui	a5,0x1
     fac:	83878793          	add	a5,a5,-1992 # 838 <altera_avalon_jtag_uart_init+0x98>
     fb0:	00f70733          	add	a4,a4,a5
     fb4:	fdc42783          	lw	a5,-36(s0)
     fb8:	00f707b3          	add	a5,a4,a5
     fbc:	fd442603          	lw	a2,-44(s0)
     fc0:	fc842583          	lw	a1,-56(s0)
     fc4:	00078513          	mv	a0,a5
     fc8:	515010ef          	jal	2cdc <memcpy>
      ptr   += n;
     fcc:	fc842703          	lw	a4,-56(s0)
     fd0:	fd442783          	lw	a5,-44(s0)
     fd4:	00f707b3          	add	a5,a4,a5
     fd8:	fcf42423          	sw	a5,-56(s0)
      count -= n;
     fdc:	fc442703          	lw	a4,-60(s0)
     fe0:	fd442783          	lw	a5,-44(s0)
     fe4:	40f707b3          	sub	a5,a4,a5
     fe8:	fcf42223          	sw	a5,-60(s0)

      sp->tx_in = (in + n) % ALTERA_AVALON_JTAG_UART_BUF_LEN;
     fec:	fdc42703          	lw	a4,-36(s0)
     ff0:	fd442783          	lw	a5,-44(s0)
     ff4:	00f707b3          	add	a5,a4,a5
     ff8:	7ff7f713          	and	a4,a5,2047
     ffc:	fcc42783          	lw	a5,-52(s0)
    1000:	02e7a823          	sw	a4,48(a5)
    while (count > 0)
    1004:	fc442783          	lw	a5,-60(s0)
    1008:	f0f04ae3          	bgtz	a5,f1c <altera_avalon_jtag_uart_write+0x30>
    100c:	0080006f          	j	1014 <altera_avalon_jtag_uart_write+0x128>
        break;
    1010:	00000013          	nop
    NIOSV_READ_AND_CLR_CSR(NIOSV_MSTATUS_CSR, context, NIOSV_MSTATUS_MIE_MASK);
    1014:	00800793          	li	a5,8
    1018:	3007b7f3          	csrrc	a5,mstatus,a5
    101c:	fef42623          	sw	a5,-20(s0)
    return context;
    1020:	fec42783          	lw	a5,-20(s0)
     * to enable interrupts if there is no space left in the FIFO
     *
     * For now kick the interrupt routine every time to make it transmit 
     * the data 
     */
    context = alt_irq_disable_all();
    1024:	fef42023          	sw	a5,-32(s0)
    sp->irq_enable |= ALTERA_AVALON_JTAG_UART_CONTROL_WE_MSK;
    1028:	fcc42783          	lw	a5,-52(s0)
    102c:	0207a783          	lw	a5,32(a5)
    1030:	0027e713          	or	a4,a5,2
    1034:	fcc42783          	lw	a5,-52(s0)
    1038:	02e7a023          	sw	a4,32(a5)
    IOWR_ALTERA_AVALON_JTAG_UART_CONTROL(sp->base, sp->irq_enable);
    103c:	fcc42783          	lw	a5,-52(s0)
    1040:	0207a783          	lw	a5,32(a5)
    1044:	fef42223          	sw	a5,-28(s0)
    1048:	fcc42783          	lw	a5,-52(s0)
    104c:	0007a783          	lw	a5,0(a5)
    1050:	00478793          	add	a5,a5,4
    1054:	00078713          	mv	a4,a5
    1058:	fe442783          	lw	a5,-28(s0)
    105c:	00f72023          	sw	a5,0(a4)
    1060:	fe042783          	lw	a5,-32(s0)
    1064:	fef42423          	sw	a5,-24(s0)
    NIOSV_SET_CSR(NIOSV_MSTATUS_CSR, context & NIOSV_MSTATUS_MIE_MASK);
    1068:	fe842783          	lw	a5,-24(s0)
    106c:	0087f793          	and	a5,a5,8
    1070:	3007a073          	csrs	mstatus,a5
}
    1074:	00000013          	nop
    /* 
     * If there is any data left then either return now or block until 
     * some has been sent 
     */
    /* consider: test whether there is anything there while doing this and delay for at most 2s. */
    if (count > 0)
    1078:	fc442783          	lw	a5,-60(s0)
    107c:	04f05463          	blez	a5,10c4 <altera_avalon_jtag_uart_write+0x1d8>
    {
      if (flags & O_NONBLOCK)
    1080:	fc042703          	lw	a4,-64(s0)
    1084:	000047b7          	lui	a5,0x4
    1088:	00f777b3          	and	a5,a4,a5
    108c:	04079263          	bnez	a5,10d0 <altera_avalon_jtag_uart_write+0x1e4>
      /*
       * No OS present: Always wait for data to be removed from buffer.  Once
       * the interrupt routine has removed some data then we will be able to
       * insert some more.
       */
      while (out == sp->tx_out && sp->host_inactive < sp->timeout)
    1090:	00000013          	nop
    1094:	fcc42783          	lw	a5,-52(s0)
    1098:	0347a783          	lw	a5,52(a5) # 4034 <_vfprintf_r+0x308>
    109c:	fd042703          	lw	a4,-48(s0)
    10a0:	00f71c63          	bne	a4,a5,10b8 <altera_avalon_jtag_uart_write+0x1cc>
    10a4:	fcc42783          	lw	a5,-52(s0)
    10a8:	0247a703          	lw	a4,36(a5)
    10ac:	fcc42783          	lw	a5,-52(s0)
    10b0:	0047a783          	lw	a5,4(a5)
    10b4:	fef760e3          	bltu	a4,a5,1094 <altera_avalon_jtag_uart_write+0x1a8>
        ;
#endif /* __ucosii__ */

      if  (sp->host_inactive)
    10b8:	fcc42783          	lw	a5,-52(s0)
    10bc:	0247a783          	lw	a5,36(a5)
    10c0:	00079c63          	bnez	a5,10d8 <altera_avalon_jtag_uart_write+0x1ec>
         break;
    }
  }
  while (count > 0);
    10c4:	fc442783          	lw	a5,-60(s0)
    10c8:	f2f04ee3          	bgtz	a5,1004 <altera_avalon_jtag_uart_write+0x118>
    10cc:	0100006f          	j	10dc <altera_avalon_jtag_uart_write+0x1f0>
        break;
    10d0:	00000013          	nop
    10d4:	0080006f          	j	10dc <altera_avalon_jtag_uart_write+0x1f0>
         break;
    10d8:	00000013          	nop
   * Now that access to the circular buffer is complete, release the write
   * semaphore so that other threads can access the buffer.
   */
  ALT_SEM_POST (sp->write_lock);

  if (ptr != start)
    10dc:	fc842703          	lw	a4,-56(s0)
    10e0:	fd842783          	lw	a5,-40(s0)
    10e4:	00f70a63          	beq	a4,a5,10f8 <altera_avalon_jtag_uart_write+0x20c>
    return ptr - start;
    10e8:	fc842703          	lw	a4,-56(s0)
    10ec:	fd842783          	lw	a5,-40(s0)
    10f0:	40f707b3          	sub	a5,a4,a5
    10f4:	0200006f          	j	1114 <altera_avalon_jtag_uart_write+0x228>
  else if (flags & O_NONBLOCK)
    10f8:	fc042703          	lw	a4,-64(s0)
    10fc:	000047b7          	lui	a5,0x4
    1100:	00f777b3          	and	a5,a4,a5
    1104:	00078663          	beqz	a5,1110 <altera_avalon_jtag_uart_write+0x224>
    return -EWOULDBLOCK;
    1108:	ff500793          	li	a5,-11
    110c:	0080006f          	j	1114 <altera_avalon_jtag_uart_write+0x228>
    sp->tx_out = sp->tx_in = 0;
    return ptr - start + count;
  }
#endif
  else
    return -EIO; /* Host not connected */
    1110:	ffb00793          	li	a5,-5
}
    1114:	00078513          	mv	a0,a5
    1118:	03c12083          	lw	ra,60(sp)
    111c:	03812403          	lw	s0,56(sp)
    1120:	04010113          	add	sp,sp,64
    1124:	00008067          	ret

00001128 <alt_alarm_start>:
 */ 

int alt_alarm_start (alt_alarm* alarm, alt_u32 nticks,
                     alt_u32 (*callback) (void* context),
                     void* context)
{
    1128:	fc010113          	add	sp,sp,-64
    112c:	02812e23          	sw	s0,60(sp)
    1130:	04010413          	add	s0,sp,64
    1134:	fca42623          	sw	a0,-52(s0)
    1138:	fcb42423          	sw	a1,-56(s0)
    113c:	fcc42223          	sw	a2,-60(s0)
    1140:	fcd42023          	sw	a3,-64(s0)
  alt_irq_context irq_context;
  alt_u64 current_nticks = 0;
    1144:	00000713          	li	a4,0
    1148:	00000793          	li	a5,0
    114c:	fee42423          	sw	a4,-24(s0)
    1150:	fef42623          	sw	a5,-20(s0)
    1154:	000187b7          	lui	a5,0x18
    1158:	a087a783          	lw	a5,-1528(a5) # 17a08 <_alt_tick_rate>
  
  if (alt_ticks_per_second ())
    115c:	12078063          	beqz	a5,127c <alt_alarm_start+0x154>
  {
    if (alarm)
    1160:	fcc42783          	lw	a5,-52(s0)
    1164:	10078863          	beqz	a5,1274 <alt_alarm_start+0x14c>
    {
      alarm->callback = callback;
    1168:	fcc42783          	lw	a5,-52(s0)
    116c:	fc442703          	lw	a4,-60(s0)
    1170:	00e7a823          	sw	a4,16(a5)
      alarm->context  = context;
    1174:	fcc42783          	lw	a5,-52(s0)
    1178:	fc042703          	lw	a4,-64(s0)
    117c:	00e7aa23          	sw	a4,20(a5)
    NIOSV_READ_AND_CLR_CSR(NIOSV_MSTATUS_CSR, context, NIOSV_MSTATUS_MIE_MASK);
    1180:	00800793          	li	a5,8
    1184:	3007b7f3          	csrrc	a5,mstatus,a5
    1188:	fef42223          	sw	a5,-28(s0)
    return context;
    118c:	fe442783          	lw	a5,-28(s0)
 
      irq_context = alt_irq_disable_all ();
    1190:	fcf42a23          	sw	a5,-44(s0)
 * alt_nticks() returns the elapsed number of system clock ticks since reset.
 */

static ALT_INLINE alt_u64 ALT_ALWAYS_INLINE alt_nticks (void)
{
  return _alt_nticks;
    1194:	000187b7          	lui	a5,0x18
    1198:	a107a703          	lw	a4,-1520(a5) # 17a10 <_alt_nticks>
    119c:	a147a783          	lw	a5,-1516(a5)
      
      current_nticks = alt_nticks();
    11a0:	fee42423          	sw	a4,-24(s0)
    11a4:	fef42623          	sw	a5,-20(s0)
      
      alarm->time = (alt_u64)nticks + current_nticks + 1; 
    11a8:	fc842783          	lw	a5,-56(s0)
    11ac:	00078813          	mv	a6,a5
    11b0:	00000893          	li	a7,0
    11b4:	fe842603          	lw	a2,-24(s0)
    11b8:	fec42683          	lw	a3,-20(s0)
    11bc:	00c80733          	add	a4,a6,a2
    11c0:	00070593          	mv	a1,a4
    11c4:	0105b5b3          	sltu	a1,a1,a6
    11c8:	00d887b3          	add	a5,a7,a3
    11cc:	00f586b3          	add	a3,a1,a5
    11d0:	00068793          	mv	a5,a3
    11d4:	00070613          	mv	a2,a4
    11d8:	00078693          	mv	a3,a5
    11dc:	00100513          	li	a0,1
    11e0:	00000593          	li	a1,0
    11e4:	00a60733          	add	a4,a2,a0
    11e8:	00070813          	mv	a6,a4
    11ec:	00c83833          	sltu	a6,a6,a2
    11f0:	00b687b3          	add	a5,a3,a1
    11f4:	00f806b3          	add	a3,a6,a5
    11f8:	00068793          	mv	a5,a3
    11fc:	fcc42683          	lw	a3,-52(s0)
    1200:	00e6a423          	sw	a4,8(a3)
    1204:	00f6a623          	sw	a5,12(a3)
          
      alt_llist_insert (&alt_alarm_list, &alarm->llist);
    1208:	fcc42783          	lw	a5,-52(s0)
    120c:	81818713          	add	a4,gp,-2024 # 160f4 <alt_alarm_list>
    1210:	fce42e23          	sw	a4,-36(s0)
    1214:	fef42023          	sw	a5,-32(s0)
 */

static ALT_INLINE void ALT_ALWAYS_INLINE alt_llist_insert(alt_llist* list, 
                alt_llist* entry)
{
  entry->previous = list;
    1218:	fe042783          	lw	a5,-32(s0)
    121c:	fdc42703          	lw	a4,-36(s0)
    1220:	00e7a223          	sw	a4,4(a5)
  entry->next     = list->next;
    1224:	fdc42783          	lw	a5,-36(s0)
    1228:	0007a703          	lw	a4,0(a5)
    122c:	fe042783          	lw	a5,-32(s0)
    1230:	00e7a023          	sw	a4,0(a5)

  list->next->previous = entry;
    1234:	fdc42783          	lw	a5,-36(s0)
    1238:	0007a783          	lw	a5,0(a5)
    123c:	fe042703          	lw	a4,-32(s0)
    1240:	00e7a223          	sw	a4,4(a5)
  list->next           = entry;
    1244:	fdc42783          	lw	a5,-36(s0)
    1248:	fe042703          	lw	a4,-32(s0)
    124c:	00e7a023          	sw	a4,0(a5)
}
    1250:	00000013          	nop
    1254:	fd442783          	lw	a5,-44(s0)
    1258:	fcf42c23          	sw	a5,-40(s0)
    NIOSV_SET_CSR(NIOSV_MSTATUS_CSR, context & NIOSV_MSTATUS_MIE_MASK);
    125c:	fd842783          	lw	a5,-40(s0)
    1260:	0087f793          	and	a5,a5,8
    1264:	3007a073          	csrs	mstatus,a5
}
    1268:	00000013          	nop
      alt_irq_enable_all (irq_context);

      return 0;
    126c:	00000793          	li	a5,0
    1270:	0100006f          	j	1280 <alt_alarm_start+0x158>
    }
    else
    {
      return -EINVAL;
    1274:	fea00793          	li	a5,-22
    1278:	0080006f          	j	1280 <alt_alarm_start+0x158>
    }
  }
  else
  {
    return -ENOTSUP;
    127c:	f7a00793          	li	a5,-134
  }
}
    1280:	00078513          	mv	a0,a5
    1284:	03c12403          	lw	s0,60(sp)
    1288:	04010113          	add	sp,sp,64
    128c:	00008067          	ret

00001290 <alt_dcache_flush_all>:

/*
 * alt_dcache_flush_all() is called to flush the entire data cache.
 */
void alt_dcache_flush_all (void)
{
    1290:	fe010113          	add	sp,sp,-32
    1294:	00812e23          	sw	s0,28(sp)
    1298:	02010413          	add	s0,sp,32
#if ALT_CPU_DCACHE_SIZE > 0
    char* i;
    for (i = (char*)0; i < (char*) ALT_CPU_DCACHE_SIZE; i+= ALT_CPU_DCACHE_LINE_SIZE)
    129c:	fe042623          	sw	zero,-20(s0)
    12a0:	0180006f          	j	12b8 <alt_dcache_flush_all+0x28>
    { 
      DCACHE_CLEAN_BY_INDEX_VAL(i); 
    12a4:	fec42783          	lw	a5,-20(s0)
    12a8:	0817a00f          	.insn	4, 0x0817a00f
    for (i = (char*)0; i < (char*) ALT_CPU_DCACHE_SIZE; i+= ALT_CPU_DCACHE_LINE_SIZE)
    12ac:	fec42783          	lw	a5,-20(s0)
    12b0:	02078793          	add	a5,a5,32
    12b4:	fef42623          	sw	a5,-20(s0)
    12b8:	fec42703          	lw	a4,-20(s0)
    12bc:	000017b7          	lui	a5,0x1
    12c0:	fef762e3          	bltu	a4,a5,12a4 <alt_dcache_flush_all+0x14>
    }
#endif
}
    12c4:	00000013          	nop
    12c8:	00000013          	nop
    12cc:	01c12403          	lw	s0,28(sp)
    12d0:	02010113          	add	sp,sp,32
    12d4:	00008067          	ret

000012d8 <alt_dev_null_write>:
 * by the alt_dev_null device. It simple discards all data passed to it, and
 * indicates that the data has been successfully transmitted.
 */

static int alt_dev_null_write (alt_fd* fd, const char* ptr, int len)
{
    12d8:	fe010113          	add	sp,sp,-32
    12dc:	00812e23          	sw	s0,28(sp)
    12e0:	02010413          	add	s0,sp,32
    12e4:	fea42623          	sw	a0,-20(s0)
    12e8:	feb42423          	sw	a1,-24(s0)
    12ec:	fec42223          	sw	a2,-28(s0)
  return len;
    12f0:	fe442783          	lw	a5,-28(s0)
}
    12f4:	00078513          	mv	a0,a5
    12f8:	01c12403          	lw	s0,28(sp)
    12fc:	02010113          	add	sp,sp,32
    1300:	00008067          	ret

00001304 <alt_dev_reg>:
    }
    /* all other elements are set to zero */
  };
  
int alt_dev_reg (alt_dev* dev)
{
    1304:	fe010113          	add	sp,sp,-32
    1308:	00112e23          	sw	ra,28(sp)
    130c:	00812c23          	sw	s0,24(sp)
    1310:	02010413          	add	s0,sp,32
    1314:	fea42623          	sw	a0,-20(s0)
    return alt_dev_llist_insert ((alt_dev_llist*) dev, &alt_dev_list);
    1318:	000167b7          	lui	a5,0x16
    131c:	0e478593          	add	a1,a5,228 # 160e4 <alt_dev_list>
    1320:	fec42503          	lw	a0,-20(s0)
    1324:	060000ef          	jal	1384 <alt_dev_llist_insert>
    1328:	00050793          	mv	a5,a0
}
    132c:	00078513          	mv	a0,a5
    1330:	01c12083          	lw	ra,28(sp)
    1334:	01812403          	lw	s0,24(sp)
    1338:	02010113          	add	sp,sp,32
    133c:	00008067          	ret

00001340 <alt_get_errno>:
    1340:	ff010113          	add	sp,sp,-16
    1344:	00112623          	sw	ra,12(sp)
    1348:	00812423          	sw	s0,8(sp)
    134c:	01010413          	add	s0,sp,16
    1350:	8141a783          	lw	a5,-2028(gp) # 160f0 <alt_errno>
    1354:	00078a63          	beqz	a5,1368 <alt_get_errno+0x28>
    1358:	8141a783          	lw	a5,-2028(gp) # 160f0 <alt_errno>
    135c:	000780e7          	jalr	a5
    1360:	00050793          	mv	a5,a0
    1364:	00c0006f          	j	1370 <alt_get_errno+0x30>
    1368:	000187b7          	lui	a5,0x18
    136c:	a2478793          	add	a5,a5,-1500 # 17a24 <errno>
    1370:	00078513          	mv	a0,a5
    1374:	00c12083          	lw	ra,12(sp)
    1378:	00812403          	lw	s0,8(sp)
    137c:	01010113          	add	sp,sp,16
    1380:	00008067          	ret

00001384 <alt_dev_llist_insert>:
{
    1384:	fd010113          	add	sp,sp,-48
    1388:	02112623          	sw	ra,44(sp)
    138c:	02812423          	sw	s0,40(sp)
    1390:	03010413          	add	s0,sp,48
    1394:	fca42e23          	sw	a0,-36(s0)
    1398:	fcb42c23          	sw	a1,-40(s0)
  if (!dev || !dev->name)
    139c:	fdc42783          	lw	a5,-36(s0)
    13a0:	00078863          	beqz	a5,13b0 <alt_dev_llist_insert+0x2c>
    13a4:	fdc42783          	lw	a5,-36(s0)
    13a8:	0087a783          	lw	a5,8(a5)
    13ac:	00079e63          	bnez	a5,13c8 <alt_dev_llist_insert+0x44>
    ALT_ERRNO = EINVAL;
    13b0:	f91ff0ef          	jal	1340 <alt_get_errno>
    13b4:	00050713          	mv	a4,a0
    13b8:	01600793          	li	a5,22
    13bc:	00f72023          	sw	a5,0(a4)
    return -EINVAL;
    13c0:	fea00793          	li	a5,-22
    13c4:	0540006f          	j	1418 <alt_dev_llist_insert+0x94>
  alt_llist_insert(list, &dev->llist);
    13c8:	fdc42783          	lw	a5,-36(s0)
    13cc:	fd842703          	lw	a4,-40(s0)
    13d0:	fee42423          	sw	a4,-24(s0)
    13d4:	fef42623          	sw	a5,-20(s0)
  entry->previous = list;
    13d8:	fec42783          	lw	a5,-20(s0)
    13dc:	fe842703          	lw	a4,-24(s0)
    13e0:	00e7a223          	sw	a4,4(a5)
  entry->next     = list->next;
    13e4:	fe842783          	lw	a5,-24(s0)
    13e8:	0007a703          	lw	a4,0(a5)
    13ec:	fec42783          	lw	a5,-20(s0)
    13f0:	00e7a023          	sw	a4,0(a5)
  list->next->previous = entry;
    13f4:	fe842783          	lw	a5,-24(s0)
    13f8:	0007a783          	lw	a5,0(a5)
    13fc:	fec42703          	lw	a4,-20(s0)
    1400:	00e7a223          	sw	a4,4(a5)
  list->next           = entry;
    1404:	fe842783          	lw	a5,-24(s0)
    1408:	fec42703          	lw	a4,-20(s0)
    140c:	00e7a023          	sw	a4,0(a5)
}
    1410:	00000013          	nop
  return 0;  
    1414:	00000793          	li	a5,0
}
    1418:	00078513          	mv	a0,a5
    141c:	02c12083          	lw	ra,44(sp)
    1420:	02812403          	lw	s0,40(sp)
    1424:	03010113          	add	sp,sp,48
    1428:	00008067          	ret

0000142c <_do_ctors>:
/*
 * Run the C++ static constructors.
 */

void _do_ctors(void)
{
    142c:	fe010113          	add	sp,sp,-32
    1430:	00112e23          	sw	ra,28(sp)
    1434:	00812c23          	sw	s0,24(sp)
    1438:	02010413          	add	s0,sp,32
  constructor* ctor;

  for (ctor = __init_array_start; ctor < __init_array_end; ctor++)
    143c:	000147b7          	lui	a5,0x14
    1440:	e8c78793          	add	a5,a5,-372 # 13e8c <__init_array_start>
    1444:	fef42623          	sw	a5,-20(s0)
    1448:	01c0006f          	j	1464 <_do_ctors+0x38>
        (*ctor) (); 
    144c:	fec42783          	lw	a5,-20(s0)
    1450:	0007a783          	lw	a5,0(a5)
    1454:	000780e7          	jalr	a5
  for (ctor = __init_array_start; ctor < __init_array_end; ctor++)
    1458:	fec42783          	lw	a5,-20(s0)
    145c:	00478793          	add	a5,a5,4
    1460:	fef42623          	sw	a5,-20(s0)
    1464:	fec42703          	lw	a4,-20(s0)
    1468:	000147b7          	lui	a5,0x14
    146c:	e9478793          	add	a5,a5,-364 # 13e94 <__fini_array_end>
    1470:	fcf76ee3          	bltu	a4,a5,144c <_do_ctors+0x20>
}
    1474:	00000013          	nop
    1478:	00000013          	nop
    147c:	01c12083          	lw	ra,28(sp)
    1480:	01812403          	lw	s0,24(sp)
    1484:	02010113          	add	sp,sp,32
    1488:	00008067          	ret

0000148c <_do_dtors>:
/*
 * Run the C++ static destructors.
 */

void _do_dtors(void)
{
    148c:	fe010113          	add	sp,sp,-32
    1490:	00112e23          	sw	ra,28(sp)
    1494:	00812c23          	sw	s0,24(sp)
    1498:	02010413          	add	s0,sp,32
  destructor* dtor;

  for (dtor = &__fini_array_end[-1]; dtor >= __fini_array_start; dtor--)
    149c:	000147b7          	lui	a5,0x14
    14a0:	e9078793          	add	a5,a5,-368 # 13e90 <__init_array_start+0x4>
    14a4:	fef42623          	sw	a5,-20(s0)
    14a8:	01c0006f          	j	14c4 <_do_dtors+0x38>
        (*dtor) (); 
    14ac:	fec42783          	lw	a5,-20(s0)
    14b0:	0007a783          	lw	a5,0(a5)
    14b4:	000780e7          	jalr	a5
  for (dtor = &__fini_array_end[-1]; dtor >= __fini_array_start; dtor--)
    14b8:	fec42783          	lw	a5,-20(s0)
    14bc:	ffc78793          	add	a5,a5,-4
    14c0:	fef42623          	sw	a5,-20(s0)
    14c4:	fec42703          	lw	a4,-20(s0)
    14c8:	000147b7          	lui	a5,0x14
    14cc:	e9478793          	add	a5,a5,-364 # 13e94 <__fini_array_end>
    14d0:	fcf77ee3          	bgeu	a4,a5,14ac <_do_dtors+0x20>
}
    14d4:	00000013          	nop
    14d8:	00000013          	nop
    14dc:	01c12083          	lw	ra,28(sp)
    14e0:	01812403          	lw	s0,24(sp)
    14e4:	02010113          	add	sp,sp,32
    14e8:	00008067          	ret

000014ec <alt_icache_flush_all>:
/*
 * alt_icache_flush_all() is called to flush the entire instruction cache.
 */

void alt_icache_flush_all (void)
{
    14ec:	ff010113          	add	sp,sp,-16
    14f0:	00812623          	sw	s0,12(sp)
    14f4:	01010413          	add	s0,sp,16
#if ALT_CPU_ICACHE_SIZE > 0
    __asm__ volatile("fence.i" ::: "memory");
    14f8:	0000100f          	fence.i
#endif
}
    14fc:	00000013          	nop
    1500:	00c12403          	lw	s0,12(sp)
    1504:	01010113          	add	sp,sp,16
    1508:	00008067          	ret

0000150c <alt_ic_isr_register>:
  * @return                 0 if successful, else error (-1)
  */
int 
alt_ic_isr_register(alt_u32 ic_id, alt_u32 irq, alt_isr_func isr, 
  void *isr_context, void *flags)
{
    150c:	fd010113          	add	sp,sp,-48
    1510:	02112623          	sw	ra,44(sp)
    1514:	02812423          	sw	s0,40(sp)
    1518:	03010413          	add	s0,sp,48
    151c:	fea42623          	sw	a0,-20(s0)
    1520:	feb42423          	sw	a1,-24(s0)
    1524:	fec42223          	sw	a2,-28(s0)
    1528:	fed42023          	sw	a3,-32(s0)
    152c:	fce42e23          	sw	a4,-36(s0)
    return alt_iic_isr_register(ic_id, irq, isr, isr_context, flags);
    1530:	fdc42703          	lw	a4,-36(s0)
    1534:	fe042683          	lw	a3,-32(s0)
    1538:	fe442603          	lw	a2,-28(s0)
    153c:	fe842583          	lw	a1,-24(s0)
    1540:	fec42503          	lw	a0,-20(s0)
    1544:	01c000ef          	jal	1560 <alt_iic_isr_register>
    1548:	00050793          	mv	a5,a0
}  
    154c:	00078513          	mv	a0,a5
    1550:	02c12083          	lw	ra,44(sp)
    1554:	02812403          	lw	s0,40(sp)
    1558:	03010113          	add	sp,sp,48
    155c:	00008067          	ret

00001560 <alt_iic_isr_register>:
  * @param flags            
  * @return                 0 if successful, else error (-1)
  */
int alt_iic_isr_register(alt_u32 ic_id, alt_u32 irq, alt_isr_func isr, 
  void *isr_context, void *flags)
{
    1560:	fa010113          	add	sp,sp,-96
    1564:	04812e23          	sw	s0,92(sp)
    1568:	06010413          	add	s0,sp,96
    156c:	faa42e23          	sw	a0,-68(s0)
    1570:	fab42c23          	sw	a1,-72(s0)
    1574:	fac42a23          	sw	a2,-76(s0)
    1578:	fad42823          	sw	a3,-80(s0)
    157c:	fae42623          	sw	a4,-84(s0)
  int rc = -EINVAL;  
    1580:	fea00793          	li	a5,-22
    1584:	fcf42223          	sw	a5,-60(s0)
  int id = irq;             /* IRQ interpreted as the interrupt ID. */
    1588:	fb842783          	lw	a5,-72(s0)
    158c:	fcf42423          	sw	a5,-56(s0)
  alt_irq_context status;

  if (id < ALT_NIRQ)
    1590:	fc842703          	lw	a4,-56(s0)
    1594:	00f00793          	li	a5,15
    1598:	12e7c863          	blt	a5,a4,16c8 <alt_iic_isr_register+0x168>
    NIOSV_READ_AND_CLR_CSR(NIOSV_MSTATUS_CSR, context, NIOSV_MSTATUS_MIE_MASK);
    159c:	00800793          	li	a5,8
    15a0:	3007b7f3          	csrrc	a5,mstatus,a5
    15a4:	fcf42823          	sw	a5,-48(s0)
    return context;
    15a8:	fd042783          	lw	a5,-48(s0)
     * interrupts are disabled while the handler tables are updated to ensure
     * that an interrupt doesn't occur while the tables are in an inconsistant
     * state.
     */

    status = alt_irq_disable_all();
    15ac:	fcf42623          	sw	a5,-52(s0)

    alt_irq[id].handler = isr;
    15b0:	000187b7          	lui	a5,0x18
    15b4:	a6078713          	add	a4,a5,-1440 # 17a60 <alt_irq>
    15b8:	fc842783          	lw	a5,-56(s0)
    15bc:	00379793          	sll	a5,a5,0x3
    15c0:	00f707b3          	add	a5,a4,a5
    15c4:	fb442703          	lw	a4,-76(s0)
    15c8:	00e7a023          	sw	a4,0(a5)
    alt_irq[id].context = isr_context;
    15cc:	000187b7          	lui	a5,0x18
    15d0:	a6078713          	add	a4,a5,-1440 # 17a60 <alt_irq>
    15d4:	fc842783          	lw	a5,-56(s0)
    15d8:	00379793          	sll	a5,a5,0x3
    15dc:	00f707b3          	add	a5,a4,a5
    15e0:	fb042703          	lw	a4,-80(s0)
    15e4:	00e7a223          	sw	a4,4(a5)

    rc = (isr) ? alt_ic_irq_enable(ic_id, id) : alt_ic_irq_disable(ic_id, id);
    15e8:	fb442783          	lw	a5,-76(s0)
    15ec:	06078263          	beqz	a5,1650 <alt_iic_isr_register+0xf0>
    15f0:	fc842783          	lw	a5,-56(s0)
    15f4:	fbc42703          	lw	a4,-68(s0)
    15f8:	fce42a23          	sw	a4,-44(s0)
    15fc:	fcf42c23          	sw	a5,-40(s0)
    int rc = ALT_REMAP_IRQ_NUM(irq);
    1600:	fd842703          	lw	a4,-40(s0)
    1604:	00f00793          	li	a5,15
    1608:	00e7e863          	bltu	a5,a4,1618 <alt_iic_isr_register+0xb8>
    160c:	fd842783          	lw	a5,-40(s0)
    1610:	01078793          	add	a5,a5,16
    1614:	0080006f          	j	161c <alt_iic_isr_register+0xbc>
    1618:	fff00793          	li	a5,-1
    161c:	fcf42e23          	sw	a5,-36(s0)
    if (rc < 0)
    1620:	fdc42783          	lw	a5,-36(s0)
    1624:	0007d663          	bgez	a5,1630 <alt_iic_isr_register+0xd0>
        return rc;
    1628:	fdc42783          	lw	a5,-36(s0)
    162c:	0800006f          	j	16ac <alt_iic_isr_register+0x14c>
        irq = (alt_u32)rc;
    1630:	fdc42783          	lw	a5,-36(s0)
    1634:	fcf42c23          	sw	a5,-40(s0)
    NIOSV_SET_CSR(NIOSV_MIE_CSR, 0x1 << irq);
    1638:	fd842783          	lw	a5,-40(s0)
    163c:	00100713          	li	a4,1
    1640:	00f717b3          	sll	a5,a4,a5
    1644:	3047a073          	csrs	mie,a5
    return 0;
    1648:	00000793          	li	a5,0
    164c:	0600006f          	j	16ac <alt_iic_isr_register+0x14c>
    1650:	fc842783          	lw	a5,-56(s0)
    1654:	fbc42703          	lw	a4,-68(s0)
    1658:	fee42023          	sw	a4,-32(s0)
    165c:	fef42223          	sw	a5,-28(s0)
    int rc = ALT_REMAP_IRQ_NUM(irq);
    1660:	fe442703          	lw	a4,-28(s0)
    1664:	00f00793          	li	a5,15
    1668:	00e7e863          	bltu	a5,a4,1678 <alt_iic_isr_register+0x118>
    166c:	fe442783          	lw	a5,-28(s0)
    1670:	01078793          	add	a5,a5,16
    1674:	0080006f          	j	167c <alt_iic_isr_register+0x11c>
    1678:	fff00793          	li	a5,-1
    167c:	fef42423          	sw	a5,-24(s0)
    if (rc < 0)
    1680:	fe842783          	lw	a5,-24(s0)
    1684:	0007d663          	bgez	a5,1690 <alt_iic_isr_register+0x130>
        return rc;
    1688:	fe842783          	lw	a5,-24(s0)
    168c:	0200006f          	j	16ac <alt_iic_isr_register+0x14c>
        irq = (alt_u32)rc;
    1690:	fe842783          	lw	a5,-24(s0)
    1694:	fef42223          	sw	a5,-28(s0)
    NIOSV_CLR_CSR(NIOSV_MIE_CSR, 0x1 << irq);
    1698:	fe442783          	lw	a5,-28(s0)
    169c:	00100713          	li	a4,1
    16a0:	00f717b3          	sll	a5,a4,a5
    16a4:	3047b073          	csrc	mie,a5
    return 0;
    16a8:	00000793          	li	a5,0
    16ac:	fcf42223          	sw	a5,-60(s0)
    16b0:	fcc42783          	lw	a5,-52(s0)
    16b4:	fef42623          	sw	a5,-20(s0)
    NIOSV_SET_CSR(NIOSV_MSTATUS_CSR, context & NIOSV_MSTATUS_MIE_MASK);
    16b8:	fec42783          	lw	a5,-20(s0)
    16bc:	0087f793          	and	a5,a5,8
    16c0:	3007a073          	csrs	mstatus,a5
}
    16c4:	00000013          	nop

    alt_irq_enable_all(status);
  }

  return rc; 
    16c8:	fc442783          	lw	a5,-60(s0)
}
    16cc:	00078513          	mv	a0,a5
    16d0:	05c12403          	lw	s0,92(sp)
    16d4:	06010113          	add	sp,sp,96
    16d8:	00008067          	ret

000016dc <alt_open_fd>:
 * If the device can not be succesfully opened, then the input file descriptor
 * remains unchanged.
 */

static void alt_open_fd(alt_fd* fd, const char* name, int flags, int mode)
{
    16dc:	fd010113          	add	sp,sp,-48
    16e0:	02112623          	sw	ra,44(sp)
    16e4:	02812423          	sw	s0,40(sp)
    16e8:	03010413          	add	s0,sp,48
    16ec:	fca42e23          	sw	a0,-36(s0)
    16f0:	fcb42c23          	sw	a1,-40(s0)
    16f4:	fcc42a23          	sw	a2,-44(s0)
    16f8:	fcd42823          	sw	a3,-48(s0)
  int old;

  old = open (name, flags, mode);
    16fc:	fd042603          	lw	a2,-48(s0)
    1700:	fd442583          	lw	a1,-44(s0)
    1704:	fd842503          	lw	a0,-40(s0)
    1708:	4b0010ef          	jal	2bb8 <open>
    170c:	fea42623          	sw	a0,-20(s0)

  if (old >= 0)
    1710:	fec42783          	lw	a5,-20(s0)
    1714:	0807c863          	bltz	a5,17a4 <alt_open_fd+0xc8>
  {
    fd->dev      = alt_fd_list[old].dev;
    1718:	000167b7          	lui	a5,0x16
    171c:	8b878693          	add	a3,a5,-1864 # 158b8 <alt_fd_list>
    1720:	fec42703          	lw	a4,-20(s0)
    1724:	00070793          	mv	a5,a4
    1728:	00179793          	sll	a5,a5,0x1
    172c:	00e787b3          	add	a5,a5,a4
    1730:	00279793          	sll	a5,a5,0x2
    1734:	00f687b3          	add	a5,a3,a5
    1738:	0007a703          	lw	a4,0(a5)
    173c:	fdc42783          	lw	a5,-36(s0)
    1740:	00e7a023          	sw	a4,0(a5)
    fd->priv     = alt_fd_list[old].priv;
    1744:	000167b7          	lui	a5,0x16
    1748:	8b878693          	add	a3,a5,-1864 # 158b8 <alt_fd_list>
    174c:	fec42703          	lw	a4,-20(s0)
    1750:	00070793          	mv	a5,a4
    1754:	00179793          	sll	a5,a5,0x1
    1758:	00e787b3          	add	a5,a5,a4
    175c:	00279793          	sll	a5,a5,0x2
    1760:	00f687b3          	add	a5,a3,a5
    1764:	0047a703          	lw	a4,4(a5)
    1768:	fdc42783          	lw	a5,-36(s0)
    176c:	00e7a223          	sw	a4,4(a5)
    fd->fd_flags = alt_fd_list[old].fd_flags;
    1770:	000167b7          	lui	a5,0x16
    1774:	8b878693          	add	a3,a5,-1864 # 158b8 <alt_fd_list>
    1778:	fec42703          	lw	a4,-20(s0)
    177c:	00070793          	mv	a5,a4
    1780:	00179793          	sll	a5,a5,0x1
    1784:	00e787b3          	add	a5,a5,a4
    1788:	00279793          	sll	a5,a5,0x2
    178c:	00f687b3          	add	a5,a3,a5
    1790:	0087a703          	lw	a4,8(a5)
    1794:	fdc42783          	lw	a5,-36(s0)
    1798:	00e7a423          	sw	a4,8(a5)

    alt_release_fd (old);
    179c:	fec42503          	lw	a0,-20(s0)
    17a0:	114000ef          	jal	18b4 <alt_release_fd>
  }
} 
    17a4:	00000013          	nop
    17a8:	02c12083          	lw	ra,44(sp)
    17ac:	02812403          	lw	s0,40(sp)
    17b0:	03010113          	add	sp,sp,48
    17b4:	00008067          	ret

000017b8 <alt_io_redirect>:
 */
 
void alt_io_redirect(const char* stdout_dev, 
                     const char* stdin_dev, 
                     const char* stderr_dev)
{
    17b8:	fe010113          	add	sp,sp,-32
    17bc:	00112e23          	sw	ra,28(sp)
    17c0:	00812c23          	sw	s0,24(sp)
    17c4:	02010413          	add	s0,sp,32
    17c8:	fea42623          	sw	a0,-20(s0)
    17cc:	feb42423          	sw	a1,-24(s0)
    17d0:	fec42223          	sw	a2,-28(s0)
  /* Redirect the channels */

  alt_open_fd (&alt_fd_list[STDOUT_FILENO], stdout_dev, O_WRONLY, 0777);
    17d4:	1ff00693          	li	a3,511
    17d8:	00100613          	li	a2,1
    17dc:	fec42583          	lw	a1,-20(s0)
    17e0:	000167b7          	lui	a5,0x16
    17e4:	8c478513          	add	a0,a5,-1852 # 158c4 <alt_fd_list+0xc>
    17e8:	ef5ff0ef          	jal	16dc <alt_open_fd>
  alt_open_fd (&alt_fd_list[STDIN_FILENO], stdin_dev, O_RDONLY, 0777);
    17ec:	1ff00693          	li	a3,511
    17f0:	00000613          	li	a2,0
    17f4:	fe842583          	lw	a1,-24(s0)
    17f8:	000167b7          	lui	a5,0x16
    17fc:	8b878513          	add	a0,a5,-1864 # 158b8 <alt_fd_list>
    1800:	eddff0ef          	jal	16dc <alt_open_fd>
  alt_open_fd (&alt_fd_list[STDERR_FILENO], stderr_dev, O_WRONLY, 0777);
    1804:	1ff00693          	li	a3,511
    1808:	00100613          	li	a2,1
    180c:	fe442583          	lw	a1,-28(s0)
    1810:	000167b7          	lui	a5,0x16
    1814:	8d078513          	add	a0,a5,-1840 # 158d0 <alt_fd_list+0x18>
    1818:	ec5ff0ef          	jal	16dc <alt_open_fd>

#ifndef USE_PICOLIBC
  /* Allocate a stream buffer if it is not yet done.
   * And use no buffering mode by default.
   */
  if ((FILE *)stdin->_bf._base == NULL)
    181c:	8201a783          	lw	a5,-2016(gp) # 160fc <_impure_ptr>
    1820:	0047a783          	lw	a5,4(a5)
    1824:	0107a783          	lw	a5,16(a5)
    1828:	02079063          	bnez	a5,1848 <alt_io_redirect+0x90>
  {
    setvbuf(stdin, NULL, _IONBF, 0);
    182c:	8201a783          	lw	a5,-2016(gp) # 160fc <_impure_ptr>
    1830:	0047a783          	lw	a5,4(a5)
    1834:	00000693          	li	a3,0
    1838:	00200613          	li	a2,2
    183c:	00000593          	li	a1,0
    1840:	00078513          	mv	a0,a5
    1844:	4cd000ef          	jal	2510 <setvbuf>
  }

  if ((FILE *)stdout->_bf._base == NULL)
    1848:	8201a783          	lw	a5,-2016(gp) # 160fc <_impure_ptr>
    184c:	0087a783          	lw	a5,8(a5)
    1850:	0107a783          	lw	a5,16(a5)
    1854:	02079063          	bnez	a5,1874 <alt_io_redirect+0xbc>
  {
    setvbuf(stdout, NULL, _IONBF, 0);
    1858:	8201a783          	lw	a5,-2016(gp) # 160fc <_impure_ptr>
    185c:	0087a783          	lw	a5,8(a5)
    1860:	00000693          	li	a3,0
    1864:	00200613          	li	a2,2
    1868:	00000593          	li	a1,0
    186c:	00078513          	mv	a0,a5
    1870:	4a1000ef          	jal	2510 <setvbuf>
  }

  if ((FILE *)stderr->_bf._base == NULL)
    1874:	8201a783          	lw	a5,-2016(gp) # 160fc <_impure_ptr>
    1878:	00c7a783          	lw	a5,12(a5)
    187c:	0107a783          	lw	a5,16(a5)
    1880:	02079063          	bnez	a5,18a0 <alt_io_redirect+0xe8>
  {
    setvbuf(stderr, NULL, _IONBF, 0);
    1884:	8201a783          	lw	a5,-2016(gp) # 160fc <_impure_ptr>
    1888:	00c7a783          	lw	a5,12(a5)
    188c:	00000693          	li	a3,0
    1890:	00200613          	li	a2,2
    1894:	00000593          	li	a1,0
    1898:	00078513          	mv	a0,a5
    189c:	475000ef          	jal	2510 <setvbuf>
  }
#endif
}  
    18a0:	00000013          	nop
    18a4:	01c12083          	lw	ra,28(sp)
    18a8:	01812403          	lw	s0,24(sp)
    18ac:	02010113          	add	sp,sp,32
    18b0:	00008067          	ret

000018b4 <alt_release_fd>:
 * File descriptors correcponding to standard in, standard out and standard 
 * error cannont be released backed to the pool. They are always reserved.
 */

void alt_release_fd (int fd)
{
    18b4:	fe010113          	add	sp,sp,-32
    18b8:	00812e23          	sw	s0,28(sp)
    18bc:	02010413          	add	s0,sp,32
    18c0:	fea42623          	sw	a0,-20(s0)
  if (fd > 2)
    18c4:	fec42703          	lw	a4,-20(s0)
    18c8:	00200793          	li	a5,2
    18cc:	04e7d663          	bge	a5,a4,1918 <alt_release_fd+0x64>
  {
    alt_fd_list[fd].fd_flags = 0;
    18d0:	000167b7          	lui	a5,0x16
    18d4:	8b878693          	add	a3,a5,-1864 # 158b8 <alt_fd_list>
    18d8:	fec42703          	lw	a4,-20(s0)
    18dc:	00070793          	mv	a5,a4
    18e0:	00179793          	sll	a5,a5,0x1
    18e4:	00e787b3          	add	a5,a5,a4
    18e8:	00279793          	sll	a5,a5,0x2
    18ec:	00f687b3          	add	a5,a3,a5
    18f0:	0007a423          	sw	zero,8(a5)
    alt_fd_list[fd].dev      = 0;
    18f4:	000167b7          	lui	a5,0x16
    18f8:	8b878693          	add	a3,a5,-1864 # 158b8 <alt_fd_list>
    18fc:	fec42703          	lw	a4,-20(s0)
    1900:	00070793          	mv	a5,a4
    1904:	00179793          	sll	a5,a5,0x1
    1908:	00e787b3          	add	a5,a5,a4
    190c:	00279793          	sll	a5,a5,0x2
    1910:	00f687b3          	add	a5,a3,a5
    1914:	0007a023          	sw	zero,0(a5)
  }
}
    1918:	00000013          	nop
    191c:	01c12403          	lw	s0,28(sp)
    1920:	02010113          	add	sp,sp,32
    1924:	00008067          	ret

00001928 <alt_alarm_stop>:
 * alarms. Alternatively an alarm can unregister itself by returning zero when 
 * the alarm executes.
 */

void alt_alarm_stop (alt_alarm* alarm)
{
    1928:	fd010113          	add	sp,sp,-48
    192c:	02812623          	sw	s0,44(sp)
    1930:	03010413          	add	s0,sp,48
    1934:	fca42e23          	sw	a0,-36(s0)
    NIOSV_READ_AND_CLR_CSR(NIOSV_MSTATUS_CSR, context, NIOSV_MSTATUS_MIE_MASK);
    1938:	00800793          	li	a5,8
    193c:	3007b7f3          	csrrc	a5,mstatus,a5
    1940:	fef42623          	sw	a5,-20(s0)
    return context;
    1944:	fec42783          	lw	a5,-20(s0)
  alt_irq_context irq_context;

  irq_context = alt_irq_disable_all();
    1948:	fef42023          	sw	a5,-32(s0)
  alt_llist_remove (&alarm->llist);
    194c:	fdc42783          	lw	a5,-36(s0)
    1950:	fef42423          	sw	a5,-24(s0)
 * input argument is the element to remove.
 */
     
static ALT_INLINE void ALT_ALWAYS_INLINE alt_llist_remove(alt_llist* entry)
{
  entry->next->previous = entry->previous;
    1954:	fe842783          	lw	a5,-24(s0)
    1958:	0007a783          	lw	a5,0(a5)
    195c:	fe842703          	lw	a4,-24(s0)
    1960:	00472703          	lw	a4,4(a4)
    1964:	00e7a223          	sw	a4,4(a5)
  entry->previous->next = entry->next;
    1968:	fe842783          	lw	a5,-24(s0)
    196c:	0047a783          	lw	a5,4(a5)
    1970:	fe842703          	lw	a4,-24(s0)
    1974:	00072703          	lw	a4,0(a4)
    1978:	00e7a023          	sw	a4,0(a5)
  /* 
   * Set the entry to point to itself, so that any further calls to
   * alt_llist_remove() are harmless.
   */

  entry->previous = entry;
    197c:	fe842783          	lw	a5,-24(s0)
    1980:	fe842703          	lw	a4,-24(s0)
    1984:	00e7a223          	sw	a4,4(a5)
  entry->next     = entry;
    1988:	fe842783          	lw	a5,-24(s0)
    198c:	fe842703          	lw	a4,-24(s0)
    1990:	00e7a023          	sw	a4,0(a5)
} 
    1994:	00000013          	nop
    1998:	fe042783          	lw	a5,-32(s0)
    199c:	fef42223          	sw	a5,-28(s0)
    NIOSV_SET_CSR(NIOSV_MSTATUS_CSR, context & NIOSV_MSTATUS_MIE_MASK);
    19a0:	fe442783          	lw	a5,-28(s0)
    19a4:	0087f793          	and	a5,a5,8
    19a8:	3007a073          	csrs	mstatus,a5
}
    19ac:	00000013          	nop
  alt_irq_enable_all (irq_context);
}
    19b0:	00000013          	nop
    19b4:	02c12403          	lw	s0,44(sp)
    19b8:	03010113          	add	sp,sp,48
    19bc:	00008067          	ret

000019c0 <alt_tick>:
 * 
 * alt_tick() is expected to run at interrupt level.
 */

void alt_tick (void)
{
    19c0:	fe010113          	add	sp,sp,-32
    19c4:	00112e23          	sw	ra,28(sp)
    19c8:	00812c23          	sw	s0,24(sp)
    19cc:	01212a23          	sw	s2,20(sp)
    19d0:	01312823          	sw	s3,16(sp)
    19d4:	02010413          	add	s0,sp,32
  alt_alarm* next;
  alt_alarm* alarm = (alt_alarm*) alt_alarm_list.next;
    19d8:	81818793          	add	a5,gp,-2024 # 160f4 <alt_alarm_list>
    19dc:	0007a783          	lw	a5,0(a5)
    19e0:	fef42223          	sw	a5,-28(s0)

  alt_u32    next_callback;

  /* update the tick counter */

  _alt_nticks++;
    19e4:	000187b7          	lui	a5,0x18
    19e8:	a107a703          	lw	a4,-1520(a5) # 17a10 <_alt_nticks>
    19ec:	a147a783          	lw	a5,-1516(a5)
    19f0:	00100513          	li	a0,1
    19f4:	00000593          	li	a1,0
    19f8:	00a70633          	add	a2,a4,a0
    19fc:	00060813          	mv	a6,a2
    1a00:	00e83833          	sltu	a6,a6,a4
    1a04:	00b786b3          	add	a3,a5,a1
    1a08:	00d807b3          	add	a5,a6,a3
    1a0c:	00078693          	mv	a3,a5
    1a10:	00060713          	mv	a4,a2
    1a14:	00068793          	mv	a5,a3
    1a18:	000186b7          	lui	a3,0x18
    1a1c:	a0e6a823          	sw	a4,-1520(a3) # 17a10 <_alt_nticks>
    1a20:	a0f6aa23          	sw	a5,-1516(a3)
 
  /* process the registered callbacks */

  while (alarm != (alt_alarm*) &alt_alarm_list)
    1a24:	0c80006f          	j	1aec <alt_tick+0x12c>
  {
    next = (alt_alarm*) alarm->llist.next;
    1a28:	fe442783          	lw	a5,-28(s0)
    1a2c:	0007a783          	lw	a5,0(a5)
    1a30:	fef42423          	sw	a5,-24(s0)
    
    /* if the alarm period has expired, make the callback */    
    if (alarm->time <= _alt_nticks)
    1a34:	fe442783          	lw	a5,-28(s0)
    1a38:	0087a603          	lw	a2,8(a5)
    1a3c:	00c7a683          	lw	a3,12(a5)
    1a40:	000187b7          	lui	a5,0x18
    1a44:	a107a703          	lw	a4,-1520(a5) # 17a10 <_alt_nticks>
    1a48:	a147a783          	lw	a5,-1516(a5)
    1a4c:	00068513          	mv	a0,a3
    1a50:	00078593          	mv	a1,a5
    1a54:	08a5e863          	bltu	a1,a0,1ae4 <alt_tick+0x124>
    1a58:	00068513          	mv	a0,a3
    1a5c:	00078593          	mv	a1,a5
    1a60:	00b51863          	bne	a0,a1,1a70 <alt_tick+0xb0>
    1a64:	00060693          	mv	a3,a2
    1a68:	00070793          	mv	a5,a4
    1a6c:	06d7ec63          	bltu	a5,a3,1ae4 <alt_tick+0x124>
    {
      next_callback = alarm->callback (alarm->context);
    1a70:	fe442783          	lw	a5,-28(s0)
    1a74:	0107a783          	lw	a5,16(a5)
    1a78:	fe442703          	lw	a4,-28(s0)
    1a7c:	01472703          	lw	a4,20(a4)
    1a80:	00070513          	mv	a0,a4
    1a84:	000780e7          	jalr	a5
    1a88:	fea42623          	sw	a0,-20(s0)

      /* deactivate the alarm if the return value is zero */

      if (next_callback == 0)
    1a8c:	fec42783          	lw	a5,-20(s0)
    1a90:	00079863          	bnez	a5,1aa0 <alt_tick+0xe0>
      {
        alt_alarm_stop (alarm);
    1a94:	fe442503          	lw	a0,-28(s0)
    1a98:	e91ff0ef          	jal	1928 <alt_alarm_stop>
    1a9c:	0480006f          	j	1ae4 <alt_tick+0x124>
      }
      else
      {
        alarm->time += next_callback;
    1aa0:	fe442783          	lw	a5,-28(s0)
    1aa4:	0087a703          	lw	a4,8(a5)
    1aa8:	00c7a783          	lw	a5,12(a5)
    1aac:	fec42683          	lw	a3,-20(s0)
    1ab0:	00068913          	mv	s2,a3
    1ab4:	00000993          	li	s3,0
    1ab8:	01270633          	add	a2,a4,s2
    1abc:	00060593          	mv	a1,a2
    1ac0:	00e5b5b3          	sltu	a1,a1,a4
    1ac4:	013786b3          	add	a3,a5,s3
    1ac8:	00d587b3          	add	a5,a1,a3
    1acc:	00078693          	mv	a3,a5
    1ad0:	00060713          	mv	a4,a2
    1ad4:	00068793          	mv	a5,a3
    1ad8:	fe442683          	lw	a3,-28(s0)
    1adc:	00e6a423          	sw	a4,8(a3)
    1ae0:	00f6a623          	sw	a5,12(a3)
      }
    }
    alarm = next;
    1ae4:	fe842783          	lw	a5,-24(s0)
    1ae8:	fef42223          	sw	a5,-28(s0)
  while (alarm != (alt_alarm*) &alt_alarm_list)
    1aec:	fe442703          	lw	a4,-28(s0)
    1af0:	81818793          	add	a5,gp,-2024 # 160f4 <alt_alarm_list>
    1af4:	f2f71ae3          	bne	a4,a5,1a28 <alt_tick+0x68>

  /* 
   * Update the operating system specific timer facilities.
   */

  ALT_OS_TIME_TICK();
    1af8:	00000013          	nop
}
    1afc:	00000013          	nop
    1b00:	01c12083          	lw	ra,28(sp)
    1b04:	01812403          	lw	s0,24(sp)
    1b08:	01412903          	lw	s2,20(sp)
    1b0c:	01012983          	lw	s3,16(sp)
    1b10:	02010113          	add	sp,sp,32
    1b14:	00008067          	ret

00001b18 <intel_niosv_irq_init>:
/*
 * To initialize the internal interrupt controller, just clear the mie
 * register so that all possible IRQs are disabled.
 */
void intel_niosv_irq_init(void) 
{
    1b18:	ff010113          	add	sp,sp,-16
    1b1c:	00812623          	sw	s0,12(sp)
    1b20:	01010413          	add	s0,sp,16
#if ALT_HAS_IRQ_SUPPORT
    NIOSV_CLR_CSR(NIOSV_MIE_CSR, NIOSV_MIE_MASK);
    1b24:	fff00793          	li	a5,-1
    1b28:	3047b073          	csrc	mie,a5
    NIOSV_WRITE_CSR(NIOSV_MTVEC_CSR, (alt_u32) &VIC_VECTOR_TABLE | ALT_CPU_INT_MODE_VIC);
#endif /* ALT_CPU_INT_MODE == ALT_CPU_INT_MODE_VIC */
#endif /* ALT_CPU_INT_MODE */

#endif
}
    1b2c:	00000013          	nop
    1b30:	00c12403          	lw	s0,12(sp)
    1b34:	01010113          	add	sp,sp,16
    1b38:	00008067          	ret

00001b3c <alt_timestamp_start>:
#define INTEL_NIOSV_TIMER_DEVICE_TYPE 2

#if (ALT_TIMESTAMP_CLK_TIMER_DEVICE_TYPE == INTEL_NIOSV_TIMER_DEVICE_TYPE)
alt_u64 alt_niosv_timestamp_offset = 0;

int alt_timestamp_start() {
    1b3c:	ff010113          	add	sp,sp,-16
    1b40:	00112623          	sw	ra,12(sp)
    1b44:	00812423          	sw	s0,8(sp)
    1b48:	01010413          	add	s0,sp,16
void alt_niosv_timer_sc_isr(alt_u32 cause, alt_u32 epc, alt_u32 tval);

extern alt_u64 alt_niosv_timestamp_offset;

static ALT_INLINE int ALT_ALWAYS_INLINE alt_niosv_timer_timestamp_start() {
    alt_niosv_timestamp_offset = alt_niosv_mtime_get();
    1b4c:	0ac000ef          	jal	1bf8 <alt_niosv_mtime_get>
    1b50:	00050713          	mv	a4,a0
    1b54:	00058793          	mv	a5,a1
    1b58:	000186b7          	lui	a3,0x18
    1b5c:	a0e6ac23          	sw	a4,-1512(a3) # 17a18 <alt_niosv_timestamp_offset>
    1b60:	a0f6ae23          	sw	a5,-1508(a3)
    return 0;
    1b64:	00000793          	li	a5,0
    return alt_niosv_timer_timestamp_start();
}
    1b68:	00078513          	mv	a0,a5
    1b6c:	00c12083          	lw	ra,12(sp)
    1b70:	00812403          	lw	s0,8(sp)
    1b74:	01010113          	add	sp,sp,16
    1b78:	00008067          	ret

00001b7c <alt_timestamp>:

alt_timestamp_type alt_timestamp() {
    1b7c:	ff010113          	add	sp,sp,-16
    1b80:	00112623          	sw	ra,12(sp)
    1b84:	00812423          	sw	s0,8(sp)
    1b88:	01010413          	add	s0,sp,16
}

static ALT_INLINE alt_u64 ALT_ALWAYS_INLINE alt_niosv_timer_timestamp() {
    return alt_niosv_mtime_get() - alt_niosv_timestamp_offset;
    1b8c:	06c000ef          	jal	1bf8 <alt_niosv_mtime_get>
    1b90:	00050613          	mv	a2,a0
    1b94:	00058693          	mv	a3,a1
    1b98:	000187b7          	lui	a5,0x18
    1b9c:	a187a503          	lw	a0,-1512(a5) # 17a18 <alt_niosv_timestamp_offset>
    1ba0:	a1c7a583          	lw	a1,-1508(a5)
    1ba4:	40a60733          	sub	a4,a2,a0
    1ba8:	00070813          	mv	a6,a4
    1bac:	01063833          	sltu	a6,a2,a6
    1bb0:	40b687b3          	sub	a5,a3,a1
    1bb4:	410786b3          	sub	a3,a5,a6
    1bb8:	00068793          	mv	a5,a3
    return alt_niosv_timer_timestamp();
}
    1bbc:	00070513          	mv	a0,a4
    1bc0:	00078593          	mv	a1,a5
    1bc4:	00c12083          	lw	ra,12(sp)
    1bc8:	00812403          	lw	s0,8(sp)
    1bcc:	01010113          	add	sp,sp,16
    1bd0:	00008067          	ret

00001bd4 <alt_timestamp_freq>:

alt_u32 alt_timestamp_freq() {
    1bd4:	ff010113          	add	sp,sp,-16
    1bd8:	00812623          	sw	s0,12(sp)
    1bdc:	01010413          	add	s0,sp,16
}

static ALT_INLINE alt_u32 ALT_ALWAYS_INLINE alt_niosv_timer_timestamp_freq() {
    return ALT_CPU_CPU_FREQ;
    1be0:	02faf7b7          	lui	a5,0x2faf
    1be4:	08078793          	add	a5,a5,128 # 2faf080 <__alt_data_end+0x2f8f080>
    return alt_niosv_timer_timestamp_freq();
}
    1be8:	00078513          	mv	a0,a5
    1bec:	00c12403          	lw	s0,12(sp)
    1bf0:	01010113          	add	sp,sp,16
    1bf4:	00008067          	ret

00001bf8 <alt_niosv_mtime_get>:
#endif

alt_u64 alt_niosv_mtime_get() {
    1bf8:	fe010113          	add	sp,sp,-32
    1bfc:	00812e23          	sw	s0,28(sp)
    1c00:	02010413          	add	s0,sp,32
    alt_u32 lowbits;
    alt_u32 highbits;

    // Guard against rollover while acquiring each word
    do {
        highbits = ALT_VOLATILE_ACCESS((alt_u32 *)(NIOSV_MTIME_ADDR + 4));
    1c04:	00030337          	lui	t1,0x30
    1c08:	00430313          	add	t1,t1,4 # 30004 <__alt_data_end+0x10004>
    1c0c:	00032303          	lw	t1,0(t1)
    1c10:	fe642423          	sw	t1,-24(s0)
        lowbits = ALT_VOLATILE_ACCESS((alt_u32 *)NIOSV_MTIME_ADDR);
    1c14:	00030337          	lui	t1,0x30
    1c18:	00032303          	lw	t1,0(t1) # 30000 <__alt_data_end+0x10000>
    1c1c:	fe642623          	sw	t1,-20(s0)
    } while (ALT_VOLATILE_ACCESS((alt_u32 *)(NIOSV_MTIME_ADDR + 4)) != highbits);
    1c20:	00030337          	lui	t1,0x30
    1c24:	00430313          	add	t1,t1,4 # 30004 <__alt_data_end+0x10004>
    1c28:	00032303          	lw	t1,0(t1)
    1c2c:	fe842e03          	lw	t3,-24(s0)
    1c30:	fc6e1ae3          	bne	t3,t1,1c04 <alt_niosv_mtime_get+0xc>

    return (((alt_u64)highbits) << 32) | lowbits;
    1c34:	fe842303          	lw	t1,-24(s0)
    1c38:	00030813          	mv	a6,t1
    1c3c:	00000893          	li	a7,0
    1c40:	00081793          	sll	a5,a6,0x0
    1c44:	00000713          	li	a4,0
    1c48:	fec42803          	lw	a6,-20(s0)
    1c4c:	00080613          	mv	a2,a6
    1c50:	00000693          	li	a3,0
    1c54:	00c76533          	or	a0,a4,a2
    1c58:	00d7e5b3          	or	a1,a5,a3
    1c5c:	00050713          	mv	a4,a0
    1c60:	00058793          	mv	a5,a1
}
    1c64:	00070513          	mv	a0,a4
    1c68:	00078593          	mv	a1,a5
    1c6c:	01c12403          	lw	s0,28(sp)
    1c70:	02010113          	add	sp,sp,32
    1c74:	00008067          	ret

00001c78 <alt_niosv_mtimecmp_set>:

void alt_niosv_mtimecmp_set(alt_u64 time) {
    1c78:	fd010113          	add	sp,sp,-48
    1c7c:	02812623          	sw	s0,44(sp)
    1c80:	03010413          	add	s0,sp,48
    1c84:	fca42c23          	sw	a0,-40(s0)
    1c88:	fcb42e23          	sw	a1,-36(s0)
    NIOSV_READ_CSR(NIOSV_MHARTID_CSR, mhartid_val);
    1c8c:	f14026f3          	csrr	a3,mhartid
    1c90:	fed42623          	sw	a3,-20(s0)
    return mhartid_val;
    1c94:	fec42603          	lw	a2,-20(s0)
    return (alt_u32 *)(NIOSV_MTIMECMP_ADDR + (8 * alt_niosv_read_mhartid()));
    1c98:	000066b7          	lui	a3,0x6
    1c9c:	00168693          	add	a3,a3,1 # 6001 <_vfprintf_r+0x22d5>
    1ca0:	00d606b3          	add	a3,a2,a3
    1ca4:	00369693          	sll	a3,a3,0x3
    volatile alt_u32 *const mtimecmp_addr = alt_niosv_get_mtimecmp_addr();
    1ca8:	fed42423          	sw	a3,-24(s0)

    // Make sure to set the high word to a max value first to prevent triggering inadvertently
    ALT_VOLATILE_ACCESS((alt_u32 *)(mtimecmp_addr + 1)) = 0xFFFFFFFF;
    1cac:	fe842683          	lw	a3,-24(s0)
    1cb0:	00468693          	add	a3,a3,4
    1cb4:	fff00613          	li	a2,-1
    1cb8:	00c6a023          	sw	a2,0(a3)
    ALT_VOLATILE_ACCESS(mtimecmp_addr) = (alt_u32)time;
    1cbc:	fd842603          	lw	a2,-40(s0)
    1cc0:	fe842683          	lw	a3,-24(s0)
    1cc4:	00c6a023          	sw	a2,0(a3)
    ALT_VOLATILE_ACCESS((alt_u32 *)(mtimecmp_addr + 1)) = (alt_u32)(time >> 32);
    1cc8:	fdc42683          	lw	a3,-36(s0)
    1ccc:	0006d713          	srl	a4,a3,0x0
    1cd0:	00000793          	li	a5,0
    1cd4:	fe842683          	lw	a3,-24(s0)
    1cd8:	00468693          	add	a3,a3,4
    1cdc:	00070793          	mv	a5,a4
    1ce0:	00f6a023          	sw	a5,0(a3)
}
    1ce4:	00000013          	nop
    1ce8:	02c12403          	lw	s0,44(sp)
    1cec:	03010113          	add	sp,sp,48
    1cf0:	00008067          	ret

00001cf4 <alt_niosv_mtimecmp_get>:

alt_u64 alt_niosv_mtimecmp_get() {
    1cf4:	fe010113          	add	sp,sp,-32
    1cf8:	00812e23          	sw	s0,28(sp)
    1cfc:	02010413          	add	s0,sp,32
    NIOSV_READ_CSR(NIOSV_MHARTID_CSR, mhartid_val);
    1d00:	f1402373          	csrr	t1,mhartid
    1d04:	fe642623          	sw	t1,-20(s0)
    return mhartid_val;
    1d08:	fec42e03          	lw	t3,-20(s0)
    return (alt_u32 *)(NIOSV_MTIMECMP_ADDR + (8 * alt_niosv_read_mhartid()));
    1d0c:	00006337          	lui	t1,0x6
    1d10:	00130313          	add	t1,t1,1 # 6001 <_vfprintf_r+0x22d5>
    1d14:	006e0333          	add	t1,t3,t1
    1d18:	00331313          	sll	t1,t1,0x3
    volatile alt_u32 *const mtimecmp_addr = alt_niosv_get_mtimecmp_addr();
    1d1c:	fe642023          	sw	t1,-32(s0)

    alt_u32 lowbits = ALT_VOLATILE_ACCESS(mtimecmp_addr);
    1d20:	fe042303          	lw	t1,-32(s0)
    1d24:	00032303          	lw	t1,0(t1)
    1d28:	fe642223          	sw	t1,-28(s0)
    alt_u32 highbits = ALT_VOLATILE_ACCESS((alt_u32 *)(mtimecmp_addr + 1));
    1d2c:	fe042303          	lw	t1,-32(s0)
    1d30:	00430313          	add	t1,t1,4
    1d34:	00032303          	lw	t1,0(t1)
    1d38:	fe642423          	sw	t1,-24(s0)
    return (((alt_u64)highbits) << 32) | lowbits;
    1d3c:	fe842303          	lw	t1,-24(s0)
    1d40:	00030813          	mv	a6,t1
    1d44:	00000893          	li	a7,0
    1d48:	00081793          	sll	a5,a6,0x0
    1d4c:	00000713          	li	a4,0
    1d50:	fe442803          	lw	a6,-28(s0)
    1d54:	00080613          	mv	a2,a6
    1d58:	00000693          	li	a3,0
    1d5c:	00c76533          	or	a0,a4,a2
    1d60:	00d7e5b3          	or	a1,a5,a3
    1d64:	00050713          	mv	a4,a0
    1d68:	00058793          	mv	a5,a1
}
    1d6c:	00070513          	mv	a0,a4
    1d70:	00078593          	mv	a1,a5
    1d74:	01c12403          	lw	s0,28(sp)
    1d78:	02010113          	add	sp,sp,32
    1d7c:	00008067          	ret

00001d80 <alt_niosv_timer_sc_isr>:
// Let's the OS port handles the machine timer configuration and interrupt if
// the OS port has it (ex: FreeRTOS).
void alt_niosv_timer_sc_isr(alt_u32 cause, alt_u32 epc, alt_u32 tval) {}
void alt_niosv_mtimecmp_interrupt_init() {}
#else
void alt_niosv_timer_sc_isr(alt_u32 cause, alt_u32 epc, alt_u32 tval) {
    1d80:	fc010113          	add	sp,sp,-64
    1d84:	02112e23          	sw	ra,60(sp)
    1d88:	02812c23          	sw	s0,56(sp)
    1d8c:	04010413          	add	s0,sp,64
    1d90:	fca42623          	sw	a0,-52(s0)
    1d94:	fcb42423          	sw	a1,-56(s0)
    1d98:	fcc42223          	sw	a2,-60(s0)
    // Schedule the next interrupt.  This is done first since who knows how long
    // the following code takes, and the contract is ticks per second, irrespective
    // of how long a given clock tick may take.

    alt_u64 curr_time = alt_niosv_mtime_get();
    1d9c:	e5dff0ef          	jal	1bf8 <alt_niosv_mtime_get>
    1da0:	fea42423          	sw	a0,-24(s0)
    1da4:	feb42623          	sw	a1,-20(s0)
    alt_niosv_mtimecmp_set(curr_time + MTIMECMP_DELTA_AMT);
    1da8:	fe842703          	lw	a4,-24(s0)
    1dac:	fec42783          	lw	a5,-20(s0)
    1db0:	0000c537          	lui	a0,0xc
    1db4:	35050513          	add	a0,a0,848 # c350 <_vfiprintf_r+0x4a4>
    1db8:	00000593          	li	a1,0
    1dbc:	00a70633          	add	a2,a4,a0
    1dc0:	00060813          	mv	a6,a2
    1dc4:	00e83833          	sltu	a6,a6,a4
    1dc8:	00b786b3          	add	a3,a5,a1
    1dcc:	00d807b3          	add	a5,a6,a3
    1dd0:	00078693          	mv	a3,a5
    1dd4:	00060713          	mv	a4,a2
    1dd8:	00068793          	mv	a5,a3
    1ddc:	00070513          	mv	a0,a4
    1de0:	00078593          	mv	a1,a5
    1de4:	e95ff0ef          	jal	1c78 <alt_niosv_mtimecmp_set>
    NIOSV_READ_AND_CLR_CSR(NIOSV_MSTATUS_CSR, context, NIOSV_MSTATUS_MIE_MASK);
    1de8:	00800793          	li	a5,8
    1dec:	3007b7f3          	csrrc	a5,mstatus,a5
    1df0:	fef42223          	sw	a5,-28(s0)
    return context;
    1df4:	fe442783          	lw	a5,-28(s0)

    /* 
    * Notify the system of a clock tick. disable interrupts 
    * during this time to safely support ISR preemption
    */
    alt_irq_context cpu_sr = alt_irq_disable_all();
    1df8:	fcf42e23          	sw	a5,-36(s0)
    alt_tick();
    1dfc:	bc5ff0ef          	jal	19c0 <alt_tick>
    1e00:	fdc42783          	lw	a5,-36(s0)
    1e04:	fef42023          	sw	a5,-32(s0)
    NIOSV_SET_CSR(NIOSV_MSTATUS_CSR, context & NIOSV_MSTATUS_MIE_MASK);
    1e08:	fe042783          	lw	a5,-32(s0)
    1e0c:	0087f793          	and	a5,a5,8
    1e10:	3007a073          	csrs	mstatus,a5
}
    1e14:	00000013          	nop
    alt_irq_enable_all(cpu_sr);
}
    1e18:	00000013          	nop
    1e1c:	03c12083          	lw	ra,60(sp)
    1e20:	03812403          	lw	s0,56(sp)
    1e24:	04010113          	add	sp,sp,64
    1e28:	00008067          	ret

00001e2c <alt_niosv_mtimecmp_interrupt_init>:

void alt_niosv_mtimecmp_interrupt_init() {
    1e2c:	fe010113          	add	sp,sp,-32
    1e30:	00112e23          	sw	ra,28(sp)
    1e34:	00812c23          	sw	s0,24(sp)
    1e38:	02010413          	add	s0,sp,32
    alt_u64 curr_time = alt_niosv_mtime_get();
    1e3c:	dbdff0ef          	jal	1bf8 <alt_niosv_mtime_get>
    1e40:	fea42423          	sw	a0,-24(s0)
    1e44:	feb42623          	sw	a1,-20(s0)
    alt_niosv_mtimecmp_set(curr_time + MTIMECMP_DELTA_AMT);
    1e48:	fe842703          	lw	a4,-24(s0)
    1e4c:	fec42783          	lw	a5,-20(s0)
    1e50:	0000c537          	lui	a0,0xc
    1e54:	35050513          	add	a0,a0,848 # c350 <_vfiprintf_r+0x4a4>
    1e58:	00000593          	li	a1,0
    1e5c:	00a70633          	add	a2,a4,a0
    1e60:	00060813          	mv	a6,a2
    1e64:	00e83833          	sltu	a6,a6,a4
    1e68:	00b786b3          	add	a3,a5,a1
    1e6c:	00d807b3          	add	a5,a6,a3
    1e70:	00078693          	mv	a3,a5
    1e74:	00060713          	mv	a4,a2
    1e78:	00068793          	mv	a5,a3
    1e7c:	00070513          	mv	a0,a4
    1e80:	00078593          	mv	a1,a5
    1e84:	df5ff0ef          	jal	1c78 <alt_niosv_mtimecmp_set>
    NIOSV_SET_CSR(NIOSV_MIE_CSR, (0x1 << NIOSV_TIMER_IRQ));
    1e88:	08000793          	li	a5,128
    1e8c:	3047a073          	csrs	mie,a5
}
    1e90:	00000013          	nop
    alt_niosv_enable_timer_interrupt();
}
    1e94:	00000013          	nop
    1e98:	01c12083          	lw	ra,28(sp)
    1e9c:	01812403          	lw	s0,24(sp)
    1ea0:	02010113          	add	sp,sp,32
    1ea4:	00008067          	ret

00001ea8 <atexit>:
    1ea8:	00050593          	mv	a1,a0
    1eac:	00000693          	li	a3,0
    1eb0:	00000613          	li	a2,0
    1eb4:	00000513          	li	a0,0
    1eb8:	7c90006f          	j	2e80 <__register_exitproc>

00001ebc <exit>:
    1ebc:	ff010113          	add	sp,sp,-16
    1ec0:	00000593          	li	a1,0
    1ec4:	00812423          	sw	s0,8(sp)
    1ec8:	00112623          	sw	ra,12(sp)
    1ecc:	00050413          	mv	s0,a0
    1ed0:	09c010ef          	jal	2f6c <__call_exitprocs>
    1ed4:	00016797          	auipc	a5,0x16
    1ed8:	b4c7a783          	lw	a5,-1204(a5) # 17a20 <__stdio_exit_handler>
    1edc:	00078463          	beqz	a5,1ee4 <exit+0x28>
    1ee0:	000780e7          	jalr	a5
    1ee4:	00040513          	mv	a0,s0
    1ee8:	0c8110ef          	jal	12fb0 <_exit>

00001eec <stdio_exit_handler>:
    1eec:	00014617          	auipc	a2,0x14
    1ef0:	b4c60613          	add	a2,a2,-1204 # 15a38 <__sglue>
    1ef4:	00005597          	auipc	a1,0x5
    1ef8:	95458593          	add	a1,a1,-1708 # 6848 <_fclose_r>
    1efc:	00014517          	auipc	a0,0x14
    1f00:	b4c50513          	add	a0,a0,-1204 # 15a48 <_impure_data>
    1f04:	4cc0006f          	j	23d0 <_fwalk_sglue>

00001f08 <cleanup_stdio>:
    1f08:	00452583          	lw	a1,4(a0)
    1f0c:	ff010113          	add	sp,sp,-16
    1f10:	00812423          	sw	s0,8(sp)
    1f14:	00112623          	sw	ra,12(sp)
    1f18:	00016797          	auipc	a5,0x16
    1f1c:	bc878793          	add	a5,a5,-1080 # 17ae0 <__sf>
    1f20:	00050413          	mv	s0,a0
    1f24:	00f58463          	beq	a1,a5,1f2c <cleanup_stdio+0x24>
    1f28:	121040ef          	jal	6848 <_fclose_r>
    1f2c:	00842583          	lw	a1,8(s0)
    1f30:	00016797          	auipc	a5,0x16
    1f34:	c1878793          	add	a5,a5,-1000 # 17b48 <__sf+0x68>
    1f38:	00f58663          	beq	a1,a5,1f44 <cleanup_stdio+0x3c>
    1f3c:	00040513          	mv	a0,s0
    1f40:	109040ef          	jal	6848 <_fclose_r>
    1f44:	00c42583          	lw	a1,12(s0)
    1f48:	00016797          	auipc	a5,0x16
    1f4c:	c6878793          	add	a5,a5,-920 # 17bb0 <__sf+0xd0>
    1f50:	00f58c63          	beq	a1,a5,1f68 <cleanup_stdio+0x60>
    1f54:	00040513          	mv	a0,s0
    1f58:	00812403          	lw	s0,8(sp)
    1f5c:	00c12083          	lw	ra,12(sp)
    1f60:	01010113          	add	sp,sp,16
    1f64:	0e50406f          	j	6848 <_fclose_r>
    1f68:	00c12083          	lw	ra,12(sp)
    1f6c:	00812403          	lw	s0,8(sp)
    1f70:	01010113          	add	sp,sp,16
    1f74:	00008067          	ret

00001f78 <__fp_lock>:
    1f78:	0645a783          	lw	a5,100(a1)
    1f7c:	0017f793          	and	a5,a5,1
    1f80:	00079863          	bnez	a5,1f90 <__fp_lock+0x18>
    1f84:	00c5d783          	lhu	a5,12(a1)
    1f88:	2007f793          	and	a5,a5,512
    1f8c:	00078663          	beqz	a5,1f98 <__fp_lock+0x20>
    1f90:	00000513          	li	a0,0
    1f94:	00008067          	ret
    1f98:	0585a503          	lw	a0,88(a1)
    1f9c:	ff010113          	add	sp,sp,-16
    1fa0:	00112623          	sw	ra,12(sp)
    1fa4:	3ed000ef          	jal	2b90 <__retarget_lock_acquire_recursive>
    1fa8:	00c12083          	lw	ra,12(sp)
    1fac:	00000513          	li	a0,0
    1fb0:	01010113          	add	sp,sp,16
    1fb4:	00008067          	ret

00001fb8 <__fp_unlock>:
    1fb8:	0645a783          	lw	a5,100(a1)
    1fbc:	0017f793          	and	a5,a5,1
    1fc0:	00079863          	bnez	a5,1fd0 <__fp_unlock+0x18>
    1fc4:	00c5d783          	lhu	a5,12(a1)
    1fc8:	2007f793          	and	a5,a5,512
    1fcc:	00078663          	beqz	a5,1fd8 <__fp_unlock+0x20>
    1fd0:	00000513          	li	a0,0
    1fd4:	00008067          	ret
    1fd8:	0585a503          	lw	a0,88(a1)
    1fdc:	ff010113          	add	sp,sp,-16
    1fe0:	00112623          	sw	ra,12(sp)
    1fe4:	3c5000ef          	jal	2ba8 <__retarget_lock_release_recursive>
    1fe8:	00c12083          	lw	ra,12(sp)
    1fec:	00000513          	li	a0,0
    1ff0:	01010113          	add	sp,sp,16
    1ff4:	00008067          	ret

00001ff8 <global_stdio_init.part.0>:
    1ff8:	fe010113          	add	sp,sp,-32
    1ffc:	00000797          	auipc	a5,0x0
    2000:	ef078793          	add	a5,a5,-272 # 1eec <stdio_exit_handler>
    2004:	00112e23          	sw	ra,28(sp)
    2008:	00812c23          	sw	s0,24(sp)
    200c:	00912a23          	sw	s1,20(sp)
    2010:	00016417          	auipc	s0,0x16
    2014:	ad040413          	add	s0,s0,-1328 # 17ae0 <__sf>
    2018:	01212823          	sw	s2,16(sp)
    201c:	01312623          	sw	s3,12(sp)
    2020:	01412423          	sw	s4,8(sp)
    2024:	00800613          	li	a2,8
    2028:	00000593          	li	a1,0
    202c:	00016717          	auipc	a4,0x16
    2030:	9ef72a23          	sw	a5,-1548(a4) # 17a20 <__stdio_exit_handler>
    2034:	00016517          	auipc	a0,0x16
    2038:	b0850513          	add	a0,a0,-1272 # 17b3c <__sf+0x5c>
    203c:	00400793          	li	a5,4
    2040:	00f42623          	sw	a5,12(s0)
    2044:	00042023          	sw	zero,0(s0)
    2048:	00042223          	sw	zero,4(s0)
    204c:	00042423          	sw	zero,8(s0)
    2050:	06042223          	sw	zero,100(s0)
    2054:	00042823          	sw	zero,16(s0)
    2058:	00042a23          	sw	zero,20(s0)
    205c:	00042c23          	sw	zero,24(s0)
    2060:	3a1000ef          	jal	2c00 <memset>
    2064:	00000a17          	auipc	s4,0x0
    2068:	744a0a13          	add	s4,s4,1860 # 27a8 <__sread>
    206c:	00000997          	auipc	s3,0x0
    2070:	7a098993          	add	s3,s3,1952 # 280c <__swrite>
    2074:	00001917          	auipc	s2,0x1
    2078:	82090913          	add	s2,s2,-2016 # 2894 <__sseek>
    207c:	00001497          	auipc	s1,0x1
    2080:	89048493          	add	s1,s1,-1904 # 290c <__sclose>
    2084:	00016517          	auipc	a0,0x16
    2088:	ab450513          	add	a0,a0,-1356 # 17b38 <__sf+0x58>
    208c:	03442023          	sw	s4,32(s0)
    2090:	03342223          	sw	s3,36(s0)
    2094:	03242423          	sw	s2,40(s0)
    2098:	02942623          	sw	s1,44(s0)
    209c:	00842e23          	sw	s0,28(s0)
    20a0:	2e1000ef          	jal	2b80 <__retarget_lock_init_recursive>
    20a4:	000107b7          	lui	a5,0x10
    20a8:	00878793          	add	a5,a5,8 # 10008 <__multf3+0xd0>
    20ac:	00800613          	li	a2,8
    20b0:	00000593          	li	a1,0
    20b4:	00016517          	auipc	a0,0x16
    20b8:	af050513          	add	a0,a0,-1296 # 17ba4 <__sf+0xc4>
    20bc:	06f42a23          	sw	a5,116(s0)
    20c0:	06042423          	sw	zero,104(s0)
    20c4:	06042623          	sw	zero,108(s0)
    20c8:	06042823          	sw	zero,112(s0)
    20cc:	0c042623          	sw	zero,204(s0)
    20d0:	06042c23          	sw	zero,120(s0)
    20d4:	06042e23          	sw	zero,124(s0)
    20d8:	08042023          	sw	zero,128(s0)
    20dc:	325000ef          	jal	2c00 <memset>
    20e0:	00016797          	auipc	a5,0x16
    20e4:	a6878793          	add	a5,a5,-1432 # 17b48 <__sf+0x68>
    20e8:	00016517          	auipc	a0,0x16
    20ec:	ab850513          	add	a0,a0,-1352 # 17ba0 <__sf+0xc0>
    20f0:	08f42223          	sw	a5,132(s0)
    20f4:	09442423          	sw	s4,136(s0)
    20f8:	09342623          	sw	s3,140(s0)
    20fc:	09242823          	sw	s2,144(s0)
    2100:	08942a23          	sw	s1,148(s0)
    2104:	27d000ef          	jal	2b80 <__retarget_lock_init_recursive>
    2108:	000207b7          	lui	a5,0x20
    210c:	01278793          	add	a5,a5,18 # 20012 <__alt_data_end+0x12>
    2110:	00800613          	li	a2,8
    2114:	00000593          	li	a1,0
    2118:	00016517          	auipc	a0,0x16
    211c:	af450513          	add	a0,a0,-1292 # 17c0c <__sf+0x12c>
    2120:	0cf42e23          	sw	a5,220(s0)
    2124:	0c042823          	sw	zero,208(s0)
    2128:	0c042a23          	sw	zero,212(s0)
    212c:	0c042c23          	sw	zero,216(s0)
    2130:	12042a23          	sw	zero,308(s0)
    2134:	0e042023          	sw	zero,224(s0)
    2138:	0e042223          	sw	zero,228(s0)
    213c:	0e042423          	sw	zero,232(s0)
    2140:	2c1000ef          	jal	2c00 <memset>
    2144:	00016797          	auipc	a5,0x16
    2148:	a6c78793          	add	a5,a5,-1428 # 17bb0 <__sf+0xd0>
    214c:	0f442823          	sw	s4,240(s0)
    2150:	0f342a23          	sw	s3,244(s0)
    2154:	0f242c23          	sw	s2,248(s0)
    2158:	0e942e23          	sw	s1,252(s0)
    215c:	0ef42623          	sw	a5,236(s0)
    2160:	01812403          	lw	s0,24(sp)
    2164:	01c12083          	lw	ra,28(sp)
    2168:	01412483          	lw	s1,20(sp)
    216c:	01012903          	lw	s2,16(sp)
    2170:	00c12983          	lw	s3,12(sp)
    2174:	00812a03          	lw	s4,8(sp)
    2178:	00016517          	auipc	a0,0x16
    217c:	a9050513          	add	a0,a0,-1392 # 17c08 <__sf+0x128>
    2180:	02010113          	add	sp,sp,32
    2184:	1fd0006f          	j	2b80 <__retarget_lock_init_recursive>

00002188 <__sfp>:
    2188:	fe010113          	add	sp,sp,-32
    218c:	01312623          	sw	s3,12(sp)
    2190:	00050993          	mv	s3,a0
    2194:	00016517          	auipc	a0,0x16
    2198:	8b050513          	add	a0,a0,-1872 # 17a44 <__lock___sfp_recursive_mutex>
    219c:	00112e23          	sw	ra,28(sp)
    21a0:	00812c23          	sw	s0,24(sp)
    21a4:	00912a23          	sw	s1,20(sp)
    21a8:	01212823          	sw	s2,16(sp)
    21ac:	1e5000ef          	jal	2b90 <__retarget_lock_acquire_recursive>
    21b0:	00016797          	auipc	a5,0x16
    21b4:	8707a783          	lw	a5,-1936(a5) # 17a20 <__stdio_exit_handler>
    21b8:	10078263          	beqz	a5,22bc <__sfp+0x134>
    21bc:	00014917          	auipc	s2,0x14
    21c0:	87c90913          	add	s2,s2,-1924 # 15a38 <__sglue>
    21c4:	fff00493          	li	s1,-1
    21c8:	00492783          	lw	a5,4(s2)
    21cc:	00892403          	lw	s0,8(s2)
    21d0:	fff78793          	add	a5,a5,-1
    21d4:	0007d863          	bgez	a5,21e4 <__sfp+0x5c>
    21d8:	0940006f          	j	226c <__sfp+0xe4>
    21dc:	06840413          	add	s0,s0,104
    21e0:	08978663          	beq	a5,s1,226c <__sfp+0xe4>
    21e4:	00c41703          	lh	a4,12(s0)
    21e8:	fff78793          	add	a5,a5,-1
    21ec:	fe0718e3          	bnez	a4,21dc <__sfp+0x54>
    21f0:	ffff07b7          	lui	a5,0xffff0
    21f4:	00178793          	add	a5,a5,1 # ffff0001 <__alt_data_end+0xfffd0001>
    21f8:	00f42623          	sw	a5,12(s0)
    21fc:	05840513          	add	a0,s0,88
    2200:	06042223          	sw	zero,100(s0)
    2204:	17d000ef          	jal	2b80 <__retarget_lock_init_recursive>
    2208:	00016517          	auipc	a0,0x16
    220c:	83c50513          	add	a0,a0,-1988 # 17a44 <__lock___sfp_recursive_mutex>
    2210:	199000ef          	jal	2ba8 <__retarget_lock_release_recursive>
    2214:	00800613          	li	a2,8
    2218:	00042023          	sw	zero,0(s0)
    221c:	00042423          	sw	zero,8(s0)
    2220:	00042223          	sw	zero,4(s0)
    2224:	00042823          	sw	zero,16(s0)
    2228:	00042a23          	sw	zero,20(s0)
    222c:	00042c23          	sw	zero,24(s0)
    2230:	00000593          	li	a1,0
    2234:	05c40513          	add	a0,s0,92
    2238:	1c9000ef          	jal	2c00 <memset>
    223c:	02042823          	sw	zero,48(s0)
    2240:	02042a23          	sw	zero,52(s0)
    2244:	04042223          	sw	zero,68(s0)
    2248:	04042423          	sw	zero,72(s0)
    224c:	01c12083          	lw	ra,28(sp)
    2250:	00040513          	mv	a0,s0
    2254:	01812403          	lw	s0,24(sp)
    2258:	01412483          	lw	s1,20(sp)
    225c:	01012903          	lw	s2,16(sp)
    2260:	00c12983          	lw	s3,12(sp)
    2264:	02010113          	add	sp,sp,32
    2268:	00008067          	ret
    226c:	00092403          	lw	s0,0(s2)
    2270:	00040663          	beqz	s0,227c <__sfp+0xf4>
    2274:	00040913          	mv	s2,s0
    2278:	f51ff06f          	j	21c8 <__sfp+0x40>
    227c:	1ac00593          	li	a1,428
    2280:	00098513          	mv	a0,s3
    2284:	2b4010ef          	jal	3538 <_malloc_r>
    2288:	00050413          	mv	s0,a0
    228c:	02050c63          	beqz	a0,22c4 <__sfp+0x13c>
    2290:	00c50513          	add	a0,a0,12
    2294:	00400793          	li	a5,4
    2298:	00042023          	sw	zero,0(s0)
    229c:	00f42223          	sw	a5,4(s0)
    22a0:	00a42423          	sw	a0,8(s0)
    22a4:	1a000613          	li	a2,416
    22a8:	00000593          	li	a1,0
    22ac:	155000ef          	jal	2c00 <memset>
    22b0:	00892023          	sw	s0,0(s2)
    22b4:	00040913          	mv	s2,s0
    22b8:	f11ff06f          	j	21c8 <__sfp+0x40>
    22bc:	d3dff0ef          	jal	1ff8 <global_stdio_init.part.0>
    22c0:	efdff06f          	j	21bc <__sfp+0x34>
    22c4:	00092023          	sw	zero,0(s2)
    22c8:	00015517          	auipc	a0,0x15
    22cc:	77c50513          	add	a0,a0,1916 # 17a44 <__lock___sfp_recursive_mutex>
    22d0:	0d9000ef          	jal	2ba8 <__retarget_lock_release_recursive>
    22d4:	00c00793          	li	a5,12
    22d8:	00f9a023          	sw	a5,0(s3)
    22dc:	f71ff06f          	j	224c <__sfp+0xc4>

000022e0 <__sinit>:
    22e0:	ff010113          	add	sp,sp,-16
    22e4:	00812423          	sw	s0,8(sp)
    22e8:	00050413          	mv	s0,a0
    22ec:	00015517          	auipc	a0,0x15
    22f0:	75850513          	add	a0,a0,1880 # 17a44 <__lock___sfp_recursive_mutex>
    22f4:	00112623          	sw	ra,12(sp)
    22f8:	099000ef          	jal	2b90 <__retarget_lock_acquire_recursive>
    22fc:	03442783          	lw	a5,52(s0)
    2300:	00079e63          	bnez	a5,231c <__sinit+0x3c>
    2304:	00000797          	auipc	a5,0x0
    2308:	c0478793          	add	a5,a5,-1020 # 1f08 <cleanup_stdio>
    230c:	02f42a23          	sw	a5,52(s0)
    2310:	00015797          	auipc	a5,0x15
    2314:	7107a783          	lw	a5,1808(a5) # 17a20 <__stdio_exit_handler>
    2318:	00078e63          	beqz	a5,2334 <__sinit+0x54>
    231c:	00812403          	lw	s0,8(sp)
    2320:	00c12083          	lw	ra,12(sp)
    2324:	00015517          	auipc	a0,0x15
    2328:	72050513          	add	a0,a0,1824 # 17a44 <__lock___sfp_recursive_mutex>
    232c:	01010113          	add	sp,sp,16
    2330:	0790006f          	j	2ba8 <__retarget_lock_release_recursive>
    2334:	cc5ff0ef          	jal	1ff8 <global_stdio_init.part.0>
    2338:	00812403          	lw	s0,8(sp)
    233c:	00c12083          	lw	ra,12(sp)
    2340:	00015517          	auipc	a0,0x15
    2344:	70450513          	add	a0,a0,1796 # 17a44 <__lock___sfp_recursive_mutex>
    2348:	01010113          	add	sp,sp,16
    234c:	05d0006f          	j	2ba8 <__retarget_lock_release_recursive>

00002350 <__sfp_lock_acquire>:
    2350:	00015517          	auipc	a0,0x15
    2354:	6f450513          	add	a0,a0,1780 # 17a44 <__lock___sfp_recursive_mutex>
    2358:	0390006f          	j	2b90 <__retarget_lock_acquire_recursive>

0000235c <__sfp_lock_release>:
    235c:	00015517          	auipc	a0,0x15
    2360:	6e850513          	add	a0,a0,1768 # 17a44 <__lock___sfp_recursive_mutex>
    2364:	0450006f          	j	2ba8 <__retarget_lock_release_recursive>

00002368 <__fp_lock_all>:
    2368:	ff010113          	add	sp,sp,-16
    236c:	00015517          	auipc	a0,0x15
    2370:	6d850513          	add	a0,a0,1752 # 17a44 <__lock___sfp_recursive_mutex>
    2374:	00112623          	sw	ra,12(sp)
    2378:	019000ef          	jal	2b90 <__retarget_lock_acquire_recursive>
    237c:	00c12083          	lw	ra,12(sp)
    2380:	00013617          	auipc	a2,0x13
    2384:	6b860613          	add	a2,a2,1720 # 15a38 <__sglue>
    2388:	00000597          	auipc	a1,0x0
    238c:	bf058593          	add	a1,a1,-1040 # 1f78 <__fp_lock>
    2390:	00000513          	li	a0,0
    2394:	01010113          	add	sp,sp,16
    2398:	0380006f          	j	23d0 <_fwalk_sglue>

0000239c <__fp_unlock_all>:
    239c:	ff010113          	add	sp,sp,-16
    23a0:	00013617          	auipc	a2,0x13
    23a4:	69860613          	add	a2,a2,1688 # 15a38 <__sglue>
    23a8:	00000597          	auipc	a1,0x0
    23ac:	c1058593          	add	a1,a1,-1008 # 1fb8 <__fp_unlock>
    23b0:	00000513          	li	a0,0
    23b4:	00112623          	sw	ra,12(sp)
    23b8:	018000ef          	jal	23d0 <_fwalk_sglue>
    23bc:	00c12083          	lw	ra,12(sp)
    23c0:	00015517          	auipc	a0,0x15
    23c4:	68450513          	add	a0,a0,1668 # 17a44 <__lock___sfp_recursive_mutex>
    23c8:	01010113          	add	sp,sp,16
    23cc:	7dc0006f          	j	2ba8 <__retarget_lock_release_recursive>

000023d0 <_fwalk_sglue>:
    23d0:	fd010113          	add	sp,sp,-48
    23d4:	03212023          	sw	s2,32(sp)
    23d8:	01312e23          	sw	s3,28(sp)
    23dc:	01412c23          	sw	s4,24(sp)
    23e0:	01512a23          	sw	s5,20(sp)
    23e4:	01612823          	sw	s6,16(sp)
    23e8:	01712623          	sw	s7,12(sp)
    23ec:	02112623          	sw	ra,44(sp)
    23f0:	02812423          	sw	s0,40(sp)
    23f4:	02912223          	sw	s1,36(sp)
    23f8:	00050b13          	mv	s6,a0
    23fc:	00058b93          	mv	s7,a1
    2400:	00060a93          	mv	s5,a2
    2404:	00000a13          	li	s4,0
    2408:	00100993          	li	s3,1
    240c:	fff00913          	li	s2,-1
    2410:	004aa483          	lw	s1,4(s5)
    2414:	008aa403          	lw	s0,8(s5)
    2418:	fff48493          	add	s1,s1,-1
    241c:	0204c863          	bltz	s1,244c <_fwalk_sglue+0x7c>
    2420:	00c45783          	lhu	a5,12(s0)
    2424:	00f9fe63          	bgeu	s3,a5,2440 <_fwalk_sglue+0x70>
    2428:	00e41783          	lh	a5,14(s0)
    242c:	00040593          	mv	a1,s0
    2430:	000b0513          	mv	a0,s6
    2434:	01278663          	beq	a5,s2,2440 <_fwalk_sglue+0x70>
    2438:	000b80e7          	jalr	s7
    243c:	00aa6a33          	or	s4,s4,a0
    2440:	fff48493          	add	s1,s1,-1
    2444:	06840413          	add	s0,s0,104
    2448:	fd249ce3          	bne	s1,s2,2420 <_fwalk_sglue+0x50>
    244c:	000aaa83          	lw	s5,0(s5)
    2450:	fc0a90e3          	bnez	s5,2410 <_fwalk_sglue+0x40>
    2454:	02c12083          	lw	ra,44(sp)
    2458:	02812403          	lw	s0,40(sp)
    245c:	02412483          	lw	s1,36(sp)
    2460:	02012903          	lw	s2,32(sp)
    2464:	01c12983          	lw	s3,28(sp)
    2468:	01412a83          	lw	s5,20(sp)
    246c:	01012b03          	lw	s6,16(sp)
    2470:	00c12b83          	lw	s7,12(sp)
    2474:	000a0513          	mv	a0,s4
    2478:	01812a03          	lw	s4,24(sp)
    247c:	03010113          	add	sp,sp,48
    2480:	00008067          	ret

00002484 <_printf_r>:
    2484:	fc010113          	add	sp,sp,-64
    2488:	02c12423          	sw	a2,40(sp)
    248c:	02d12623          	sw	a3,44(sp)
    2490:	02e12823          	sw	a4,48(sp)
    2494:	02f12a23          	sw	a5,52(sp)
    2498:	03012c23          	sw	a6,56(sp)
    249c:	03112e23          	sw	a7,60(sp)
    24a0:	00058613          	mv	a2,a1
    24a4:	00852583          	lw	a1,8(a0)
    24a8:	02810693          	add	a3,sp,40
    24ac:	00112e23          	sw	ra,28(sp)
    24b0:	00d12623          	sw	a3,12(sp)
    24b4:	079010ef          	jal	3d2c <_vfprintf_r>
    24b8:	01c12083          	lw	ra,28(sp)
    24bc:	04010113          	add	sp,sp,64
    24c0:	00008067          	ret

000024c4 <printf>:
    24c4:	fc010113          	add	sp,sp,-64
    24c8:	02c12423          	sw	a2,40(sp)
    24cc:	02d12623          	sw	a3,44(sp)
    24d0:	8201a303          	lw	t1,-2016(gp) # 160fc <_impure_ptr>
    24d4:	02b12223          	sw	a1,36(sp)
    24d8:	02e12823          	sw	a4,48(sp)
    24dc:	02f12a23          	sw	a5,52(sp)
    24e0:	03012c23          	sw	a6,56(sp)
    24e4:	03112e23          	sw	a7,60(sp)
    24e8:	00832583          	lw	a1,8(t1)
    24ec:	02410693          	add	a3,sp,36
    24f0:	00050613          	mv	a2,a0
    24f4:	00030513          	mv	a0,t1
    24f8:	00112e23          	sw	ra,28(sp)
    24fc:	00d12623          	sw	a3,12(sp)
    2500:	02d010ef          	jal	3d2c <_vfprintf_r>
    2504:	01c12083          	lw	ra,28(sp)
    2508:	04010113          	add	sp,sp,64
    250c:	00008067          	ret

00002510 <setvbuf>:
    2510:	fd010113          	add	sp,sp,-48
    2514:	02812423          	sw	s0,40(sp)
    2518:	02912223          	sw	s1,36(sp)
    251c:	03212023          	sw	s2,32(sp)
    2520:	01312e23          	sw	s3,28(sp)
    2524:	01412c23          	sw	s4,24(sp)
    2528:	02112623          	sw	ra,44(sp)
    252c:	8201aa03          	lw	s4,-2016(gp) # 160fc <_impure_ptr>
    2530:	00050413          	mv	s0,a0
    2534:	00058913          	mv	s2,a1
    2538:	00060993          	mv	s3,a2
    253c:	00068493          	mv	s1,a3
    2540:	000a0663          	beqz	s4,254c <setvbuf+0x3c>
    2544:	034a2783          	lw	a5,52(s4)
    2548:	20078a63          	beqz	a5,275c <setvbuf+0x24c>
    254c:	00200793          	li	a5,2
    2550:	00f98863          	beq	s3,a5,2560 <setvbuf+0x50>
    2554:	00100793          	li	a5,1
    2558:	2137e863          	bltu	a5,s3,2768 <setvbuf+0x258>
    255c:	2004c663          	bltz	s1,2768 <setvbuf+0x258>
    2560:	06442783          	lw	a5,100(s0)
    2564:	0017f793          	and	a5,a5,1
    2568:	10078863          	beqz	a5,2678 <setvbuf+0x168>
    256c:	00040593          	mv	a1,s0
    2570:	000a0513          	mv	a0,s4
    2574:	69c040ef          	jal	6c10 <_fflush_r>
    2578:	03042583          	lw	a1,48(s0)
    257c:	00058c63          	beqz	a1,2594 <setvbuf+0x84>
    2580:	04040793          	add	a5,s0,64
    2584:	00f58663          	beq	a1,a5,2590 <setvbuf+0x80>
    2588:	000a0513          	mv	a0,s4
    258c:	48d000ef          	jal	3218 <_free_r>
    2590:	02042823          	sw	zero,48(s0)
    2594:	00c41783          	lh	a5,12(s0)
    2598:	00042c23          	sw	zero,24(s0)
    259c:	00042223          	sw	zero,4(s0)
    25a0:	0807f713          	and	a4,a5,128
    25a4:	14071263          	bnez	a4,26e8 <setvbuf+0x1d8>
    25a8:	fffff737          	lui	a4,0xfffff
    25ac:	35c70713          	add	a4,a4,860 # fffff35c <__alt_data_end+0xfffdf35c>
    25b0:	00e7f7b3          	and	a5,a5,a4
    25b4:	00f41623          	sh	a5,12(s0)
    25b8:	00200713          	li	a4,2
    25bc:	14e98a63          	beq	s3,a4,2710 <setvbuf+0x200>
    25c0:	00c10693          	add	a3,sp,12
    25c4:	00810613          	add	a2,sp,8
    25c8:	00040593          	mv	a1,s0
    25cc:	000a0513          	mv	a0,s4
    25d0:	699040ef          	jal	7468 <__swhatbuf_r>
    25d4:	00c45783          	lhu	a5,12(s0)
    25d8:	00a7e7b3          	or	a5,a5,a0
    25dc:	00f41623          	sh	a5,12(s0)
    25e0:	0a048863          	beqz	s1,2690 <setvbuf+0x180>
    25e4:	0a090863          	beqz	s2,2694 <setvbuf+0x184>
    25e8:	034a2783          	lw	a5,52(s4)
    25ec:	0c078663          	beqz	a5,26b8 <setvbuf+0x1a8>
    25f0:	00812703          	lw	a4,8(sp)
    25f4:	00c41783          	lh	a5,12(s0)
    25f8:	00970a63          	beq	a4,s1,260c <setvbuf+0xfc>
    25fc:	00001737          	lui	a4,0x1
    2600:	80070713          	add	a4,a4,-2048 # 800 <altera_avalon_jtag_uart_init+0x60>
    2604:	00e7e7b3          	or	a5,a5,a4
    2608:	00f41623          	sh	a5,12(s0)
    260c:	00100713          	li	a4,1
    2610:	00e99663          	bne	s3,a4,261c <setvbuf+0x10c>
    2614:	0017e793          	or	a5,a5,1
    2618:	00f41623          	sh	a5,12(s0)
    261c:	01242023          	sw	s2,0(s0)
    2620:	01242823          	sw	s2,16(s0)
    2624:	00942a23          	sw	s1,20(s0)
    2628:	0087f713          	and	a4,a5,8
    262c:	08070c63          	beqz	a4,26c4 <setvbuf+0x1b4>
    2630:	0017f713          	and	a4,a5,1
    2634:	12070063          	beqz	a4,2754 <setvbuf+0x244>
    2638:	06442703          	lw	a4,100(s0)
    263c:	409004b3          	neg	s1,s1
    2640:	00042423          	sw	zero,8(s0)
    2644:	00942c23          	sw	s1,24(s0)
    2648:	00177713          	and	a4,a4,1
    264c:	08070463          	beqz	a4,26d4 <setvbuf+0x1c4>
    2650:	00000493          	li	s1,0
    2654:	02c12083          	lw	ra,44(sp)
    2658:	02812403          	lw	s0,40(sp)
    265c:	02012903          	lw	s2,32(sp)
    2660:	01c12983          	lw	s3,28(sp)
    2664:	01812a03          	lw	s4,24(sp)
    2668:	00048513          	mv	a0,s1
    266c:	02412483          	lw	s1,36(sp)
    2670:	03010113          	add	sp,sp,48
    2674:	00008067          	ret
    2678:	00c45783          	lhu	a5,12(s0)
    267c:	2007f793          	and	a5,a5,512
    2680:	ee0796e3          	bnez	a5,256c <setvbuf+0x5c>
    2684:	05842503          	lw	a0,88(s0)
    2688:	508000ef          	jal	2b90 <__retarget_lock_acquire_recursive>
    268c:	ee1ff06f          	j	256c <setvbuf+0x5c>
    2690:	00812483          	lw	s1,8(sp)
    2694:	00048513          	mv	a0,s1
    2698:	689000ef          	jal	3520 <malloc>
    269c:	00050913          	mv	s2,a0
    26a0:	0c050863          	beqz	a0,2770 <setvbuf+0x260>
    26a4:	00c45783          	lhu	a5,12(s0)
    26a8:	0807e793          	or	a5,a5,128
    26ac:	00f41623          	sh	a5,12(s0)
    26b0:	034a2783          	lw	a5,52(s4)
    26b4:	f2079ee3          	bnez	a5,25f0 <setvbuf+0xe0>
    26b8:	000a0513          	mv	a0,s4
    26bc:	c25ff0ef          	jal	22e0 <__sinit>
    26c0:	f31ff06f          	j	25f0 <setvbuf+0xe0>
    26c4:	00042423          	sw	zero,8(s0)
    26c8:	06442703          	lw	a4,100(s0)
    26cc:	00177713          	and	a4,a4,1
    26d0:	f80710e3          	bnez	a4,2650 <setvbuf+0x140>
    26d4:	2007f793          	and	a5,a5,512
    26d8:	f6079ce3          	bnez	a5,2650 <setvbuf+0x140>
    26dc:	05842503          	lw	a0,88(s0)
    26e0:	4c8000ef          	jal	2ba8 <__retarget_lock_release_recursive>
    26e4:	f6dff06f          	j	2650 <setvbuf+0x140>
    26e8:	01042583          	lw	a1,16(s0)
    26ec:	000a0513          	mv	a0,s4
    26f0:	329000ef          	jal	3218 <_free_r>
    26f4:	00c41783          	lh	a5,12(s0)
    26f8:	fffff737          	lui	a4,0xfffff
    26fc:	35c70713          	add	a4,a4,860 # fffff35c <__alt_data_end+0xfffdf35c>
    2700:	00e7f7b3          	and	a5,a5,a4
    2704:	00f41623          	sh	a5,12(s0)
    2708:	00200713          	li	a4,2
    270c:	eae99ae3          	bne	s3,a4,25c0 <setvbuf+0xb0>
    2710:	00000493          	li	s1,0
    2714:	06442703          	lw	a4,100(s0)
    2718:	04340693          	add	a3,s0,67
    271c:	0027e613          	or	a2,a5,2
    2720:	00d42023          	sw	a3,0(s0)
    2724:	00d42823          	sw	a3,16(s0)
    2728:	00100693          	li	a3,1
    272c:	00c41623          	sh	a2,12(s0)
    2730:	00042423          	sw	zero,8(s0)
    2734:	00d42a23          	sw	a3,20(s0)
    2738:	00177713          	and	a4,a4,1
    273c:	f0071ce3          	bnez	a4,2654 <setvbuf+0x144>
    2740:	2007f793          	and	a5,a5,512
    2744:	f00798e3          	bnez	a5,2654 <setvbuf+0x144>
    2748:	05842503          	lw	a0,88(s0)
    274c:	45c000ef          	jal	2ba8 <__retarget_lock_release_recursive>
    2750:	f05ff06f          	j	2654 <setvbuf+0x144>
    2754:	00942423          	sw	s1,8(s0)
    2758:	f71ff06f          	j	26c8 <setvbuf+0x1b8>
    275c:	000a0513          	mv	a0,s4
    2760:	b81ff0ef          	jal	22e0 <__sinit>
    2764:	de9ff06f          	j	254c <setvbuf+0x3c>
    2768:	fff00493          	li	s1,-1
    276c:	ee9ff06f          	j	2654 <setvbuf+0x144>
    2770:	01512a23          	sw	s5,20(sp)
    2774:	00812a83          	lw	s5,8(sp)
    2778:	029a8063          	beq	s5,s1,2798 <setvbuf+0x288>
    277c:	000a8513          	mv	a0,s5
    2780:	5a1000ef          	jal	3520 <malloc>
    2784:	00050913          	mv	s2,a0
    2788:	000a8493          	mv	s1,s5
    278c:	00050663          	beqz	a0,2798 <setvbuf+0x288>
    2790:	01412a83          	lw	s5,20(sp)
    2794:	f11ff06f          	j	26a4 <setvbuf+0x194>
    2798:	00c41783          	lh	a5,12(s0)
    279c:	01412a83          	lw	s5,20(sp)
    27a0:	fff00493          	li	s1,-1
    27a4:	f71ff06f          	j	2714 <setvbuf+0x204>

000027a8 <__sread>:
    27a8:	ff010113          	add	sp,sp,-16
    27ac:	00812423          	sw	s0,8(sp)
    27b0:	00058413          	mv	s0,a1
    27b4:	00e59583          	lh	a1,14(a1)
    27b8:	00112623          	sw	ra,12(sp)
    27bc:	2f8000ef          	jal	2ab4 <_read_r>
    27c0:	02054063          	bltz	a0,27e0 <__sread+0x38>
    27c4:	05042783          	lw	a5,80(s0)
    27c8:	00c12083          	lw	ra,12(sp)
    27cc:	00a787b3          	add	a5,a5,a0
    27d0:	04f42823          	sw	a5,80(s0)
    27d4:	00812403          	lw	s0,8(sp)
    27d8:	01010113          	add	sp,sp,16
    27dc:	00008067          	ret
    27e0:	00c45783          	lhu	a5,12(s0)
    27e4:	fffff737          	lui	a4,0xfffff
    27e8:	fff70713          	add	a4,a4,-1 # ffffefff <__alt_data_end+0xfffdefff>
    27ec:	00e7f7b3          	and	a5,a5,a4
    27f0:	00c12083          	lw	ra,12(sp)
    27f4:	00f41623          	sh	a5,12(s0)
    27f8:	00812403          	lw	s0,8(sp)
    27fc:	01010113          	add	sp,sp,16
    2800:	00008067          	ret

00002804 <__seofread>:
    2804:	00000513          	li	a0,0
    2808:	00008067          	ret

0000280c <__swrite>:
    280c:	00c59783          	lh	a5,12(a1)
    2810:	fe010113          	add	sp,sp,-32
    2814:	00812c23          	sw	s0,24(sp)
    2818:	00912a23          	sw	s1,20(sp)
    281c:	01212823          	sw	s2,16(sp)
    2820:	01312623          	sw	s3,12(sp)
    2824:	00112e23          	sw	ra,28(sp)
    2828:	1007f713          	and	a4,a5,256
    282c:	00058413          	mv	s0,a1
    2830:	00050493          	mv	s1,a0
    2834:	00060913          	mv	s2,a2
    2838:	00068993          	mv	s3,a3
    283c:	04071063          	bnez	a4,287c <__swrite+0x70>
    2840:	fffff737          	lui	a4,0xfffff
    2844:	fff70713          	add	a4,a4,-1 # ffffefff <__alt_data_end+0xfffdefff>
    2848:	00e7f7b3          	and	a5,a5,a4
    284c:	00e41583          	lh	a1,14(s0)
    2850:	00f41623          	sh	a5,12(s0)
    2854:	01812403          	lw	s0,24(sp)
    2858:	01c12083          	lw	ra,28(sp)
    285c:	00098693          	mv	a3,s3
    2860:	00090613          	mv	a2,s2
    2864:	00c12983          	lw	s3,12(sp)
    2868:	01012903          	lw	s2,16(sp)
    286c:	00048513          	mv	a0,s1
    2870:	01412483          	lw	s1,20(sp)
    2874:	02010113          	add	sp,sp,32
    2878:	2a00006f          	j	2b18 <_write_r>
    287c:	00e59583          	lh	a1,14(a1)
    2880:	00200693          	li	a3,2
    2884:	00000613          	li	a2,0
    2888:	1c8000ef          	jal	2a50 <_lseek_r>
    288c:	00c41783          	lh	a5,12(s0)
    2890:	fb1ff06f          	j	2840 <__swrite+0x34>

00002894 <__sseek>:
    2894:	ff010113          	add	sp,sp,-16
    2898:	00812423          	sw	s0,8(sp)
    289c:	00058413          	mv	s0,a1
    28a0:	00e59583          	lh	a1,14(a1)
    28a4:	00112623          	sw	ra,12(sp)
    28a8:	1a8000ef          	jal	2a50 <_lseek_r>
    28ac:	fff00793          	li	a5,-1
    28b0:	02f50863          	beq	a0,a5,28e0 <__sseek+0x4c>
    28b4:	00c45783          	lhu	a5,12(s0)
    28b8:	00001737          	lui	a4,0x1
    28bc:	00c12083          	lw	ra,12(sp)
    28c0:	00e7e7b3          	or	a5,a5,a4
    28c4:	01079793          	sll	a5,a5,0x10
    28c8:	4107d793          	sra	a5,a5,0x10
    28cc:	04a42823          	sw	a0,80(s0)
    28d0:	00f41623          	sh	a5,12(s0)
    28d4:	00812403          	lw	s0,8(sp)
    28d8:	01010113          	add	sp,sp,16
    28dc:	00008067          	ret
    28e0:	00c45783          	lhu	a5,12(s0)
    28e4:	fffff737          	lui	a4,0xfffff
    28e8:	fff70713          	add	a4,a4,-1 # ffffefff <__alt_data_end+0xfffdefff>
    28ec:	00e7f7b3          	and	a5,a5,a4
    28f0:	01079793          	sll	a5,a5,0x10
    28f4:	4107d793          	sra	a5,a5,0x10
    28f8:	00c12083          	lw	ra,12(sp)
    28fc:	00f41623          	sh	a5,12(s0)
    2900:	00812403          	lw	s0,8(sp)
    2904:	01010113          	add	sp,sp,16
    2908:	00008067          	ret

0000290c <__sclose>:
    290c:	00e59583          	lh	a1,14(a1)
    2910:	0040006f          	j	2914 <_close_r>

00002914 <_close_r>:
    2914:	ff010113          	add	sp,sp,-16
    2918:	00812423          	sw	s0,8(sp)
    291c:	00050413          	mv	s0,a0
    2920:	00058513          	mv	a0,a1
    2924:	00015797          	auipc	a5,0x15
    2928:	1007a023          	sw	zero,256(a5) # 17a24 <errno>
    292c:	00112623          	sw	ra,12(sp)
    2930:	5a0100ef          	jal	12ed0 <_close>
    2934:	fff00793          	li	a5,-1
    2938:	00f50a63          	beq	a0,a5,294c <_close_r+0x38>
    293c:	00c12083          	lw	ra,12(sp)
    2940:	00812403          	lw	s0,8(sp)
    2944:	01010113          	add	sp,sp,16
    2948:	00008067          	ret
    294c:	00015797          	auipc	a5,0x15
    2950:	0d87a783          	lw	a5,216(a5) # 17a24 <errno>
    2954:	fe0784e3          	beqz	a5,293c <_close_r+0x28>
    2958:	00c12083          	lw	ra,12(sp)
    295c:	00f42023          	sw	a5,0(s0)
    2960:	00812403          	lw	s0,8(sp)
    2964:	01010113          	add	sp,sp,16
    2968:	00008067          	ret

0000296c <_reclaim_reent>:
    296c:	8201a783          	lw	a5,-2016(gp) # 160fc <_impure_ptr>
    2970:	0ca78e63          	beq	a5,a0,2a4c <_reclaim_reent+0xe0>
    2974:	04452583          	lw	a1,68(a0)
    2978:	fe010113          	add	sp,sp,-32
    297c:	00912a23          	sw	s1,20(sp)
    2980:	00112e23          	sw	ra,28(sp)
    2984:	00812c23          	sw	s0,24(sp)
    2988:	00050493          	mv	s1,a0
    298c:	04058863          	beqz	a1,29dc <_reclaim_reent+0x70>
    2990:	01212823          	sw	s2,16(sp)
    2994:	01312623          	sw	s3,12(sp)
    2998:	00000913          	li	s2,0
    299c:	08000993          	li	s3,128
    29a0:	012587b3          	add	a5,a1,s2
    29a4:	0007a403          	lw	s0,0(a5)
    29a8:	00040e63          	beqz	s0,29c4 <_reclaim_reent+0x58>
    29ac:	00040593          	mv	a1,s0
    29b0:	00042403          	lw	s0,0(s0)
    29b4:	00048513          	mv	a0,s1
    29b8:	061000ef          	jal	3218 <_free_r>
    29bc:	fe0418e3          	bnez	s0,29ac <_reclaim_reent+0x40>
    29c0:	0444a583          	lw	a1,68(s1)
    29c4:	00490913          	add	s2,s2,4
    29c8:	fd391ce3          	bne	s2,s3,29a0 <_reclaim_reent+0x34>
    29cc:	00048513          	mv	a0,s1
    29d0:	049000ef          	jal	3218 <_free_r>
    29d4:	01012903          	lw	s2,16(sp)
    29d8:	00c12983          	lw	s3,12(sp)
    29dc:	0384a583          	lw	a1,56(s1)
    29e0:	00058663          	beqz	a1,29ec <_reclaim_reent+0x80>
    29e4:	00048513          	mv	a0,s1
    29e8:	031000ef          	jal	3218 <_free_r>
    29ec:	0404a403          	lw	s0,64(s1)
    29f0:	00040c63          	beqz	s0,2a08 <_reclaim_reent+0x9c>
    29f4:	00040593          	mv	a1,s0
    29f8:	00042403          	lw	s0,0(s0)
    29fc:	00048513          	mv	a0,s1
    2a00:	019000ef          	jal	3218 <_free_r>
    2a04:	fe0418e3          	bnez	s0,29f4 <_reclaim_reent+0x88>
    2a08:	04c4a583          	lw	a1,76(s1)
    2a0c:	00058663          	beqz	a1,2a18 <_reclaim_reent+0xac>
    2a10:	00048513          	mv	a0,s1
    2a14:	005000ef          	jal	3218 <_free_r>
    2a18:	0344a783          	lw	a5,52(s1)
    2a1c:	00078e63          	beqz	a5,2a38 <_reclaim_reent+0xcc>
    2a20:	01812403          	lw	s0,24(sp)
    2a24:	01c12083          	lw	ra,28(sp)
    2a28:	00048513          	mv	a0,s1
    2a2c:	01412483          	lw	s1,20(sp)
    2a30:	02010113          	add	sp,sp,32
    2a34:	00078067          	jr	a5
    2a38:	01c12083          	lw	ra,28(sp)
    2a3c:	01812403          	lw	s0,24(sp)
    2a40:	01412483          	lw	s1,20(sp)
    2a44:	02010113          	add	sp,sp,32
    2a48:	00008067          	ret
    2a4c:	00008067          	ret

00002a50 <_lseek_r>:
    2a50:	ff010113          	add	sp,sp,-16
    2a54:	00058713          	mv	a4,a1
    2a58:	00812423          	sw	s0,8(sp)
    2a5c:	00060593          	mv	a1,a2
    2a60:	00050413          	mv	s0,a0
    2a64:	00068613          	mv	a2,a3
    2a68:	00070513          	mv	a0,a4
    2a6c:	00015797          	auipc	a5,0x15
    2a70:	fa07ac23          	sw	zero,-72(a5) # 17a24 <errno>
    2a74:	00112623          	sw	ra,12(sp)
    2a78:	159100ef          	jal	133d0 <_lseek>
    2a7c:	fff00793          	li	a5,-1
    2a80:	00f50a63          	beq	a0,a5,2a94 <_lseek_r+0x44>
    2a84:	00c12083          	lw	ra,12(sp)
    2a88:	00812403          	lw	s0,8(sp)
    2a8c:	01010113          	add	sp,sp,16
    2a90:	00008067          	ret
    2a94:	00015797          	auipc	a5,0x15
    2a98:	f907a783          	lw	a5,-112(a5) # 17a24 <errno>
    2a9c:	fe0784e3          	beqz	a5,2a84 <_lseek_r+0x34>
    2aa0:	00c12083          	lw	ra,12(sp)
    2aa4:	00f42023          	sw	a5,0(s0)
    2aa8:	00812403          	lw	s0,8(sp)
    2aac:	01010113          	add	sp,sp,16
    2ab0:	00008067          	ret

00002ab4 <_read_r>:
    2ab4:	ff010113          	add	sp,sp,-16
    2ab8:	00058713          	mv	a4,a1
    2abc:	00812423          	sw	s0,8(sp)
    2ac0:	00060593          	mv	a1,a2
    2ac4:	00050413          	mv	s0,a0
    2ac8:	00068613          	mv	a2,a3
    2acc:	00070513          	mv	a0,a4
    2ad0:	00015797          	auipc	a5,0x15
    2ad4:	f407aa23          	sw	zero,-172(a5) # 17a24 <errno>
    2ad8:	00112623          	sw	ra,12(sp)
    2adc:	4ad100ef          	jal	13788 <_read>
    2ae0:	fff00793          	li	a5,-1
    2ae4:	00f50a63          	beq	a0,a5,2af8 <_read_r+0x44>
    2ae8:	00c12083          	lw	ra,12(sp)
    2aec:	00812403          	lw	s0,8(sp)
    2af0:	01010113          	add	sp,sp,16
    2af4:	00008067          	ret
    2af8:	00015797          	auipc	a5,0x15
    2afc:	f2c7a783          	lw	a5,-212(a5) # 17a24 <errno>
    2b00:	fe0784e3          	beqz	a5,2ae8 <_read_r+0x34>
    2b04:	00c12083          	lw	ra,12(sp)
    2b08:	00f42023          	sw	a5,0(s0)
    2b0c:	00812403          	lw	s0,8(sp)
    2b10:	01010113          	add	sp,sp,16
    2b14:	00008067          	ret

00002b18 <_write_r>:
    2b18:	ff010113          	add	sp,sp,-16
    2b1c:	00058713          	mv	a4,a1
    2b20:	00812423          	sw	s0,8(sp)
    2b24:	00060593          	mv	a1,a2
    2b28:	00050413          	mv	s0,a0
    2b2c:	00068613          	mv	a2,a3
    2b30:	00070513          	mv	a0,a4
    2b34:	00015797          	auipc	a5,0x15
    2b38:	ee07a823          	sw	zero,-272(a5) # 17a24 <errno>
    2b3c:	00112623          	sw	ra,12(sp)
    2b40:	649100ef          	jal	13988 <_write>
    2b44:	fff00793          	li	a5,-1
    2b48:	00f50a63          	beq	a0,a5,2b5c <_write_r+0x44>
    2b4c:	00c12083          	lw	ra,12(sp)
    2b50:	00812403          	lw	s0,8(sp)
    2b54:	01010113          	add	sp,sp,16
    2b58:	00008067          	ret
    2b5c:	00015797          	auipc	a5,0x15
    2b60:	ec87a783          	lw	a5,-312(a5) # 17a24 <errno>
    2b64:	fe0784e3          	beqz	a5,2b4c <_write_r+0x34>
    2b68:	00c12083          	lw	ra,12(sp)
    2b6c:	00f42023          	sw	a5,0(s0)
    2b70:	00812403          	lw	s0,8(sp)
    2b74:	01010113          	add	sp,sp,16
    2b78:	00008067          	ret

00002b7c <__retarget_lock_init>:
    2b7c:	00008067          	ret

00002b80 <__retarget_lock_init_recursive>:
    2b80:	00008067          	ret

00002b84 <__retarget_lock_close>:
    2b84:	00008067          	ret

00002b88 <__retarget_lock_close_recursive>:
    2b88:	00008067          	ret

00002b8c <__retarget_lock_acquire>:
    2b8c:	00008067          	ret

00002b90 <__retarget_lock_acquire_recursive>:
    2b90:	00008067          	ret

00002b94 <__retarget_lock_try_acquire>:
    2b94:	00100513          	li	a0,1
    2b98:	00008067          	ret

00002b9c <__retarget_lock_try_acquire_recursive>:
    2b9c:	00100513          	li	a0,1
    2ba0:	00008067          	ret

00002ba4 <__retarget_lock_release>:
    2ba4:	00008067          	ret

00002ba8 <__retarget_lock_release_recursive>:
    2ba8:	00008067          	ret

00002bac <close>:
    2bac:	00050593          	mv	a1,a0
    2bb0:	8201a503          	lw	a0,-2016(gp) # 160fc <_impure_ptr>
    2bb4:	d61ff06f          	j	2914 <_close_r>

00002bb8 <open>:
    2bb8:	fc010113          	add	sp,sp,-64
    2bbc:	02c12423          	sw	a2,40(sp)
    2bc0:	02d12623          	sw	a3,44(sp)
    2bc4:	02f12a23          	sw	a5,52(sp)
    2bc8:	00060693          	mv	a3,a2
    2bcc:	02810793          	add	a5,sp,40
    2bd0:	00058613          	mv	a2,a1
    2bd4:	00050593          	mv	a1,a0
    2bd8:	8201a503          	lw	a0,-2016(gp) # 160fc <_impure_ptr>
    2bdc:	00112e23          	sw	ra,28(sp)
    2be0:	02e12823          	sw	a4,48(sp)
    2be4:	03012c23          	sw	a6,56(sp)
    2be8:	03112e23          	sw	a7,60(sp)
    2bec:	00f12623          	sw	a5,12(sp)
    2bf0:	4d9040ef          	jal	78c8 <_open_r>
    2bf4:	01c12083          	lw	ra,28(sp)
    2bf8:	04010113          	add	sp,sp,64
    2bfc:	00008067          	ret

00002c00 <memset>:
    2c00:	00f00313          	li	t1,15
    2c04:	00050713          	mv	a4,a0
    2c08:	02c37e63          	bgeu	t1,a2,2c44 <memset+0x44>
    2c0c:	00f77793          	and	a5,a4,15
    2c10:	0a079063          	bnez	a5,2cb0 <memset+0xb0>
    2c14:	08059263          	bnez	a1,2c98 <memset+0x98>
    2c18:	ff067693          	and	a3,a2,-16
    2c1c:	00f67613          	and	a2,a2,15
    2c20:	00e686b3          	add	a3,a3,a4
    2c24:	00b72023          	sw	a1,0(a4)
    2c28:	00b72223          	sw	a1,4(a4)
    2c2c:	00b72423          	sw	a1,8(a4)
    2c30:	00b72623          	sw	a1,12(a4)
    2c34:	01070713          	add	a4,a4,16
    2c38:	fed766e3          	bltu	a4,a3,2c24 <memset+0x24>
    2c3c:	00061463          	bnez	a2,2c44 <memset+0x44>
    2c40:	00008067          	ret
    2c44:	40c306b3          	sub	a3,t1,a2
    2c48:	00269693          	sll	a3,a3,0x2
    2c4c:	00000297          	auipc	t0,0x0
    2c50:	005686b3          	add	a3,a3,t0
    2c54:	00c68067          	jr	12(a3)
    2c58:	00b70723          	sb	a1,14(a4)
    2c5c:	00b706a3          	sb	a1,13(a4)
    2c60:	00b70623          	sb	a1,12(a4)
    2c64:	00b705a3          	sb	a1,11(a4)
    2c68:	00b70523          	sb	a1,10(a4)
    2c6c:	00b704a3          	sb	a1,9(a4)
    2c70:	00b70423          	sb	a1,8(a4)
    2c74:	00b703a3          	sb	a1,7(a4)
    2c78:	00b70323          	sb	a1,6(a4)
    2c7c:	00b702a3          	sb	a1,5(a4)
    2c80:	00b70223          	sb	a1,4(a4)
    2c84:	00b701a3          	sb	a1,3(a4)
    2c88:	00b70123          	sb	a1,2(a4)
    2c8c:	00b700a3          	sb	a1,1(a4)
    2c90:	00b70023          	sb	a1,0(a4)
    2c94:	00008067          	ret
    2c98:	0ff5f593          	zext.b	a1,a1
    2c9c:	00859693          	sll	a3,a1,0x8
    2ca0:	00d5e5b3          	or	a1,a1,a3
    2ca4:	01059693          	sll	a3,a1,0x10
    2ca8:	00d5e5b3          	or	a1,a1,a3
    2cac:	f6dff06f          	j	2c18 <memset+0x18>
    2cb0:	00279693          	sll	a3,a5,0x2
    2cb4:	00000297          	auipc	t0,0x0
    2cb8:	005686b3          	add	a3,a3,t0
    2cbc:	00008293          	mv	t0,ra
    2cc0:	fa0680e7          	jalr	-96(a3)
    2cc4:	00028093          	mv	ra,t0
    2cc8:	ff078793          	add	a5,a5,-16
    2ccc:	40f70733          	sub	a4,a4,a5
    2cd0:	00f60633          	add	a2,a2,a5
    2cd4:	f6c378e3          	bgeu	t1,a2,2c44 <memset+0x44>
    2cd8:	f3dff06f          	j	2c14 <memset+0x14>

00002cdc <memcpy>:
    2cdc:	00a5c7b3          	xor	a5,a1,a0
    2ce0:	0037f793          	and	a5,a5,3
    2ce4:	00c508b3          	add	a7,a0,a2
    2ce8:	06079463          	bnez	a5,2d50 <memcpy+0x74>
    2cec:	00300793          	li	a5,3
    2cf0:	06c7f063          	bgeu	a5,a2,2d50 <memcpy+0x74>
    2cf4:	00357793          	and	a5,a0,3
    2cf8:	00050713          	mv	a4,a0
    2cfc:	06079a63          	bnez	a5,2d70 <memcpy+0x94>
    2d00:	ffc8f613          	and	a2,a7,-4
    2d04:	40e606b3          	sub	a3,a2,a4
    2d08:	02000793          	li	a5,32
    2d0c:	08d7ce63          	blt	a5,a3,2da8 <memcpy+0xcc>
    2d10:	00058693          	mv	a3,a1
    2d14:	00070793          	mv	a5,a4
    2d18:	02c77863          	bgeu	a4,a2,2d48 <memcpy+0x6c>
    2d1c:	0006a803          	lw	a6,0(a3)
    2d20:	00478793          	add	a5,a5,4
    2d24:	00468693          	add	a3,a3,4
    2d28:	ff07ae23          	sw	a6,-4(a5)
    2d2c:	fec7e8e3          	bltu	a5,a2,2d1c <memcpy+0x40>
    2d30:	fff60793          	add	a5,a2,-1
    2d34:	40e787b3          	sub	a5,a5,a4
    2d38:	ffc7f793          	and	a5,a5,-4
    2d3c:	00478793          	add	a5,a5,4
    2d40:	00f70733          	add	a4,a4,a5
    2d44:	00f585b3          	add	a1,a1,a5
    2d48:	01176863          	bltu	a4,a7,2d58 <memcpy+0x7c>
    2d4c:	00008067          	ret
    2d50:	00050713          	mv	a4,a0
    2d54:	05157863          	bgeu	a0,a7,2da4 <memcpy+0xc8>
    2d58:	0005c783          	lbu	a5,0(a1)
    2d5c:	00170713          	add	a4,a4,1
    2d60:	00158593          	add	a1,a1,1
    2d64:	fef70fa3          	sb	a5,-1(a4)
    2d68:	fee898e3          	bne	a7,a4,2d58 <memcpy+0x7c>
    2d6c:	00008067          	ret
    2d70:	0005c683          	lbu	a3,0(a1)
    2d74:	00170713          	add	a4,a4,1
    2d78:	00377793          	and	a5,a4,3
    2d7c:	fed70fa3          	sb	a3,-1(a4)
    2d80:	00158593          	add	a1,a1,1
    2d84:	f6078ee3          	beqz	a5,2d00 <memcpy+0x24>
    2d88:	0005c683          	lbu	a3,0(a1)
    2d8c:	00170713          	add	a4,a4,1
    2d90:	00377793          	and	a5,a4,3
    2d94:	fed70fa3          	sb	a3,-1(a4)
    2d98:	00158593          	add	a1,a1,1
    2d9c:	fc079ae3          	bnez	a5,2d70 <memcpy+0x94>
    2da0:	f61ff06f          	j	2d00 <memcpy+0x24>
    2da4:	00008067          	ret
    2da8:	ff010113          	add	sp,sp,-16
    2dac:	00812623          	sw	s0,12(sp)
    2db0:	02000413          	li	s0,32
    2db4:	0005a383          	lw	t2,0(a1)
    2db8:	0045a283          	lw	t0,4(a1)
    2dbc:	0085af83          	lw	t6,8(a1)
    2dc0:	00c5af03          	lw	t5,12(a1)
    2dc4:	0105ae83          	lw	t4,16(a1)
    2dc8:	0145ae03          	lw	t3,20(a1)
    2dcc:	0185a303          	lw	t1,24(a1)
    2dd0:	01c5a803          	lw	a6,28(a1)
    2dd4:	0205a683          	lw	a3,32(a1)
    2dd8:	02470713          	add	a4,a4,36
    2ddc:	40e607b3          	sub	a5,a2,a4
    2de0:	fc772e23          	sw	t2,-36(a4)
    2de4:	fe572023          	sw	t0,-32(a4)
    2de8:	fff72223          	sw	t6,-28(a4)
    2dec:	ffe72423          	sw	t5,-24(a4)
    2df0:	ffd72623          	sw	t4,-20(a4)
    2df4:	ffc72823          	sw	t3,-16(a4)
    2df8:	fe672a23          	sw	t1,-12(a4)
    2dfc:	ff072c23          	sw	a6,-8(a4)
    2e00:	fed72e23          	sw	a3,-4(a4)
    2e04:	02458593          	add	a1,a1,36
    2e08:	faf446e3          	blt	s0,a5,2db4 <memcpy+0xd8>
    2e0c:	00058693          	mv	a3,a1
    2e10:	00070793          	mv	a5,a4
    2e14:	02c77863          	bgeu	a4,a2,2e44 <memcpy+0x168>
    2e18:	0006a803          	lw	a6,0(a3)
    2e1c:	00478793          	add	a5,a5,4
    2e20:	00468693          	add	a3,a3,4
    2e24:	ff07ae23          	sw	a6,-4(a5)
    2e28:	fec7e8e3          	bltu	a5,a2,2e18 <memcpy+0x13c>
    2e2c:	fff60793          	add	a5,a2,-1
    2e30:	40e787b3          	sub	a5,a5,a4
    2e34:	ffc7f793          	and	a5,a5,-4
    2e38:	00478793          	add	a5,a5,4
    2e3c:	00f70733          	add	a4,a4,a5
    2e40:	00f585b3          	add	a1,a1,a5
    2e44:	01176863          	bltu	a4,a7,2e54 <memcpy+0x178>
    2e48:	00c12403          	lw	s0,12(sp)
    2e4c:	01010113          	add	sp,sp,16
    2e50:	00008067          	ret
    2e54:	0005c783          	lbu	a5,0(a1)
    2e58:	00170713          	add	a4,a4,1
    2e5c:	00158593          	add	a1,a1,1
    2e60:	fef70fa3          	sb	a5,-1(a4)
    2e64:	fee882e3          	beq	a7,a4,2e48 <memcpy+0x16c>
    2e68:	0005c783          	lbu	a5,0(a1)
    2e6c:	00170713          	add	a4,a4,1
    2e70:	00158593          	add	a1,a1,1
    2e74:	fef70fa3          	sb	a5,-1(a4)
    2e78:	fce89ee3          	bne	a7,a4,2e54 <memcpy+0x178>
    2e7c:	fcdff06f          	j	2e48 <memcpy+0x16c>

00002e80 <__register_exitproc>:
    2e80:	fe010113          	add	sp,sp,-32
    2e84:	01212823          	sw	s2,16(sp)
    2e88:	82418913          	add	s2,gp,-2012 # 16100 <__atexit_recursive_mutex>
    2e8c:	00812c23          	sw	s0,24(sp)
    2e90:	00050413          	mv	s0,a0
    2e94:	00092503          	lw	a0,0(s2)
    2e98:	00912a23          	sw	s1,20(sp)
    2e9c:	01312623          	sw	s3,12(sp)
    2ea0:	01412423          	sw	s4,8(sp)
    2ea4:	00112e23          	sw	ra,28(sp)
    2ea8:	00058493          	mv	s1,a1
    2eac:	00060a13          	mv	s4,a2
    2eb0:	00068993          	mv	s3,a3
    2eb4:	cddff0ef          	jal	2b90 <__retarget_lock_acquire_recursive>
    2eb8:	00015717          	auipc	a4,0x15
    2ebc:	b9070713          	add	a4,a4,-1136 # 17a48 <__atexit>
    2ec0:	00072783          	lw	a5,0(a4)
    2ec4:	08078663          	beqz	a5,2f50 <__register_exitproc+0xd0>
    2ec8:	0047a703          	lw	a4,4(a5)
    2ecc:	01f00593          	li	a1,31
    2ed0:	00092503          	lw	a0,0(s2)
    2ed4:	08e5c663          	blt	a1,a4,2f60 <__register_exitproc+0xe0>
    2ed8:	00271593          	sll	a1,a4,0x2
    2edc:	02041e63          	bnez	s0,2f18 <__register_exitproc+0x98>
    2ee0:	00170713          	add	a4,a4,1
    2ee4:	00e7a223          	sw	a4,4(a5)
    2ee8:	00b787b3          	add	a5,a5,a1
    2eec:	0097a423          	sw	s1,8(a5)
    2ef0:	cb9ff0ef          	jal	2ba8 <__retarget_lock_release_recursive>
    2ef4:	00000513          	li	a0,0
    2ef8:	01c12083          	lw	ra,28(sp)
    2efc:	01812403          	lw	s0,24(sp)
    2f00:	01412483          	lw	s1,20(sp)
    2f04:	01012903          	lw	s2,16(sp)
    2f08:	00c12983          	lw	s3,12(sp)
    2f0c:	00812a03          	lw	s4,8(sp)
    2f10:	02010113          	add	sp,sp,32
    2f14:	00008067          	ret
    2f18:	00b78833          	add	a6,a5,a1
    2f1c:	09482423          	sw	s4,136(a6)
    2f20:	1887a683          	lw	a3,392(a5)
    2f24:	00100613          	li	a2,1
    2f28:	00e61633          	sll	a2,a2,a4
    2f2c:	00c6e6b3          	or	a3,a3,a2
    2f30:	18d7a423          	sw	a3,392(a5)
    2f34:	11382423          	sw	s3,264(a6)
    2f38:	00200693          	li	a3,2
    2f3c:	fad412e3          	bne	s0,a3,2ee0 <__register_exitproc+0x60>
    2f40:	18c7a683          	lw	a3,396(a5)
    2f44:	00c6e6b3          	or	a3,a3,a2
    2f48:	18d7a623          	sw	a3,396(a5)
    2f4c:	f95ff06f          	j	2ee0 <__register_exitproc+0x60>
    2f50:	00015797          	auipc	a5,0x15
    2f54:	cc878793          	add	a5,a5,-824 # 17c18 <__atexit0>
    2f58:	00f72023          	sw	a5,0(a4)
    2f5c:	f6dff06f          	j	2ec8 <__register_exitproc+0x48>
    2f60:	c49ff0ef          	jal	2ba8 <__retarget_lock_release_recursive>
    2f64:	fff00513          	li	a0,-1
    2f68:	f91ff06f          	j	2ef8 <__register_exitproc+0x78>

00002f6c <__call_exitprocs>:
    2f6c:	fd010113          	add	sp,sp,-48
    2f70:	01712623          	sw	s7,12(sp)
    2f74:	82418b93          	add	s7,gp,-2012 # 16100 <__atexit_recursive_mutex>
    2f78:	01612823          	sw	s6,16(sp)
    2f7c:	00050b13          	mv	s6,a0
    2f80:	000ba503          	lw	a0,0(s7)
    2f84:	01412c23          	sw	s4,24(sp)
    2f88:	00015a17          	auipc	s4,0x15
    2f8c:	ac0a0a13          	add	s4,s4,-1344 # 17a48 <__atexit>
    2f90:	03212023          	sw	s2,32(sp)
    2f94:	01812423          	sw	s8,8(sp)
    2f98:	02112623          	sw	ra,44(sp)
    2f9c:	00058c13          	mv	s8,a1
    2fa0:	bf1ff0ef          	jal	2b90 <__retarget_lock_acquire_recursive>
    2fa4:	000a2903          	lw	s2,0(s4)
    2fa8:	08090c63          	beqz	s2,3040 <__call_exitprocs+0xd4>
    2fac:	01312e23          	sw	s3,28(sp)
    2fb0:	01512a23          	sw	s5,20(sp)
    2fb4:	02812423          	sw	s0,40(sp)
    2fb8:	02912223          	sw	s1,36(sp)
    2fbc:	01912223          	sw	s9,4(sp)
    2fc0:	fff00993          	li	s3,-1
    2fc4:	00100a93          	li	s5,1
    2fc8:	00492483          	lw	s1,4(s2)
    2fcc:	fff48413          	add	s0,s1,-1
    2fd0:	04044e63          	bltz	s0,302c <__call_exitprocs+0xc0>
    2fd4:	00249493          	sll	s1,s1,0x2
    2fd8:	009904b3          	add	s1,s2,s1
    2fdc:	080c1463          	bnez	s8,3064 <__call_exitprocs+0xf8>
    2fe0:	00492783          	lw	a5,4(s2)
    2fe4:	0044a683          	lw	a3,4(s1)
    2fe8:	fff78793          	add	a5,a5,-1
    2fec:	0c878063          	beq	a5,s0,30ac <__call_exitprocs+0x140>
    2ff0:	0004a223          	sw	zero,4(s1)
    2ff4:	02068663          	beqz	a3,3020 <__call_exitprocs+0xb4>
    2ff8:	18892783          	lw	a5,392(s2)
    2ffc:	008a9733          	sll	a4,s5,s0
    3000:	00492c83          	lw	s9,4(s2)
    3004:	00f777b3          	and	a5,a4,a5
    3008:	06079a63          	bnez	a5,307c <__call_exitprocs+0x110>
    300c:	000680e7          	jalr	a3
    3010:	00492703          	lw	a4,4(s2)
    3014:	000a2783          	lw	a5,0(s4)
    3018:	09971463          	bne	a4,s9,30a0 <__call_exitprocs+0x134>
    301c:	09279263          	bne	a5,s2,30a0 <__call_exitprocs+0x134>
    3020:	fff40413          	add	s0,s0,-1
    3024:	ffc48493          	add	s1,s1,-4
    3028:	fb341ae3          	bne	s0,s3,2fdc <__call_exitprocs+0x70>
    302c:	02812403          	lw	s0,40(sp)
    3030:	02412483          	lw	s1,36(sp)
    3034:	01c12983          	lw	s3,28(sp)
    3038:	01412a83          	lw	s5,20(sp)
    303c:	00412c83          	lw	s9,4(sp)
    3040:	000ba503          	lw	a0,0(s7)
    3044:	02c12083          	lw	ra,44(sp)
    3048:	02012903          	lw	s2,32(sp)
    304c:	01812a03          	lw	s4,24(sp)
    3050:	01012b03          	lw	s6,16(sp)
    3054:	00c12b83          	lw	s7,12(sp)
    3058:	00812c03          	lw	s8,8(sp)
    305c:	03010113          	add	sp,sp,48
    3060:	b49ff06f          	j	2ba8 <__retarget_lock_release_recursive>
    3064:	1044a783          	lw	a5,260(s1)
    3068:	f7878ce3          	beq	a5,s8,2fe0 <__call_exitprocs+0x74>
    306c:	fff40413          	add	s0,s0,-1
    3070:	ffc48493          	add	s1,s1,-4
    3074:	ff3418e3          	bne	s0,s3,3064 <__call_exitprocs+0xf8>
    3078:	fb5ff06f          	j	302c <__call_exitprocs+0xc0>
    307c:	18c92783          	lw	a5,396(s2)
    3080:	0844a583          	lw	a1,132(s1)
    3084:	00f77733          	and	a4,a4,a5
    3088:	02071663          	bnez	a4,30b4 <__call_exitprocs+0x148>
    308c:	000b0513          	mv	a0,s6
    3090:	000680e7          	jalr	a3
    3094:	00492703          	lw	a4,4(s2)
    3098:	000a2783          	lw	a5,0(s4)
    309c:	f99700e3          	beq	a4,s9,301c <__call_exitprocs+0xb0>
    30a0:	f80786e3          	beqz	a5,302c <__call_exitprocs+0xc0>
    30a4:	00078913          	mv	s2,a5
    30a8:	f21ff06f          	j	2fc8 <__call_exitprocs+0x5c>
    30ac:	00892223          	sw	s0,4(s2)
    30b0:	f45ff06f          	j	2ff4 <__call_exitprocs+0x88>
    30b4:	00058513          	mv	a0,a1
    30b8:	000680e7          	jalr	a3
    30bc:	f55ff06f          	j	3010 <__call_exitprocs+0xa4>

000030c0 <register_fini>:
    30c0:	00000793          	li	a5,0
    30c4:	00078863          	beqz	a5,30d4 <register_fini+0x14>
    30c8:	00005517          	auipc	a0,0x5
    30cc:	8bc50513          	add	a0,a0,-1860 # 7984 <__libc_fini_array>
    30d0:	dd9fe06f          	j	1ea8 <atexit>
    30d4:	00008067          	ret

000030d8 <_malloc_trim_r>:
    30d8:	fe010113          	add	sp,sp,-32
    30dc:	00812c23          	sw	s0,24(sp)
    30e0:	00912a23          	sw	s1,20(sp)
    30e4:	01212823          	sw	s2,16(sp)
    30e8:	01312623          	sw	s3,12(sp)
    30ec:	01412423          	sw	s4,8(sp)
    30f0:	00058993          	mv	s3,a1
    30f4:	00112e23          	sw	ra,28(sp)
    30f8:	00050913          	mv	s2,a0
    30fc:	00013a17          	auipc	s4,0x13
    3100:	a6ca0a13          	add	s4,s4,-1428 # 15b68 <__malloc_av_>
    3104:	411000ef          	jal	3d14 <__malloc_lock>
    3108:	008a2703          	lw	a4,8(s4)
    310c:	000017b7          	lui	a5,0x1
    3110:	fef78793          	add	a5,a5,-17 # fef <altera_avalon_jtag_uart_write+0x103>
    3114:	00472483          	lw	s1,4(a4)
    3118:	00001737          	lui	a4,0x1
    311c:	ffc4f493          	and	s1,s1,-4
    3120:	00f48433          	add	s0,s1,a5
    3124:	41340433          	sub	s0,s0,s3
    3128:	00c45413          	srl	s0,s0,0xc
    312c:	fff40413          	add	s0,s0,-1
    3130:	00c41413          	sll	s0,s0,0xc
    3134:	00e44e63          	blt	s0,a4,3150 <_malloc_trim_r+0x78>
    3138:	00000593          	li	a1,0
    313c:	00090513          	mv	a0,s2
    3140:	7ec040ef          	jal	792c <_sbrk_r>
    3144:	008a2783          	lw	a5,8(s4)
    3148:	009787b3          	add	a5,a5,s1
    314c:	02f50863          	beq	a0,a5,317c <_malloc_trim_r+0xa4>
    3150:	00090513          	mv	a0,s2
    3154:	3cd000ef          	jal	3d20 <__malloc_unlock>
    3158:	01c12083          	lw	ra,28(sp)
    315c:	01812403          	lw	s0,24(sp)
    3160:	01412483          	lw	s1,20(sp)
    3164:	01012903          	lw	s2,16(sp)
    3168:	00c12983          	lw	s3,12(sp)
    316c:	00812a03          	lw	s4,8(sp)
    3170:	00000513          	li	a0,0
    3174:	02010113          	add	sp,sp,32
    3178:	00008067          	ret
    317c:	408005b3          	neg	a1,s0
    3180:	00090513          	mv	a0,s2
    3184:	7a8040ef          	jal	792c <_sbrk_r>
    3188:	fff00793          	li	a5,-1
    318c:	04f50a63          	beq	a0,a5,31e0 <_malloc_trim_r+0x108>
    3190:	00015717          	auipc	a4,0x15
    3194:	c1870713          	add	a4,a4,-1000 # 17da8 <__malloc_current_mallinfo>
    3198:	00072783          	lw	a5,0(a4)
    319c:	008a2683          	lw	a3,8(s4)
    31a0:	408484b3          	sub	s1,s1,s0
    31a4:	0014e493          	or	s1,s1,1
    31a8:	408787b3          	sub	a5,a5,s0
    31ac:	00090513          	mv	a0,s2
    31b0:	0096a223          	sw	s1,4(a3)
    31b4:	00f72023          	sw	a5,0(a4)
    31b8:	369000ef          	jal	3d20 <__malloc_unlock>
    31bc:	01c12083          	lw	ra,28(sp)
    31c0:	01812403          	lw	s0,24(sp)
    31c4:	01412483          	lw	s1,20(sp)
    31c8:	01012903          	lw	s2,16(sp)
    31cc:	00c12983          	lw	s3,12(sp)
    31d0:	00812a03          	lw	s4,8(sp)
    31d4:	00100513          	li	a0,1
    31d8:	02010113          	add	sp,sp,32
    31dc:	00008067          	ret
    31e0:	00000593          	li	a1,0
    31e4:	00090513          	mv	a0,s2
    31e8:	744040ef          	jal	792c <_sbrk_r>
    31ec:	008a2703          	lw	a4,8(s4)
    31f0:	00f00693          	li	a3,15
    31f4:	40e507b3          	sub	a5,a0,a4
    31f8:	f4f6dce3          	bge	a3,a5,3150 <_malloc_trim_r+0x78>
    31fc:	8281a683          	lw	a3,-2008(gp) # 16104 <__malloc_sbrk_base>
    3200:	40d50533          	sub	a0,a0,a3
    3204:	0017e793          	or	a5,a5,1
    3208:	00015697          	auipc	a3,0x15
    320c:	baa6a023          	sw	a0,-1120(a3) # 17da8 <__malloc_current_mallinfo>
    3210:	00f72223          	sw	a5,4(a4)
    3214:	f3dff06f          	j	3150 <_malloc_trim_r+0x78>

00003218 <_free_r>:
    3218:	18058263          	beqz	a1,339c <_free_r+0x184>
    321c:	ff010113          	add	sp,sp,-16
    3220:	00812423          	sw	s0,8(sp)
    3224:	00912223          	sw	s1,4(sp)
    3228:	00058413          	mv	s0,a1
    322c:	00050493          	mv	s1,a0
    3230:	00112623          	sw	ra,12(sp)
    3234:	2e1000ef          	jal	3d14 <__malloc_lock>
    3238:	ffc42583          	lw	a1,-4(s0)
    323c:	ff840713          	add	a4,s0,-8
    3240:	00013517          	auipc	a0,0x13
    3244:	92850513          	add	a0,a0,-1752 # 15b68 <__malloc_av_>
    3248:	ffe5f793          	and	a5,a1,-2
    324c:	00f70633          	add	a2,a4,a5
    3250:	00462683          	lw	a3,4(a2)
    3254:	00852803          	lw	a6,8(a0)
    3258:	ffc6f693          	and	a3,a3,-4
    325c:	1ac80263          	beq	a6,a2,3400 <_free_r+0x1e8>
    3260:	00d62223          	sw	a3,4(a2)
    3264:	0015f593          	and	a1,a1,1
    3268:	00d60833          	add	a6,a2,a3
    326c:	0a059063          	bnez	a1,330c <_free_r+0xf4>
    3270:	ff842303          	lw	t1,-8(s0)
    3274:	00482583          	lw	a1,4(a6)
    3278:	00013897          	auipc	a7,0x13
    327c:	8f888893          	add	a7,a7,-1800 # 15b70 <__malloc_av_+0x8>
    3280:	40670733          	sub	a4,a4,t1
    3284:	00872803          	lw	a6,8(a4)
    3288:	006787b3          	add	a5,a5,t1
    328c:	0015f593          	and	a1,a1,1
    3290:	15180263          	beq	a6,a7,33d4 <_free_r+0x1bc>
    3294:	00c72303          	lw	t1,12(a4)
    3298:	00682623          	sw	t1,12(a6)
    329c:	01032423          	sw	a6,8(t1)
    32a0:	1a058863          	beqz	a1,3450 <_free_r+0x238>
    32a4:	0017e693          	or	a3,a5,1
    32a8:	00d72223          	sw	a3,4(a4)
    32ac:	00f62023          	sw	a5,0(a2)
    32b0:	1ff00693          	li	a3,511
    32b4:	06f6ec63          	bltu	a3,a5,332c <_free_r+0x114>
    32b8:	ff87f693          	and	a3,a5,-8
    32bc:	00868693          	add	a3,a3,8
    32c0:	00452583          	lw	a1,4(a0)
    32c4:	00d506b3          	add	a3,a0,a3
    32c8:	0006a603          	lw	a2,0(a3)
    32cc:	0057d813          	srl	a6,a5,0x5
    32d0:	00100793          	li	a5,1
    32d4:	010797b3          	sll	a5,a5,a6
    32d8:	00b7e7b3          	or	a5,a5,a1
    32dc:	ff868593          	add	a1,a3,-8
    32e0:	00b72623          	sw	a1,12(a4)
    32e4:	00c72423          	sw	a2,8(a4)
    32e8:	00f52223          	sw	a5,4(a0)
    32ec:	00e6a023          	sw	a4,0(a3)
    32f0:	00e62623          	sw	a4,12(a2)
    32f4:	00812403          	lw	s0,8(sp)
    32f8:	00c12083          	lw	ra,12(sp)
    32fc:	00048513          	mv	a0,s1
    3300:	00412483          	lw	s1,4(sp)
    3304:	01010113          	add	sp,sp,16
    3308:	2190006f          	j	3d20 <__malloc_unlock>
    330c:	00482583          	lw	a1,4(a6)
    3310:	0015f593          	and	a1,a1,1
    3314:	08058663          	beqz	a1,33a0 <_free_r+0x188>
    3318:	0017e693          	or	a3,a5,1
    331c:	fed42e23          	sw	a3,-4(s0)
    3320:	00f62023          	sw	a5,0(a2)
    3324:	1ff00693          	li	a3,511
    3328:	f8f6f8e3          	bgeu	a3,a5,32b8 <_free_r+0xa0>
    332c:	0097d693          	srl	a3,a5,0x9
    3330:	00400613          	li	a2,4
    3334:	12d66263          	bltu	a2,a3,3458 <_free_r+0x240>
    3338:	0067d693          	srl	a3,a5,0x6
    333c:	03968593          	add	a1,a3,57
    3340:	03868613          	add	a2,a3,56
    3344:	00359593          	sll	a1,a1,0x3
    3348:	00b505b3          	add	a1,a0,a1
    334c:	0005a683          	lw	a3,0(a1)
    3350:	ff858593          	add	a1,a1,-8
    3354:	00d59863          	bne	a1,a3,3364 <_free_r+0x14c>
    3358:	1580006f          	j	34b0 <_free_r+0x298>
    335c:	0086a683          	lw	a3,8(a3)
    3360:	00d58863          	beq	a1,a3,3370 <_free_r+0x158>
    3364:	0046a603          	lw	a2,4(a3)
    3368:	ffc67613          	and	a2,a2,-4
    336c:	fec7e8e3          	bltu	a5,a2,335c <_free_r+0x144>
    3370:	00c6a583          	lw	a1,12(a3)
    3374:	00b72623          	sw	a1,12(a4)
    3378:	00d72423          	sw	a3,8(a4)
    337c:	00812403          	lw	s0,8(sp)
    3380:	00c12083          	lw	ra,12(sp)
    3384:	00e5a423          	sw	a4,8(a1)
    3388:	00048513          	mv	a0,s1
    338c:	00412483          	lw	s1,4(sp)
    3390:	00e6a623          	sw	a4,12(a3)
    3394:	01010113          	add	sp,sp,16
    3398:	1890006f          	j	3d20 <__malloc_unlock>
    339c:	00008067          	ret
    33a0:	00d787b3          	add	a5,a5,a3
    33a4:	00012897          	auipc	a7,0x12
    33a8:	7cc88893          	add	a7,a7,1996 # 15b70 <__malloc_av_+0x8>
    33ac:	00862683          	lw	a3,8(a2)
    33b0:	0d168e63          	beq	a3,a7,348c <_free_r+0x274>
    33b4:	00c62803          	lw	a6,12(a2)
    33b8:	0017e593          	or	a1,a5,1
    33bc:	00f70633          	add	a2,a4,a5
    33c0:	0106a623          	sw	a6,12(a3)
    33c4:	00d82423          	sw	a3,8(a6)
    33c8:	00b72223          	sw	a1,4(a4)
    33cc:	00f62023          	sw	a5,0(a2)
    33d0:	ee1ff06f          	j	32b0 <_free_r+0x98>
    33d4:	12059e63          	bnez	a1,3510 <_free_r+0x2f8>
    33d8:	00862583          	lw	a1,8(a2)
    33dc:	00c62603          	lw	a2,12(a2)
    33e0:	00f686b3          	add	a3,a3,a5
    33e4:	0016e793          	or	a5,a3,1
    33e8:	00c5a623          	sw	a2,12(a1)
    33ec:	00b62423          	sw	a1,8(a2)
    33f0:	00f72223          	sw	a5,4(a4)
    33f4:	00d70733          	add	a4,a4,a3
    33f8:	00d72023          	sw	a3,0(a4)
    33fc:	ef9ff06f          	j	32f4 <_free_r+0xdc>
    3400:	0015f593          	and	a1,a1,1
    3404:	00d786b3          	add	a3,a5,a3
    3408:	02059063          	bnez	a1,3428 <_free_r+0x210>
    340c:	ff842583          	lw	a1,-8(s0)
    3410:	40b70733          	sub	a4,a4,a1
    3414:	00c72783          	lw	a5,12(a4)
    3418:	00872603          	lw	a2,8(a4)
    341c:	00b686b3          	add	a3,a3,a1
    3420:	00f62623          	sw	a5,12(a2)
    3424:	00c7a423          	sw	a2,8(a5)
    3428:	0016e793          	or	a5,a3,1
    342c:	00f72223          	sw	a5,4(a4)
    3430:	00e52423          	sw	a4,8(a0)
    3434:	82c1a783          	lw	a5,-2004(gp) # 16108 <__malloc_trim_threshold>
    3438:	eaf6eee3          	bltu	a3,a5,32f4 <_free_r+0xdc>
    343c:	00014597          	auipc	a1,0x14
    3440:	6185a583          	lw	a1,1560(a1) # 17a54 <__malloc_top_pad>
    3444:	00048513          	mv	a0,s1
    3448:	c91ff0ef          	jal	30d8 <_malloc_trim_r>
    344c:	ea9ff06f          	j	32f4 <_free_r+0xdc>
    3450:	00d787b3          	add	a5,a5,a3
    3454:	f59ff06f          	j	33ac <_free_r+0x194>
    3458:	01400613          	li	a2,20
    345c:	02d67063          	bgeu	a2,a3,347c <_free_r+0x264>
    3460:	05400613          	li	a2,84
    3464:	06d66463          	bltu	a2,a3,34cc <_free_r+0x2b4>
    3468:	00c7d693          	srl	a3,a5,0xc
    346c:	06f68593          	add	a1,a3,111
    3470:	06e68613          	add	a2,a3,110
    3474:	00359593          	sll	a1,a1,0x3
    3478:	ed1ff06f          	j	3348 <_free_r+0x130>
    347c:	05c68593          	add	a1,a3,92
    3480:	05b68613          	add	a2,a3,91
    3484:	00359593          	sll	a1,a1,0x3
    3488:	ec1ff06f          	j	3348 <_free_r+0x130>
    348c:	00e52a23          	sw	a4,20(a0)
    3490:	00e52823          	sw	a4,16(a0)
    3494:	0017e693          	or	a3,a5,1
    3498:	01172623          	sw	a7,12(a4)
    349c:	01172423          	sw	a7,8(a4)
    34a0:	00d72223          	sw	a3,4(a4)
    34a4:	00f70733          	add	a4,a4,a5
    34a8:	00f72023          	sw	a5,0(a4)
    34ac:	e49ff06f          	j	32f4 <_free_r+0xdc>
    34b0:	00452803          	lw	a6,4(a0)
    34b4:	40265613          	sra	a2,a2,0x2
    34b8:	00100793          	li	a5,1
    34bc:	00c797b3          	sll	a5,a5,a2
    34c0:	0107e7b3          	or	a5,a5,a6
    34c4:	00f52223          	sw	a5,4(a0)
    34c8:	eadff06f          	j	3374 <_free_r+0x15c>
    34cc:	15400613          	li	a2,340
    34d0:	00d66c63          	bltu	a2,a3,34e8 <_free_r+0x2d0>
    34d4:	00f7d693          	srl	a3,a5,0xf
    34d8:	07868593          	add	a1,a3,120
    34dc:	07768613          	add	a2,a3,119
    34e0:	00359593          	sll	a1,a1,0x3
    34e4:	e65ff06f          	j	3348 <_free_r+0x130>
    34e8:	55400613          	li	a2,1364
    34ec:	00d66c63          	bltu	a2,a3,3504 <_free_r+0x2ec>
    34f0:	0127d693          	srl	a3,a5,0x12
    34f4:	07d68593          	add	a1,a3,125
    34f8:	07c68613          	add	a2,a3,124
    34fc:	00359593          	sll	a1,a1,0x3
    3500:	e49ff06f          	j	3348 <_free_r+0x130>
    3504:	3f800593          	li	a1,1016
    3508:	07e00613          	li	a2,126
    350c:	e3dff06f          	j	3348 <_free_r+0x130>
    3510:	0017e693          	or	a3,a5,1
    3514:	00d72223          	sw	a3,4(a4)
    3518:	00f62023          	sw	a5,0(a2)
    351c:	dd9ff06f          	j	32f4 <_free_r+0xdc>

00003520 <malloc>:
    3520:	00050593          	mv	a1,a0
    3524:	8201a503          	lw	a0,-2016(gp) # 160fc <_impure_ptr>
    3528:	0100006f          	j	3538 <_malloc_r>

0000352c <free>:
    352c:	00050593          	mv	a1,a0
    3530:	8201a503          	lw	a0,-2016(gp) # 160fc <_impure_ptr>
    3534:	ce5ff06f          	j	3218 <_free_r>

00003538 <_malloc_r>:
    3538:	fd010113          	add	sp,sp,-48
    353c:	03212023          	sw	s2,32(sp)
    3540:	02112623          	sw	ra,44(sp)
    3544:	02812423          	sw	s0,40(sp)
    3548:	02912223          	sw	s1,36(sp)
    354c:	01312e23          	sw	s3,28(sp)
    3550:	00b58793          	add	a5,a1,11
    3554:	01600713          	li	a4,22
    3558:	00050913          	mv	s2,a0
    355c:	08f76263          	bltu	a4,a5,35e0 <_malloc_r+0xa8>
    3560:	01000793          	li	a5,16
    3564:	20b7e663          	bltu	a5,a1,3770 <_malloc_r+0x238>
    3568:	7ac000ef          	jal	3d14 <__malloc_lock>
    356c:	01800793          	li	a5,24
    3570:	00200593          	li	a1,2
    3574:	01000493          	li	s1,16
    3578:	00012997          	auipc	s3,0x12
    357c:	5f098993          	add	s3,s3,1520 # 15b68 <__malloc_av_>
    3580:	00f987b3          	add	a5,s3,a5
    3584:	0047a403          	lw	s0,4(a5)
    3588:	ff878713          	add	a4,a5,-8
    358c:	36e40263          	beq	s0,a4,38f0 <_malloc_r+0x3b8>
    3590:	00442783          	lw	a5,4(s0)
    3594:	00c42683          	lw	a3,12(s0)
    3598:	00842603          	lw	a2,8(s0)
    359c:	ffc7f793          	and	a5,a5,-4
    35a0:	00f407b3          	add	a5,s0,a5
    35a4:	0047a703          	lw	a4,4(a5)
    35a8:	00d62623          	sw	a3,12(a2)
    35ac:	00c6a423          	sw	a2,8(a3)
    35b0:	00176713          	or	a4,a4,1
    35b4:	00090513          	mv	a0,s2
    35b8:	00e7a223          	sw	a4,4(a5)
    35bc:	764000ef          	jal	3d20 <__malloc_unlock>
    35c0:	00840513          	add	a0,s0,8
    35c4:	02c12083          	lw	ra,44(sp)
    35c8:	02812403          	lw	s0,40(sp)
    35cc:	02412483          	lw	s1,36(sp)
    35d0:	02012903          	lw	s2,32(sp)
    35d4:	01c12983          	lw	s3,28(sp)
    35d8:	03010113          	add	sp,sp,48
    35dc:	00008067          	ret
    35e0:	ff87f493          	and	s1,a5,-8
    35e4:	1807c663          	bltz	a5,3770 <_malloc_r+0x238>
    35e8:	18b4e463          	bltu	s1,a1,3770 <_malloc_r+0x238>
    35ec:	728000ef          	jal	3d14 <__malloc_lock>
    35f0:	1f700793          	li	a5,503
    35f4:	4097f863          	bgeu	a5,s1,3a04 <_malloc_r+0x4cc>
    35f8:	0094d793          	srl	a5,s1,0x9
    35fc:	18078263          	beqz	a5,3780 <_malloc_r+0x248>
    3600:	00400713          	li	a4,4
    3604:	34f76e63          	bltu	a4,a5,3960 <_malloc_r+0x428>
    3608:	0064d793          	srl	a5,s1,0x6
    360c:	03978593          	add	a1,a5,57
    3610:	03878813          	add	a6,a5,56
    3614:	00359613          	sll	a2,a1,0x3
    3618:	00012997          	auipc	s3,0x12
    361c:	55098993          	add	s3,s3,1360 # 15b68 <__malloc_av_>
    3620:	00c98633          	add	a2,s3,a2
    3624:	00462403          	lw	s0,4(a2)
    3628:	ff860613          	add	a2,a2,-8
    362c:	02860863          	beq	a2,s0,365c <_malloc_r+0x124>
    3630:	00f00513          	li	a0,15
    3634:	0140006f          	j	3648 <_malloc_r+0x110>
    3638:	00c42683          	lw	a3,12(s0)
    363c:	2a075663          	bgez	a4,38e8 <_malloc_r+0x3b0>
    3640:	00d60e63          	beq	a2,a3,365c <_malloc_r+0x124>
    3644:	00068413          	mv	s0,a3
    3648:	00442783          	lw	a5,4(s0)
    364c:	ffc7f793          	and	a5,a5,-4
    3650:	40978733          	sub	a4,a5,s1
    3654:	fee552e3          	bge	a0,a4,3638 <_malloc_r+0x100>
    3658:	00080593          	mv	a1,a6
    365c:	0109a403          	lw	s0,16(s3)
    3660:	00012897          	auipc	a7,0x12
    3664:	51088893          	add	a7,a7,1296 # 15b70 <__malloc_av_+0x8>
    3668:	27140c63          	beq	s0,a7,38e0 <_malloc_r+0x3a8>
    366c:	00442783          	lw	a5,4(s0)
    3670:	00f00693          	li	a3,15
    3674:	ffc7f793          	and	a5,a5,-4
    3678:	40978733          	sub	a4,a5,s1
    367c:	38e6ca63          	blt	a3,a4,3a10 <_malloc_r+0x4d8>
    3680:	0119aa23          	sw	a7,20(s3)
    3684:	0119a823          	sw	a7,16(s3)
    3688:	34075e63          	bgez	a4,39e4 <_malloc_r+0x4ac>
    368c:	1ff00713          	li	a4,511
    3690:	0049a503          	lw	a0,4(s3)
    3694:	26f76663          	bltu	a4,a5,3900 <_malloc_r+0x3c8>
    3698:	ff87f713          	and	a4,a5,-8
    369c:	00870713          	add	a4,a4,8
    36a0:	00e98733          	add	a4,s3,a4
    36a4:	00072683          	lw	a3,0(a4)
    36a8:	0057d613          	srl	a2,a5,0x5
    36ac:	00100793          	li	a5,1
    36b0:	00c797b3          	sll	a5,a5,a2
    36b4:	00f56533          	or	a0,a0,a5
    36b8:	ff870793          	add	a5,a4,-8
    36bc:	00f42623          	sw	a5,12(s0)
    36c0:	00d42423          	sw	a3,8(s0)
    36c4:	00a9a223          	sw	a0,4(s3)
    36c8:	00872023          	sw	s0,0(a4)
    36cc:	0086a623          	sw	s0,12(a3)
    36d0:	4025d793          	sra	a5,a1,0x2
    36d4:	00100613          	li	a2,1
    36d8:	00f61633          	sll	a2,a2,a5
    36dc:	0ac56a63          	bltu	a0,a2,3790 <_malloc_r+0x258>
    36e0:	00a677b3          	and	a5,a2,a0
    36e4:	02079463          	bnez	a5,370c <_malloc_r+0x1d4>
    36e8:	00161613          	sll	a2,a2,0x1
    36ec:	ffc5f593          	and	a1,a1,-4
    36f0:	00a677b3          	and	a5,a2,a0
    36f4:	00458593          	add	a1,a1,4
    36f8:	00079a63          	bnez	a5,370c <_malloc_r+0x1d4>
    36fc:	00161613          	sll	a2,a2,0x1
    3700:	00a677b3          	and	a5,a2,a0
    3704:	00458593          	add	a1,a1,4
    3708:	fe078ae3          	beqz	a5,36fc <_malloc_r+0x1c4>
    370c:	00f00813          	li	a6,15
    3710:	00359313          	sll	t1,a1,0x3
    3714:	00698333          	add	t1,s3,t1
    3718:	00030513          	mv	a0,t1
    371c:	00c52783          	lw	a5,12(a0)
    3720:	00058e13          	mv	t3,a1
    3724:	26f50063          	beq	a0,a5,3984 <_malloc_r+0x44c>
    3728:	0047a703          	lw	a4,4(a5)
    372c:	00078413          	mv	s0,a5
    3730:	00c7a783          	lw	a5,12(a5)
    3734:	ffc77713          	and	a4,a4,-4
    3738:	409706b3          	sub	a3,a4,s1
    373c:	26d84063          	blt	a6,a3,399c <_malloc_r+0x464>
    3740:	fe06c2e3          	bltz	a3,3724 <_malloc_r+0x1ec>
    3744:	00e40733          	add	a4,s0,a4
    3748:	00472683          	lw	a3,4(a4)
    374c:	00842603          	lw	a2,8(s0)
    3750:	00090513          	mv	a0,s2
    3754:	0016e693          	or	a3,a3,1
    3758:	00d72223          	sw	a3,4(a4)
    375c:	00f62623          	sw	a5,12(a2)
    3760:	00c7a423          	sw	a2,8(a5)
    3764:	5bc000ef          	jal	3d20 <__malloc_unlock>
    3768:	00840513          	add	a0,s0,8
    376c:	e59ff06f          	j	35c4 <_malloc_r+0x8c>
    3770:	00c00793          	li	a5,12
    3774:	00f92023          	sw	a5,0(s2)
    3778:	00000513          	li	a0,0
    377c:	e49ff06f          	j	35c4 <_malloc_r+0x8c>
    3780:	20000613          	li	a2,512
    3784:	04000593          	li	a1,64
    3788:	03f00813          	li	a6,63
    378c:	e8dff06f          	j	3618 <_malloc_r+0xe0>
    3790:	0089a403          	lw	s0,8(s3)
    3794:	01612823          	sw	s6,16(sp)
    3798:	00442783          	lw	a5,4(s0)
    379c:	ffc7fb13          	and	s6,a5,-4
    37a0:	009b6863          	bltu	s6,s1,37b0 <_malloc_r+0x278>
    37a4:	409b0733          	sub	a4,s6,s1
    37a8:	00f00793          	li	a5,15
    37ac:	0ee7c863          	blt	a5,a4,389c <_malloc_r+0x364>
    37b0:	01912223          	sw	s9,4(sp)
    37b4:	82818c93          	add	s9,gp,-2008 # 16104 <__malloc_sbrk_base>
    37b8:	000ca703          	lw	a4,0(s9)
    37bc:	01412c23          	sw	s4,24(sp)
    37c0:	01512a23          	sw	s5,20(sp)
    37c4:	01712623          	sw	s7,12(sp)
    37c8:	00014a97          	auipc	s5,0x14
    37cc:	28caaa83          	lw	s5,652(s5) # 17a54 <__malloc_top_pad>
    37d0:	fff00793          	li	a5,-1
    37d4:	01640a33          	add	s4,s0,s6
    37d8:	01548ab3          	add	s5,s1,s5
    37dc:	3ef70263          	beq	a4,a5,3bc0 <_malloc_r+0x688>
    37e0:	000017b7          	lui	a5,0x1
    37e4:	00f78793          	add	a5,a5,15 # 100f <altera_avalon_jtag_uart_write+0x123>
    37e8:	00fa8ab3          	add	s5,s5,a5
    37ec:	fffff7b7          	lui	a5,0xfffff
    37f0:	00fafab3          	and	s5,s5,a5
    37f4:	000a8593          	mv	a1,s5
    37f8:	00090513          	mv	a0,s2
    37fc:	130040ef          	jal	792c <_sbrk_r>
    3800:	fff00793          	li	a5,-1
    3804:	00050b93          	mv	s7,a0
    3808:	46f50663          	beq	a0,a5,3c74 <_malloc_r+0x73c>
    380c:	01812423          	sw	s8,8(sp)
    3810:	25456863          	bltu	a0,s4,3a60 <_malloc_r+0x528>
    3814:	00014c17          	auipc	s8,0x14
    3818:	594c0c13          	add	s8,s8,1428 # 17da8 <__malloc_current_mallinfo>
    381c:	000c2583          	lw	a1,0(s8)
    3820:	00ba85b3          	add	a1,s5,a1
    3824:	00bc2023          	sw	a1,0(s8)
    3828:	00058713          	mv	a4,a1
    382c:	2caa1063          	bne	s4,a0,3aec <_malloc_r+0x5b4>
    3830:	01451793          	sll	a5,a0,0x14
    3834:	2a079c63          	bnez	a5,3aec <_malloc_r+0x5b4>
    3838:	0089ab83          	lw	s7,8(s3)
    383c:	015b07b3          	add	a5,s6,s5
    3840:	0017e793          	or	a5,a5,1
    3844:	00fba223          	sw	a5,4(s7)
    3848:	00014717          	auipc	a4,0x14
    384c:	20870713          	add	a4,a4,520 # 17a50 <__malloc_max_sbrked_mem>
    3850:	00072683          	lw	a3,0(a4)
    3854:	00b6f463          	bgeu	a3,a1,385c <_malloc_r+0x324>
    3858:	00b72023          	sw	a1,0(a4)
    385c:	00014717          	auipc	a4,0x14
    3860:	1f070713          	add	a4,a4,496 # 17a4c <__malloc_max_total_mem>
    3864:	00072683          	lw	a3,0(a4)
    3868:	00b6f463          	bgeu	a3,a1,3870 <_malloc_r+0x338>
    386c:	00b72023          	sw	a1,0(a4)
    3870:	00812c03          	lw	s8,8(sp)
    3874:	000b8413          	mv	s0,s7
    3878:	ffc7f793          	and	a5,a5,-4
    387c:	40978733          	sub	a4,a5,s1
    3880:	3897ec63          	bltu	a5,s1,3c18 <_malloc_r+0x6e0>
    3884:	00f00793          	li	a5,15
    3888:	38e7d863          	bge	a5,a4,3c18 <_malloc_r+0x6e0>
    388c:	01812a03          	lw	s4,24(sp)
    3890:	01412a83          	lw	s5,20(sp)
    3894:	00c12b83          	lw	s7,12(sp)
    3898:	00412c83          	lw	s9,4(sp)
    389c:	0014e793          	or	a5,s1,1
    38a0:	00f42223          	sw	a5,4(s0)
    38a4:	009404b3          	add	s1,s0,s1
    38a8:	0099a423          	sw	s1,8(s3)
    38ac:	00176713          	or	a4,a4,1
    38b0:	00090513          	mv	a0,s2
    38b4:	00e4a223          	sw	a4,4(s1)
    38b8:	468000ef          	jal	3d20 <__malloc_unlock>
    38bc:	02c12083          	lw	ra,44(sp)
    38c0:	00840513          	add	a0,s0,8
    38c4:	02812403          	lw	s0,40(sp)
    38c8:	01012b03          	lw	s6,16(sp)
    38cc:	02412483          	lw	s1,36(sp)
    38d0:	02012903          	lw	s2,32(sp)
    38d4:	01c12983          	lw	s3,28(sp)
    38d8:	03010113          	add	sp,sp,48
    38dc:	00008067          	ret
    38e0:	0049a503          	lw	a0,4(s3)
    38e4:	dedff06f          	j	36d0 <_malloc_r+0x198>
    38e8:	00842603          	lw	a2,8(s0)
    38ec:	cb5ff06f          	j	35a0 <_malloc_r+0x68>
    38f0:	00c7a403          	lw	s0,12(a5) # fffff00c <__alt_data_end+0xfffdf00c>
    38f4:	00258593          	add	a1,a1,2
    38f8:	d68782e3          	beq	a5,s0,365c <_malloc_r+0x124>
    38fc:	c95ff06f          	j	3590 <_malloc_r+0x58>
    3900:	0097d713          	srl	a4,a5,0x9
    3904:	00400693          	li	a3,4
    3908:	14e6f263          	bgeu	a3,a4,3a4c <_malloc_r+0x514>
    390c:	01400693          	li	a3,20
    3910:	32e6e663          	bltu	a3,a4,3c3c <_malloc_r+0x704>
    3914:	05c70613          	add	a2,a4,92
    3918:	05b70693          	add	a3,a4,91
    391c:	00361613          	sll	a2,a2,0x3
    3920:	00c98633          	add	a2,s3,a2
    3924:	00062703          	lw	a4,0(a2)
    3928:	ff860613          	add	a2,a2,-8
    392c:	00e61863          	bne	a2,a4,393c <_malloc_r+0x404>
    3930:	2980006f          	j	3bc8 <_malloc_r+0x690>
    3934:	00872703          	lw	a4,8(a4)
    3938:	00e60863          	beq	a2,a4,3948 <_malloc_r+0x410>
    393c:	00472683          	lw	a3,4(a4)
    3940:	ffc6f693          	and	a3,a3,-4
    3944:	fed7e8e3          	bltu	a5,a3,3934 <_malloc_r+0x3fc>
    3948:	00c72603          	lw	a2,12(a4)
    394c:	00c42623          	sw	a2,12(s0)
    3950:	00e42423          	sw	a4,8(s0)
    3954:	00862423          	sw	s0,8(a2)
    3958:	00872623          	sw	s0,12(a4)
    395c:	d75ff06f          	j	36d0 <_malloc_r+0x198>
    3960:	01400713          	li	a4,20
    3964:	10f77863          	bgeu	a4,a5,3a74 <_malloc_r+0x53c>
    3968:	05400713          	li	a4,84
    396c:	2ef76663          	bltu	a4,a5,3c58 <_malloc_r+0x720>
    3970:	00c4d793          	srl	a5,s1,0xc
    3974:	06f78593          	add	a1,a5,111
    3978:	06e78813          	add	a6,a5,110
    397c:	00359613          	sll	a2,a1,0x3
    3980:	c99ff06f          	j	3618 <_malloc_r+0xe0>
    3984:	001e0e13          	add	t3,t3,1
    3988:	003e7793          	and	a5,t3,3
    398c:	00850513          	add	a0,a0,8
    3990:	10078063          	beqz	a5,3a90 <_malloc_r+0x558>
    3994:	00c52783          	lw	a5,12(a0)
    3998:	d8dff06f          	j	3724 <_malloc_r+0x1ec>
    399c:	00842603          	lw	a2,8(s0)
    39a0:	0014e593          	or	a1,s1,1
    39a4:	00b42223          	sw	a1,4(s0)
    39a8:	00f62623          	sw	a5,12(a2)
    39ac:	00c7a423          	sw	a2,8(a5)
    39b0:	009404b3          	add	s1,s0,s1
    39b4:	0099aa23          	sw	s1,20(s3)
    39b8:	0099a823          	sw	s1,16(s3)
    39bc:	0016e793          	or	a5,a3,1
    39c0:	0114a623          	sw	a7,12(s1)
    39c4:	0114a423          	sw	a7,8(s1)
    39c8:	00f4a223          	sw	a5,4(s1)
    39cc:	00e40733          	add	a4,s0,a4
    39d0:	00090513          	mv	a0,s2
    39d4:	00d72023          	sw	a3,0(a4)
    39d8:	348000ef          	jal	3d20 <__malloc_unlock>
    39dc:	00840513          	add	a0,s0,8
    39e0:	be5ff06f          	j	35c4 <_malloc_r+0x8c>
    39e4:	00f407b3          	add	a5,s0,a5
    39e8:	0047a703          	lw	a4,4(a5)
    39ec:	00090513          	mv	a0,s2
    39f0:	00176713          	or	a4,a4,1
    39f4:	00e7a223          	sw	a4,4(a5)
    39f8:	328000ef          	jal	3d20 <__malloc_unlock>
    39fc:	00840513          	add	a0,s0,8
    3a00:	bc5ff06f          	j	35c4 <_malloc_r+0x8c>
    3a04:	0034d593          	srl	a1,s1,0x3
    3a08:	00848793          	add	a5,s1,8
    3a0c:	b6dff06f          	j	3578 <_malloc_r+0x40>
    3a10:	0014e693          	or	a3,s1,1
    3a14:	00d42223          	sw	a3,4(s0)
    3a18:	009404b3          	add	s1,s0,s1
    3a1c:	0099aa23          	sw	s1,20(s3)
    3a20:	0099a823          	sw	s1,16(s3)
    3a24:	00176693          	or	a3,a4,1
    3a28:	0114a623          	sw	a7,12(s1)
    3a2c:	0114a423          	sw	a7,8(s1)
    3a30:	00d4a223          	sw	a3,4(s1)
    3a34:	00f407b3          	add	a5,s0,a5
    3a38:	00090513          	mv	a0,s2
    3a3c:	00e7a023          	sw	a4,0(a5)
    3a40:	2e0000ef          	jal	3d20 <__malloc_unlock>
    3a44:	00840513          	add	a0,s0,8
    3a48:	b7dff06f          	j	35c4 <_malloc_r+0x8c>
    3a4c:	0067d713          	srl	a4,a5,0x6
    3a50:	03970613          	add	a2,a4,57
    3a54:	03870693          	add	a3,a4,56
    3a58:	00361613          	sll	a2,a2,0x3
    3a5c:	ec5ff06f          	j	3920 <_malloc_r+0x3e8>
    3a60:	07340c63          	beq	s0,s3,3ad8 <_malloc_r+0x5a0>
    3a64:	0089a403          	lw	s0,8(s3)
    3a68:	00812c03          	lw	s8,8(sp)
    3a6c:	00442783          	lw	a5,4(s0)
    3a70:	e09ff06f          	j	3878 <_malloc_r+0x340>
    3a74:	05c78593          	add	a1,a5,92
    3a78:	05b78813          	add	a6,a5,91
    3a7c:	00359613          	sll	a2,a1,0x3
    3a80:	b99ff06f          	j	3618 <_malloc_r+0xe0>
    3a84:	00832783          	lw	a5,8(t1)
    3a88:	fff58593          	add	a1,a1,-1
    3a8c:	28679063          	bne	a5,t1,3d0c <_malloc_r+0x7d4>
    3a90:	0035f793          	and	a5,a1,3
    3a94:	ff830313          	add	t1,t1,-8
    3a98:	fe0796e3          	bnez	a5,3a84 <_malloc_r+0x54c>
    3a9c:	0049a703          	lw	a4,4(s3)
    3aa0:	fff64793          	not	a5,a2
    3aa4:	00e7f7b3          	and	a5,a5,a4
    3aa8:	00f9a223          	sw	a5,4(s3)
    3aac:	00161613          	sll	a2,a2,0x1
    3ab0:	cec7e0e3          	bltu	a5,a2,3790 <_malloc_r+0x258>
    3ab4:	cc060ee3          	beqz	a2,3790 <_malloc_r+0x258>
    3ab8:	00f67733          	and	a4,a2,a5
    3abc:	00071a63          	bnez	a4,3ad0 <_malloc_r+0x598>
    3ac0:	00161613          	sll	a2,a2,0x1
    3ac4:	00f67733          	and	a4,a2,a5
    3ac8:	004e0e13          	add	t3,t3,4
    3acc:	fe070ae3          	beqz	a4,3ac0 <_malloc_r+0x588>
    3ad0:	000e0593          	mv	a1,t3
    3ad4:	c3dff06f          	j	3710 <_malloc_r+0x1d8>
    3ad8:	00014c17          	auipc	s8,0x14
    3adc:	2d0c0c13          	add	s8,s8,720 # 17da8 <__malloc_current_mallinfo>
    3ae0:	000c2703          	lw	a4,0(s8)
    3ae4:	00ea8733          	add	a4,s5,a4
    3ae8:	00ec2023          	sw	a4,0(s8)
    3aec:	000ca683          	lw	a3,0(s9)
    3af0:	fff00793          	li	a5,-1
    3af4:	18f68663          	beq	a3,a5,3c80 <_malloc_r+0x748>
    3af8:	414b87b3          	sub	a5,s7,s4
    3afc:	00e787b3          	add	a5,a5,a4
    3b00:	00fc2023          	sw	a5,0(s8)
    3b04:	007bfc93          	and	s9,s7,7
    3b08:	0c0c8c63          	beqz	s9,3be0 <_malloc_r+0x6a8>
    3b0c:	419b8bb3          	sub	s7,s7,s9
    3b10:	000017b7          	lui	a5,0x1
    3b14:	00878793          	add	a5,a5,8 # 1008 <altera_avalon_jtag_uart_write+0x11c>
    3b18:	008b8b93          	add	s7,s7,8
    3b1c:	419785b3          	sub	a1,a5,s9
    3b20:	015b8ab3          	add	s5,s7,s5
    3b24:	415585b3          	sub	a1,a1,s5
    3b28:	01459593          	sll	a1,a1,0x14
    3b2c:	0145da13          	srl	s4,a1,0x14
    3b30:	000a0593          	mv	a1,s4
    3b34:	00090513          	mv	a0,s2
    3b38:	5f5030ef          	jal	792c <_sbrk_r>
    3b3c:	fff00793          	li	a5,-1
    3b40:	18f50063          	beq	a0,a5,3cc0 <_malloc_r+0x788>
    3b44:	41750533          	sub	a0,a0,s7
    3b48:	01450ab3          	add	s5,a0,s4
    3b4c:	000c2703          	lw	a4,0(s8)
    3b50:	0179a423          	sw	s7,8(s3)
    3b54:	001ae793          	or	a5,s5,1
    3b58:	00ea05b3          	add	a1,s4,a4
    3b5c:	00bc2023          	sw	a1,0(s8)
    3b60:	00fba223          	sw	a5,4(s7)
    3b64:	cf3402e3          	beq	s0,s3,3848 <_malloc_r+0x310>
    3b68:	00f00693          	li	a3,15
    3b6c:	0b66f063          	bgeu	a3,s6,3c0c <_malloc_r+0x6d4>
    3b70:	00442703          	lw	a4,4(s0)
    3b74:	ff4b0793          	add	a5,s6,-12
    3b78:	ff87f793          	and	a5,a5,-8
    3b7c:	00177713          	and	a4,a4,1
    3b80:	00f76733          	or	a4,a4,a5
    3b84:	00e42223          	sw	a4,4(s0)
    3b88:	00500613          	li	a2,5
    3b8c:	00f40733          	add	a4,s0,a5
    3b90:	00c72223          	sw	a2,4(a4)
    3b94:	00c72423          	sw	a2,8(a4)
    3b98:	00f6e663          	bltu	a3,a5,3ba4 <_malloc_r+0x66c>
    3b9c:	004ba783          	lw	a5,4(s7)
    3ba0:	ca9ff06f          	j	3848 <_malloc_r+0x310>
    3ba4:	00840593          	add	a1,s0,8
    3ba8:	00090513          	mv	a0,s2
    3bac:	e6cff0ef          	jal	3218 <_free_r>
    3bb0:	0089ab83          	lw	s7,8(s3)
    3bb4:	000c2583          	lw	a1,0(s8)
    3bb8:	004ba783          	lw	a5,4(s7)
    3bbc:	c8dff06f          	j	3848 <_malloc_r+0x310>
    3bc0:	010a8a93          	add	s5,s5,16
    3bc4:	c31ff06f          	j	37f4 <_malloc_r+0x2bc>
    3bc8:	4026d693          	sra	a3,a3,0x2
    3bcc:	00100793          	li	a5,1
    3bd0:	00d797b3          	sll	a5,a5,a3
    3bd4:	00f56533          	or	a0,a0,a5
    3bd8:	00a9a223          	sw	a0,4(s3)
    3bdc:	d71ff06f          	j	394c <_malloc_r+0x414>
    3be0:	015b85b3          	add	a1,s7,s5
    3be4:	40b005b3          	neg	a1,a1
    3be8:	01459593          	sll	a1,a1,0x14
    3bec:	0145da13          	srl	s4,a1,0x14
    3bf0:	000a0593          	mv	a1,s4
    3bf4:	00090513          	mv	a0,s2
    3bf8:	535030ef          	jal	792c <_sbrk_r>
    3bfc:	fff00793          	li	a5,-1
    3c00:	f4f512e3          	bne	a0,a5,3b44 <_malloc_r+0x60c>
    3c04:	00000a13          	li	s4,0
    3c08:	f45ff06f          	j	3b4c <_malloc_r+0x614>
    3c0c:	00812c03          	lw	s8,8(sp)
    3c10:	00100793          	li	a5,1
    3c14:	00fba223          	sw	a5,4(s7)
    3c18:	00090513          	mv	a0,s2
    3c1c:	104000ef          	jal	3d20 <__malloc_unlock>
    3c20:	00000513          	li	a0,0
    3c24:	01812a03          	lw	s4,24(sp)
    3c28:	01412a83          	lw	s5,20(sp)
    3c2c:	01012b03          	lw	s6,16(sp)
    3c30:	00c12b83          	lw	s7,12(sp)
    3c34:	00412c83          	lw	s9,4(sp)
    3c38:	98dff06f          	j	35c4 <_malloc_r+0x8c>
    3c3c:	05400693          	li	a3,84
    3c40:	04e6e463          	bltu	a3,a4,3c88 <_malloc_r+0x750>
    3c44:	00c7d713          	srl	a4,a5,0xc
    3c48:	06f70613          	add	a2,a4,111
    3c4c:	06e70693          	add	a3,a4,110
    3c50:	00361613          	sll	a2,a2,0x3
    3c54:	ccdff06f          	j	3920 <_malloc_r+0x3e8>
    3c58:	15400713          	li	a4,340
    3c5c:	04f76463          	bltu	a4,a5,3ca4 <_malloc_r+0x76c>
    3c60:	00f4d793          	srl	a5,s1,0xf
    3c64:	07878593          	add	a1,a5,120
    3c68:	07778813          	add	a6,a5,119
    3c6c:	00359613          	sll	a2,a1,0x3
    3c70:	9a9ff06f          	j	3618 <_malloc_r+0xe0>
    3c74:	0089a403          	lw	s0,8(s3)
    3c78:	00442783          	lw	a5,4(s0)
    3c7c:	bfdff06f          	j	3878 <_malloc_r+0x340>
    3c80:	017ca023          	sw	s7,0(s9)
    3c84:	e81ff06f          	j	3b04 <_malloc_r+0x5cc>
    3c88:	15400693          	li	a3,340
    3c8c:	04e6e463          	bltu	a3,a4,3cd4 <_malloc_r+0x79c>
    3c90:	00f7d713          	srl	a4,a5,0xf
    3c94:	07870613          	add	a2,a4,120
    3c98:	07770693          	add	a3,a4,119
    3c9c:	00361613          	sll	a2,a2,0x3
    3ca0:	c81ff06f          	j	3920 <_malloc_r+0x3e8>
    3ca4:	55400713          	li	a4,1364
    3ca8:	04f76463          	bltu	a4,a5,3cf0 <_malloc_r+0x7b8>
    3cac:	0124d793          	srl	a5,s1,0x12
    3cb0:	07d78593          	add	a1,a5,125
    3cb4:	07c78813          	add	a6,a5,124
    3cb8:	00359613          	sll	a2,a1,0x3
    3cbc:	95dff06f          	j	3618 <_malloc_r+0xe0>
    3cc0:	ff8c8c93          	add	s9,s9,-8
    3cc4:	019a8ab3          	add	s5,s5,s9
    3cc8:	417a8ab3          	sub	s5,s5,s7
    3ccc:	00000a13          	li	s4,0
    3cd0:	e7dff06f          	j	3b4c <_malloc_r+0x614>
    3cd4:	55400693          	li	a3,1364
    3cd8:	02e6e463          	bltu	a3,a4,3d00 <_malloc_r+0x7c8>
    3cdc:	0127d713          	srl	a4,a5,0x12
    3ce0:	07d70613          	add	a2,a4,125
    3ce4:	07c70693          	add	a3,a4,124
    3ce8:	00361613          	sll	a2,a2,0x3
    3cec:	c35ff06f          	j	3920 <_malloc_r+0x3e8>
    3cf0:	3f800613          	li	a2,1016
    3cf4:	07f00593          	li	a1,127
    3cf8:	07e00813          	li	a6,126
    3cfc:	91dff06f          	j	3618 <_malloc_r+0xe0>
    3d00:	3f800613          	li	a2,1016
    3d04:	07e00693          	li	a3,126
    3d08:	c19ff06f          	j	3920 <_malloc_r+0x3e8>
    3d0c:	0049a783          	lw	a5,4(s3)
    3d10:	d9dff06f          	j	3aac <_malloc_r+0x574>

00003d14 <__malloc_lock>:
    3d14:	00014517          	auipc	a0,0x14
    3d18:	d2450513          	add	a0,a0,-732 # 17a38 <__lock___malloc_recursive_mutex>
    3d1c:	e75fe06f          	j	2b90 <__retarget_lock_acquire_recursive>

00003d20 <__malloc_unlock>:
    3d20:	00014517          	auipc	a0,0x14
    3d24:	d1850513          	add	a0,a0,-744 # 17a38 <__lock___malloc_recursive_mutex>
    3d28:	e81fe06f          	j	2ba8 <__retarget_lock_release_recursive>

00003d2c <_vfprintf_r>:
    3d2c:	e3010113          	add	sp,sp,-464
    3d30:	1c112623          	sw	ra,460(sp)
    3d34:	1c812423          	sw	s0,456(sp)
    3d38:	1c912223          	sw	s1,452(sp)
    3d3c:	1d212023          	sw	s2,448(sp)
    3d40:	00058413          	mv	s0,a1
    3d44:	00060913          	mv	s2,a2
    3d48:	00d12a23          	sw	a3,20(sp)
    3d4c:	00050493          	mv	s1,a0
    3d50:	00a12423          	sw	a0,8(sp)
    3d54:	2a5030ef          	jal	77f8 <_localeconv_r>
    3d58:	00052703          	lw	a4,0(a0)
    3d5c:	00070513          	mv	a0,a4
    3d60:	02e12623          	sw	a4,44(sp)
    3d64:	589030ef          	jal	7aec <strlen>
    3d68:	02a12423          	sw	a0,40(sp)
    3d6c:	0c012823          	sw	zero,208(sp)
    3d70:	0c012a23          	sw	zero,212(sp)
    3d74:	0c012c23          	sw	zero,216(sp)
    3d78:	0c012e23          	sw	zero,220(sp)
    3d7c:	00048863          	beqz	s1,3d8c <_vfprintf_r+0x60>
    3d80:	0344a703          	lw	a4,52(s1)
    3d84:	00071463          	bnez	a4,3d8c <_vfprintf_r+0x60>
    3d88:	7a40106f          	j	552c <_vfprintf_r+0x1800>
    3d8c:	06442703          	lw	a4,100(s0)
    3d90:	00c41683          	lh	a3,12(s0)
    3d94:	00177613          	and	a2,a4,1
    3d98:	00061863          	bnez	a2,3da8 <_vfprintf_r+0x7c>
    3d9c:	2006f613          	and	a2,a3,512
    3da0:	00061463          	bnez	a2,3da8 <_vfprintf_r+0x7c>
    3da4:	3140106f          	j	50b8 <_vfprintf_r+0x138c>
    3da8:	01269613          	sll	a2,a3,0x12
    3dac:	02064063          	bltz	a2,3dcc <_vfprintf_r+0xa0>
    3db0:	ffffe637          	lui	a2,0xffffe
    3db4:	fff60613          	add	a2,a2,-1 # ffffdfff <__alt_data_end+0xfffddfff>
    3db8:	000025b7          	lui	a1,0x2
    3dbc:	00b6e6b3          	or	a3,a3,a1
    3dc0:	00c77733          	and	a4,a4,a2
    3dc4:	00d41623          	sh	a3,12(s0)
    3dc8:	06e42223          	sw	a4,100(s0)
    3dcc:	01271693          	sll	a3,a4,0x12
    3dd0:	0006d463          	bgez	a3,3dd8 <_vfprintf_r+0xac>
    3dd4:	00d0206f          	j	65e0 <_vfprintf_r+0x28b4>
    3dd8:	00c41683          	lh	a3,12(s0)
    3ddc:	0086f713          	and	a4,a3,8
    3de0:	30070663          	beqz	a4,40ec <_vfprintf_r+0x3c0>
    3de4:	01042703          	lw	a4,16(s0)
    3de8:	30070263          	beqz	a4,40ec <_vfprintf_r+0x3c0>
    3dec:	01a6f713          	and	a4,a3,26
    3df0:	00a00613          	li	a2,10
    3df4:	30c70e63          	beq	a4,a2,4110 <_vfprintf_r+0x3e4>
    3df8:	1b312e23          	sw	s3,444(sp)
    3dfc:	1b412c23          	sw	s4,440(sp)
    3e00:	1ba12023          	sw	s10,416(sp)
    3e04:	1b512a23          	sw	s5,436(sp)
    3e08:	1b612823          	sw	s6,432(sp)
    3e0c:	1b712623          	sw	s7,428(sp)
    3e10:	1b812423          	sw	s8,424(sp)
    3e14:	1b912223          	sw	s9,420(sp)
    3e18:	19b12e23          	sw	s11,412(sp)
    3e1c:	00090d13          	mv	s10,s2
    3e20:	000d4703          	lbu	a4,0(s10)
    3e24:	0ec10993          	add	s3,sp,236
    3e28:	0d312223          	sw	s3,196(sp)
    3e2c:	0c012623          	sw	zero,204(sp)
    3e30:	0c012423          	sw	zero,200(sp)
    3e34:	00012e23          	sw	zero,28(sp)
    3e38:	02012823          	sw	zero,48(sp)
    3e3c:	02012e23          	sw	zero,60(sp)
    3e40:	02012c23          	sw	zero,56(sp)
    3e44:	04012223          	sw	zero,68(sp)
    3e48:	04012023          	sw	zero,64(sp)
    3e4c:	00012623          	sw	zero,12(sp)
    3e50:	01000493          	li	s1,16
    3e54:	00098a13          	mv	s4,s3
    3e58:	22070463          	beqz	a4,4080 <_vfprintf_r+0x354>
    3e5c:	000d0a93          	mv	s5,s10
    3e60:	02500693          	li	a3,37
    3e64:	34d70463          	beq	a4,a3,41ac <_vfprintf_r+0x480>
    3e68:	001ac703          	lbu	a4,1(s5)
    3e6c:	001a8a93          	add	s5,s5,1
    3e70:	fe071ae3          	bnez	a4,3e64 <_vfprintf_r+0x138>
    3e74:	41aa8933          	sub	s2,s5,s10
    3e78:	21aa8463          	beq	s5,s10,4080 <_vfprintf_r+0x354>
    3e7c:	0cc12683          	lw	a3,204(sp)
    3e80:	0c812703          	lw	a4,200(sp)
    3e84:	01aa2023          	sw	s10,0(s4)
    3e88:	012686b3          	add	a3,a3,s2
    3e8c:	00170713          	add	a4,a4,1
    3e90:	012a2223          	sw	s2,4(s4)
    3e94:	0cd12623          	sw	a3,204(sp)
    3e98:	0ce12423          	sw	a4,200(sp)
    3e9c:	00700693          	li	a3,7
    3ea0:	008a0a13          	add	s4,s4,8
    3ea4:	30e6cc63          	blt	a3,a4,41bc <_vfprintf_r+0x490>
    3ea8:	00c12783          	lw	a5,12(sp)
    3eac:	000ac703          	lbu	a4,0(s5)
    3eb0:	012787b3          	add	a5,a5,s2
    3eb4:	00f12623          	sw	a5,12(sp)
    3eb8:	1c070463          	beqz	a4,4080 <_vfprintf_r+0x354>
    3ebc:	001ac883          	lbu	a7,1(s5)
    3ec0:	0a0103a3          	sb	zero,167(sp)
    3ec4:	001a8a93          	add	s5,s5,1
    3ec8:	fff00b13          	li	s6,-1
    3ecc:	00000b93          	li	s7,0
    3ed0:	00000c93          	li	s9,0
    3ed4:	05a00913          	li	s2,90
    3ed8:	001a8a93          	add	s5,s5,1
    3edc:	fe088793          	add	a5,a7,-32
    3ee0:	04f96a63          	bltu	s2,a5,3f34 <_vfprintf_r+0x208>
    3ee4:	00010717          	auipc	a4,0x10
    3ee8:	15070713          	add	a4,a4,336 # 14034 <__flash_rodata_start+0x194>
    3eec:	00279793          	sll	a5,a5,0x2
    3ef0:	00e787b3          	add	a5,a5,a4
    3ef4:	0007a783          	lw	a5,0(a5)
    3ef8:	00e787b3          	add	a5,a5,a4
    3efc:	00078067          	jr	a5
    3f00:	00000b93          	li	s7,0
    3f04:	fd088793          	add	a5,a7,-48
    3f08:	00900693          	li	a3,9
    3f0c:	000ac883          	lbu	a7,0(s5)
    3f10:	002b9713          	sll	a4,s7,0x2
    3f14:	01770bb3          	add	s7,a4,s7
    3f18:	001b9b93          	sll	s7,s7,0x1
    3f1c:	01778bb3          	add	s7,a5,s7
    3f20:	fd088793          	add	a5,a7,-48
    3f24:	001a8a93          	add	s5,s5,1
    3f28:	fef6f2e3          	bgeu	a3,a5,3f0c <_vfprintf_r+0x1e0>
    3f2c:	fe088793          	add	a5,a7,-32
    3f30:	faf97ae3          	bgeu	s2,a5,3ee4 <_vfprintf_r+0x1b8>
    3f34:	14088663          	beqz	a7,4080 <_vfprintf_r+0x354>
    3f38:	13110623          	sb	a7,300(sp)
    3f3c:	0a0103a3          	sb	zero,167(sp)
    3f40:	00100d93          	li	s11,1
    3f44:	00100913          	li	s2,1
    3f48:	12c10d13          	add	s10,sp,300
    3f4c:	00012823          	sw	zero,16(sp)
    3f50:	00000b13          	li	s6,0
    3f54:	02012223          	sw	zero,36(sp)
    3f58:	02012023          	sw	zero,32(sp)
    3f5c:	00012c23          	sw	zero,24(sp)
    3f60:	002cf293          	and	t0,s9,2
    3f64:	00028463          	beqz	t0,3f6c <_vfprintf_r+0x240>
    3f68:	002d8d93          	add	s11,s11,2
    3f6c:	084cff93          	and	t6,s9,132
    3f70:	0cc12603          	lw	a2,204(sp)
    3f74:	000f9663          	bnez	t6,3f80 <_vfprintf_r+0x254>
    3f78:	41bb8733          	sub	a4,s7,s11
    3f7c:	46e040e3          	bgtz	a4,4bdc <_vfprintf_r+0xeb0>
    3f80:	0a714703          	lbu	a4,167(sp)
    3f84:	02070a63          	beqz	a4,3fb8 <_vfprintf_r+0x28c>
    3f88:	0c812703          	lw	a4,200(sp)
    3f8c:	0a710593          	add	a1,sp,167
    3f90:	00ba2023          	sw	a1,0(s4)
    3f94:	00160613          	add	a2,a2,1
    3f98:	00100593          	li	a1,1
    3f9c:	00170713          	add	a4,a4,1
    3fa0:	00ba2223          	sw	a1,4(s4)
    3fa4:	0cc12623          	sw	a2,204(sp)
    3fa8:	0ce12423          	sw	a4,200(sp)
    3fac:	00700593          	li	a1,7
    3fb0:	008a0a13          	add	s4,s4,8
    3fb4:	34e5c263          	blt	a1,a4,42f8 <_vfprintf_r+0x5cc>
    3fb8:	02028a63          	beqz	t0,3fec <_vfprintf_r+0x2c0>
    3fbc:	0c812703          	lw	a4,200(sp)
    3fc0:	00200593          	li	a1,2
    3fc4:	00260613          	add	a2,a2,2
    3fc8:	00170713          	add	a4,a4,1
    3fcc:	0a810793          	add	a5,sp,168
    3fd0:	00ba2223          	sw	a1,4(s4)
    3fd4:	00fa2023          	sw	a5,0(s4)
    3fd8:	0cc12623          	sw	a2,204(sp)
    3fdc:	0ce12423          	sw	a4,200(sp)
    3fe0:	00700593          	li	a1,7
    3fe4:	008a0a13          	add	s4,s4,8
    3fe8:	50e5c0e3          	blt	a1,a4,4ce8 <_vfprintf_r+0xfbc>
    3fec:	08000713          	li	a4,128
    3ff0:	1cef88e3          	beq	t6,a4,49c0 <_vfprintf_r+0xc94>
    3ff4:	412b0b33          	sub	s6,s6,s2
    3ff8:	2d6042e3          	bgtz	s6,4abc <_vfprintf_r+0xd90>
    3ffc:	100cf713          	and	a4,s9,256
    4000:	7a071c63          	bnez	a4,47b8 <_vfprintf_r+0xa8c>
    4004:	0c812783          	lw	a5,200(sp)
    4008:	01260633          	add	a2,a2,s2
    400c:	01aa2023          	sw	s10,0(s4)
    4010:	00178793          	add	a5,a5,1
    4014:	012a2223          	sw	s2,4(s4)
    4018:	0cc12623          	sw	a2,204(sp)
    401c:	0cf12423          	sw	a5,200(sp)
    4020:	00700713          	li	a4,7
    4024:	40f74a63          	blt	a4,a5,4438 <_vfprintf_r+0x70c>
    4028:	008a0a13          	add	s4,s4,8
    402c:	004cfe13          	and	t3,s9,4
    4030:	000e0663          	beqz	t3,403c <_vfprintf_r+0x310>
    4034:	41bb8933          	sub	s2,s7,s11
    4038:	4f2040e3          	bgtz	s2,4d18 <_vfprintf_r+0xfec>
    403c:	000b8313          	mv	t1,s7
    4040:	01bbd463          	bge	s7,s11,4048 <_vfprintf_r+0x31c>
    4044:	000d8313          	mv	t1,s11
    4048:	00c12783          	lw	a5,12(sp)
    404c:	006787b3          	add	a5,a5,t1
    4050:	00f12623          	sw	a5,12(sp)
    4054:	340616e3          	bnez	a2,4ba0 <_vfprintf_r+0xe74>
    4058:	01012783          	lw	a5,16(sp)
    405c:	0c012423          	sw	zero,200(sp)
    4060:	00078863          	beqz	a5,4070 <_vfprintf_r+0x344>
    4064:	01012583          	lw	a1,16(sp)
    4068:	00812503          	lw	a0,8(sp)
    406c:	9acff0ef          	jal	3218 <_free_r>
    4070:	00098a13          	mv	s4,s3
    4074:	000a8d13          	mv	s10,s5
    4078:	000d4703          	lbu	a4,0(s10)
    407c:	de0710e3          	bnez	a4,3e5c <_vfprintf_r+0x130>
    4080:	0cc12783          	lw	a5,204(sp)
    4084:	00078463          	beqz	a5,408c <_vfprintf_r+0x360>
    4088:	1510106f          	j	59d8 <_vfprintf_r+0x1cac>
    408c:	0c012423          	sw	zero,200(sp)
    4090:	06442703          	lw	a4,100(s0)
    4094:	00c41783          	lh	a5,12(s0)
    4098:	00177713          	and	a4,a4,1
    409c:	3a070e63          	beqz	a4,4458 <_vfprintf_r+0x72c>
    40a0:	0407f793          	and	a5,a5,64
    40a4:	1bc12983          	lw	s3,444(sp)
    40a8:	1b812a03          	lw	s4,440(sp)
    40ac:	1b412a83          	lw	s5,436(sp)
    40b0:	1b012b03          	lw	s6,432(sp)
    40b4:	1ac12b83          	lw	s7,428(sp)
    40b8:	1a812c03          	lw	s8,424(sp)
    40bc:	1a412c83          	lw	s9,420(sp)
    40c0:	1a012d03          	lw	s10,416(sp)
    40c4:	19c12d83          	lw	s11,412(sp)
    40c8:	00078463          	beqz	a5,40d0 <_vfprintf_r+0x3a4>
    40cc:	2280206f          	j	62f4 <_vfprintf_r+0x25c8>
    40d0:	1cc12083          	lw	ra,460(sp)
    40d4:	1c812403          	lw	s0,456(sp)
    40d8:	00c12503          	lw	a0,12(sp)
    40dc:	1c412483          	lw	s1,452(sp)
    40e0:	1c012903          	lw	s2,448(sp)
    40e4:	1d010113          	add	sp,sp,464
    40e8:	00008067          	ret
    40ec:	00812503          	lw	a0,8(sp)
    40f0:	00040593          	mv	a1,s0
    40f4:	44c030ef          	jal	7540 <__swsetup_r>
    40f8:	00050463          	beqz	a0,4100 <_vfprintf_r+0x3d4>
    40fc:	1ec0206f          	j	62e8 <_vfprintf_r+0x25bc>
    4100:	00c41683          	lh	a3,12(s0)
    4104:	00a00613          	li	a2,10
    4108:	01a6f713          	and	a4,a3,26
    410c:	cec716e3          	bne	a4,a2,3df8 <_vfprintf_r+0xcc>
    4110:	00e41703          	lh	a4,14(s0)
    4114:	ce0742e3          	bltz	a4,3df8 <_vfprintf_r+0xcc>
    4118:	06442703          	lw	a4,100(s0)
    411c:	00177713          	and	a4,a4,1
    4120:	00071863          	bnez	a4,4130 <_vfprintf_r+0x404>
    4124:	2006f693          	and	a3,a3,512
    4128:	00069463          	bnez	a3,4130 <_vfprintf_r+0x404>
    412c:	0f50106f          	j	5a20 <_vfprintf_r+0x1cf4>
    4130:	01412683          	lw	a3,20(sp)
    4134:	00812503          	lw	a0,8(sp)
    4138:	00090613          	mv	a2,s2
    413c:	00040593          	mv	a1,s0
    4140:	5c4020ef          	jal	6704 <__sbprintf>
    4144:	1cc12083          	lw	ra,460(sp)
    4148:	1c812403          	lw	s0,456(sp)
    414c:	00a12623          	sw	a0,12(sp)
    4150:	00c12503          	lw	a0,12(sp)
    4154:	1c412483          	lw	s1,452(sp)
    4158:	1c012903          	lw	s2,448(sp)
    415c:	1d010113          	add	sp,sp,464
    4160:	00008067          	ret
    4164:	00812c03          	lw	s8,8(sp)
    4168:	000c0513          	mv	a0,s8
    416c:	68c030ef          	jal	77f8 <_localeconv_r>
    4170:	00452783          	lw	a5,4(a0)
    4174:	00078513          	mv	a0,a5
    4178:	04f12023          	sw	a5,64(sp)
    417c:	171030ef          	jal	7aec <strlen>
    4180:	00050793          	mv	a5,a0
    4184:	000c0513          	mv	a0,s8
    4188:	04f12223          	sw	a5,68(sp)
    418c:	00078c13          	mv	s8,a5
    4190:	668030ef          	jal	77f8 <_localeconv_r>
    4194:	00852703          	lw	a4,8(a0)
    4198:	02e12c23          	sw	a4,56(sp)
    419c:	000c0463          	beqz	s8,41a4 <_vfprintf_r+0x478>
    41a0:	7f50006f          	j	5194 <_vfprintf_r+0x1468>
    41a4:	000ac883          	lbu	a7,0(s5)
    41a8:	d31ff06f          	j	3ed8 <_vfprintf_r+0x1ac>
    41ac:	41aa8933          	sub	s2,s5,s10
    41b0:	cdaa96e3          	bne	s5,s10,3e7c <_vfprintf_r+0x150>
    41b4:	000ac703          	lbu	a4,0(s5)
    41b8:	d01ff06f          	j	3eb8 <_vfprintf_r+0x18c>
    41bc:	00812503          	lw	a0,8(sp)
    41c0:	0c410613          	add	a2,sp,196
    41c4:	00040593          	mv	a1,s0
    41c8:	634020ef          	jal	67fc <__sprint_r>
    41cc:	ec0512e3          	bnez	a0,4090 <_vfprintf_r+0x364>
    41d0:	00098a13          	mv	s4,s3
    41d4:	cd5ff06f          	j	3ea8 <_vfprintf_r+0x17c>
    41d8:	008cf713          	and	a4,s9,8
    41dc:	00070463          	beqz	a4,41e4 <_vfprintf_r+0x4b8>
    41e0:	7d90006f          	j	51b8 <_vfprintf_r+0x148c>
    41e4:	01412783          	lw	a5,20(sp)
    41e8:	09010513          	add	a0,sp,144
    41ec:	01112823          	sw	a7,16(sp)
    41f0:	00778c13          	add	s8,a5,7
    41f4:	ff8c7c13          	and	s8,s8,-8
    41f8:	000c2583          	lw	a1,0(s8)
    41fc:	004c2603          	lw	a2,4(s8)
    4200:	008c0793          	add	a5,s8,8
    4204:	00f12a23          	sw	a5,20(sp)
    4208:	1b50e0ef          	jal	12bbc <__extenddftf2>
    420c:	09012583          	lw	a1,144(sp)
    4210:	09412603          	lw	a2,148(sp)
    4214:	09812683          	lw	a3,152(sp)
    4218:	09c12703          	lw	a4,156(sp)
    421c:	01012883          	lw	a7,16(sp)
    4220:	0d010513          	add	a0,sp,208
    4224:	01112823          	sw	a7,16(sp)
    4228:	0ce12e23          	sw	a4,220(sp)
    422c:	0cb12823          	sw	a1,208(sp)
    4230:	0cc12a23          	sw	a2,212(sp)
    4234:	0cd12c23          	sw	a3,216(sp)
    4238:	5a5030ef          	jal	7fdc <_ldcheck>
    423c:	0aa12623          	sw	a0,172(sp)
    4240:	00200713          	li	a4,2
    4244:	01012883          	lw	a7,16(sp)
    4248:	00e51463          	bne	a0,a4,4250 <_vfprintf_r+0x524>
    424c:	3200106f          	j	556c <_vfprintf_r+0x1840>
    4250:	00100713          	li	a4,1
    4254:	00e51463          	bne	a0,a4,425c <_vfprintf_r+0x530>
    4258:	4f40106f          	j	574c <_vfprintf_r+0x1a20>
    425c:	06100713          	li	a4,97
    4260:	00e89463          	bne	a7,a4,4268 <_vfprintf_r+0x53c>
    4264:	0d80106f          	j	533c <_vfprintf_r+0x1610>
    4268:	04100713          	li	a4,65
    426c:	05800793          	li	a5,88
    4270:	00e89463          	bne	a7,a4,4278 <_vfprintf_r+0x54c>
    4274:	0cc0106f          	j	5340 <_vfprintf_r+0x1614>
    4278:	fff00713          	li	a4,-1
    427c:	00eb1463          	bne	s6,a4,4284 <_vfprintf_r+0x558>
    4280:	2d40206f          	j	6554 <_vfprintf_r+0x2828>
    4284:	fdf8f713          	and	a4,a7,-33
    4288:	04700693          	li	a3,71
    428c:	00012823          	sw	zero,16(sp)
    4290:	00d71663          	bne	a4,a3,429c <_vfprintf_r+0x570>
    4294:	000b1463          	bnez	s6,429c <_vfprintf_r+0x570>
    4298:	00100b13          	li	s6,1
    429c:	0dc12c03          	lw	s8,220(sp)
    42a0:	100ce793          	or	a5,s9,256
    42a4:	04f12423          	sw	a5,72(sp)
    42a8:	02012a23          	sw	zero,52(sp)
    42ac:	0d012f83          	lw	t6,208(sp)
    42b0:	0d412f03          	lw	t5,212(sp)
    42b4:	0d812e83          	lw	t4,216(sp)
    42b8:	000c5a63          	bgez	s8,42cc <_vfprintf_r+0x5a0>
    42bc:	80000737          	lui	a4,0x80000
    42c0:	02d00793          	li	a5,45
    42c4:	01874c33          	xor	s8,a4,s8
    42c8:	02f12a23          	sw	a5,52(sp)
    42cc:	fbf88713          	add	a4,a7,-65
    42d0:	02500693          	li	a3,37
    42d4:	00e6f463          	bgeu	a3,a4,42dc <_vfprintf_r+0x5b0>
    42d8:	4e80106f          	j	57c0 <_vfprintf_r+0x1a94>
    42dc:	00010697          	auipc	a3,0x10
    42e0:	ec468693          	add	a3,a3,-316 # 141a0 <__flash_rodata_start+0x300>
    42e4:	00271713          	sll	a4,a4,0x2
    42e8:	00d70733          	add	a4,a4,a3
    42ec:	00072703          	lw	a4,0(a4) # 80000000 <__alt_data_end+0x7ffe0000>
    42f0:	00d70733          	add	a4,a4,a3
    42f4:	00070067          	jr	a4
    42f8:	00812503          	lw	a0,8(sp)
    42fc:	0c410613          	add	a2,sp,196
    4300:	00040593          	mv	a1,s0
    4304:	05112623          	sw	a7,76(sp)
    4308:	05f12423          	sw	t6,72(sp)
    430c:	02512a23          	sw	t0,52(sp)
    4310:	4ec020ef          	jal	67fc <__sprint_r>
    4314:	0a0510e3          	bnez	a0,4bb4 <_vfprintf_r+0xe88>
    4318:	0cc12603          	lw	a2,204(sp)
    431c:	04c12883          	lw	a7,76(sp)
    4320:	04812f83          	lw	t6,72(sp)
    4324:	03412283          	lw	t0,52(sp)
    4328:	00098a13          	mv	s4,s3
    432c:	c8dff06f          	j	3fb8 <_vfprintf_r+0x28c>
    4330:	0c812903          	lw	s2,200(sp)
    4334:	01c12783          	lw	a5,28(sp)
    4338:	00100713          	li	a4,1
    433c:	01aa2023          	sw	s10,0(s4)
    4340:	00160c13          	add	s8,a2,1
    4344:	00190913          	add	s2,s2,1
    4348:	008a0b13          	add	s6,s4,8
    434c:	3cf75ae3          	bge	a4,a5,4f20 <_vfprintf_r+0x11f4>
    4350:	00100713          	li	a4,1
    4354:	00ea2223          	sw	a4,4(s4)
    4358:	0d812623          	sw	s8,204(sp)
    435c:	0d212423          	sw	s2,200(sp)
    4360:	00700713          	li	a4,7
    4364:	01275463          	bge	a4,s2,436c <_vfprintf_r+0x640>
    4368:	0600106f          	j	53c8 <_vfprintf_r+0x169c>
    436c:	02812783          	lw	a5,40(sp)
    4370:	02c12703          	lw	a4,44(sp)
    4374:	00190913          	add	s2,s2,1
    4378:	00fc0c33          	add	s8,s8,a5
    437c:	00eb2023          	sw	a4,0(s6)
    4380:	00fb2223          	sw	a5,4(s6)
    4384:	0d812623          	sw	s8,204(sp)
    4388:	0d212423          	sw	s2,200(sp)
    438c:	00700713          	li	a4,7
    4390:	008b0b13          	add	s6,s6,8
    4394:	01275463          	bge	a4,s2,439c <_vfprintf_r+0x670>
    4398:	0540106f          	j	53ec <_vfprintf_r+0x16c0>
    439c:	0d012703          	lw	a4,208(sp)
    43a0:	01c12783          	lw	a5,28(sp)
    43a4:	08010593          	add	a1,sp,128
    43a8:	08e12823          	sw	a4,144(sp)
    43ac:	0d412703          	lw	a4,212(sp)
    43b0:	09010513          	add	a0,sp,144
    43b4:	08012023          	sw	zero,128(sp)
    43b8:	08e12a23          	sw	a4,148(sp)
    43bc:	0d812703          	lw	a4,216(sp)
    43c0:	08012223          	sw	zero,132(sp)
    43c4:	08012423          	sw	zero,136(sp)
    43c8:	08e12c23          	sw	a4,152(sp)
    43cc:	0dc12703          	lw	a4,220(sp)
    43d0:	08012623          	sw	zero,140(sp)
    43d4:	fff78a13          	add	s4,a5,-1
    43d8:	08e12e23          	sw	a4,156(sp)
    43dc:	7cc0b0ef          	jal	fba8 <__eqtf2>
    43e0:	380500e3          	beqz	a0,4f60 <_vfprintf_r+0x1234>
    43e4:	001d0793          	add	a5,s10,1
    43e8:	00190913          	add	s2,s2,1
    43ec:	014c0c33          	add	s8,s8,s4
    43f0:	00fb2023          	sw	a5,0(s6)
    43f4:	014b2223          	sw	s4,4(s6)
    43f8:	0d812623          	sw	s8,204(sp)
    43fc:	0d212423          	sw	s2,200(sp)
    4400:	00700793          	li	a5,7
    4404:	008b0b13          	add	s6,s6,8
    4408:	3327cae3          	blt	a5,s2,4f3c <_vfprintf_r+0x1210>
    440c:	03c12683          	lw	a3,60(sp)
    4410:	0b410713          	add	a4,sp,180
    4414:	00190793          	add	a5,s2,1
    4418:	01868633          	add	a2,a3,s8
    441c:	00eb2023          	sw	a4,0(s6)
    4420:	00db2223          	sw	a3,4(s6)
    4424:	0cc12623          	sw	a2,204(sp)
    4428:	0cf12423          	sw	a5,200(sp)
    442c:	00700713          	li	a4,7
    4430:	008b0a13          	add	s4,s6,8
    4434:	bef75ce3          	bge	a4,a5,402c <_vfprintf_r+0x300>
    4438:	00812503          	lw	a0,8(sp)
    443c:	0c410613          	add	a2,sp,196
    4440:	00040593          	mv	a1,s0
    4444:	3b8020ef          	jal	67fc <__sprint_r>
    4448:	76051663          	bnez	a0,4bb4 <_vfprintf_r+0xe88>
    444c:	0cc12603          	lw	a2,204(sp)
    4450:	00098a13          	mv	s4,s3
    4454:	bd9ff06f          	j	402c <_vfprintf_r+0x300>
    4458:	2007f713          	and	a4,a5,512
    445c:	c40712e3          	bnez	a4,40a0 <_vfprintf_r+0x374>
    4460:	05842503          	lw	a0,88(s0)
    4464:	f44fe0ef          	jal	2ba8 <__retarget_lock_release_recursive>
    4468:	00c41783          	lh	a5,12(s0)
    446c:	c35ff06f          	j	40a0 <_vfprintf_r+0x374>
    4470:	000ac883          	lbu	a7,0(s5)
    4474:	020cec93          	or	s9,s9,32
    4478:	a61ff06f          	j	3ed8 <_vfprintf_r+0x1ac>
    447c:	010cec93          	or	s9,s9,16
    4480:	020cf793          	and	a5,s9,32
    4484:	3a0780e3          	beqz	a5,5024 <_vfprintf_r+0x12f8>
    4488:	01412783          	lw	a5,20(sp)
    448c:	00778c13          	add	s8,a5,7
    4490:	ff8c7c13          	and	s8,s8,-8
    4494:	004c2783          	lw	a5,4(s8)
    4498:	000c2903          	lw	s2,0(s8)
    449c:	008c0713          	add	a4,s8,8
    44a0:	00e12a23          	sw	a4,20(sp)
    44a4:	00078d93          	mv	s11,a5
    44a8:	3a07c8e3          	bltz	a5,5058 <_vfprintf_r+0x132c>
    44ac:	000c8e93          	mv	t4,s9
    44b0:	0c0b4463          	bltz	s6,4578 <_vfprintf_r+0x84c>
    44b4:	01b967b3          	or	a5,s2,s11
    44b8:	f7fcfe93          	and	t4,s9,-129
    44bc:	0a079e63          	bnez	a5,4578 <_vfprintf_r+0x84c>
    44c0:	0c0b1263          	bnez	s6,4584 <_vfprintf_r+0x858>
    44c4:	00000913          	li	s2,0
    44c8:	000e8c93          	mv	s9,t4
    44cc:	19010d13          	add	s10,sp,400
    44d0:	0c80006f          	j	4598 <_vfprintf_r+0x86c>
    44d4:	01412703          	lw	a4,20(sp)
    44d8:	0a0103a3          	sb	zero,167(sp)
    44dc:	00100d93          	li	s11,1
    44e0:	00072783          	lw	a5,0(a4)
    44e4:	00470713          	add	a4,a4,4
    44e8:	00e12a23          	sw	a4,20(sp)
    44ec:	12f10623          	sb	a5,300(sp)
    44f0:	00100913          	li	s2,1
    44f4:	12c10d13          	add	s10,sp,300
    44f8:	a55ff06f          	j	3f4c <_vfprintf_r+0x220>
    44fc:	01412783          	lw	a5,20(sp)
    4500:	0a0103a3          	sb	zero,167(sp)
    4504:	0007ad03          	lw	s10,0(a5)
    4508:	00478c13          	add	s8,a5,4
    450c:	5a0d0ee3          	beqz	s10,52c8 <_vfprintf_r+0x159c>
    4510:	000b5463          	bgez	s6,4518 <_vfprintf_r+0x7ec>
    4514:	1f00106f          	j	5704 <_vfprintf_r+0x19d8>
    4518:	000b0613          	mv	a2,s6
    451c:	00000593          	li	a1,0
    4520:	000d0513          	mv	a0,s10
    4524:	01112a23          	sw	a7,20(sp)
    4528:	158030ef          	jal	7680 <memchr>
    452c:	00a12823          	sw	a0,16(sp)
    4530:	01412883          	lw	a7,20(sp)
    4534:	00051463          	bnez	a0,453c <_vfprintf_r+0x810>
    4538:	5850106f          	j	62bc <_vfprintf_r+0x2590>
    453c:	01012783          	lw	a5,16(sp)
    4540:	0a714703          	lbu	a4,167(sp)
    4544:	01812a23          	sw	s8,20(sp)
    4548:	41a78933          	sub	s2,a5,s10
    454c:	fff94693          	not	a3,s2
    4550:	41f6d693          	sra	a3,a3,0x1f
    4554:	00012823          	sw	zero,16(sp)
    4558:	02012223          	sw	zero,36(sp)
    455c:	02012023          	sw	zero,32(sp)
    4560:	00012c23          	sw	zero,24(sp)
    4564:	00d97db3          	and	s11,s2,a3
    4568:	00000b13          	li	s6,0
    456c:	9e070ae3          	beqz	a4,3f60 <_vfprintf_r+0x234>
    4570:	001d8d93          	add	s11,s11,1
    4574:	9edff06f          	j	3f60 <_vfprintf_r+0x234>
    4578:	6a0d94e3          	bnez	s11,5420 <_vfprintf_r+0x16f4>
    457c:	00900793          	li	a5,9
    4580:	6b27e0e3          	bltu	a5,s2,5420 <_vfprintf_r+0x16f4>
    4584:	03090913          	add	s2,s2,48
    4588:	192107a3          	sb	s2,399(sp)
    458c:	000e8c93          	mv	s9,t4
    4590:	00100913          	li	s2,1
    4594:	18f10d13          	add	s10,sp,399
    4598:	0a714703          	lbu	a4,167(sp)
    459c:	00090d93          	mv	s11,s2
    45a0:	01695463          	bge	s2,s6,45a8 <_vfprintf_r+0x87c>
    45a4:	000b0d93          	mv	s11,s6
    45a8:	00012823          	sw	zero,16(sp)
    45ac:	02012223          	sw	zero,36(sp)
    45b0:	02012023          	sw	zero,32(sp)
    45b4:	00012c23          	sw	zero,24(sp)
    45b8:	fa071ce3          	bnez	a4,4570 <_vfprintf_r+0x844>
    45bc:	9a5ff06f          	j	3f60 <_vfprintf_r+0x234>
    45c0:	010cec93          	or	s9,s9,16
    45c4:	020cf793          	and	a5,s9,32
    45c8:	2a0788e3          	beqz	a5,5078 <_vfprintf_r+0x134c>
    45cc:	01412783          	lw	a5,20(sp)
    45d0:	00778c13          	add	s8,a5,7
    45d4:	ff8c7c13          	and	s8,s8,-8
    45d8:	000c2903          	lw	s2,0(s8)
    45dc:	004c2d83          	lw	s11,4(s8)
    45e0:	008c0793          	add	a5,s8,8
    45e4:	00f12a23          	sw	a5,20(sp)
    45e8:	bffcfe93          	and	t4,s9,-1025
    45ec:	00000793          	li	a5,0
    45f0:	00000713          	li	a4,0
    45f4:	0ae103a3          	sb	a4,167(sp)
    45f8:	300b4063          	bltz	s6,48f8 <_vfprintf_r+0xbcc>
    45fc:	01b96733          	or	a4,s2,s11
    4600:	f7fefc93          	and	s9,t4,-129
    4604:	2e071863          	bnez	a4,48f4 <_vfprintf_r+0xbc8>
    4608:	340b1e63          	bnez	s6,4964 <_vfprintf_r+0xc38>
    460c:	5a0798e3          	bnez	a5,53bc <_vfprintf_r+0x1690>
    4610:	001ef913          	and	s2,t4,1
    4614:	19010d13          	add	s10,sp,400
    4618:	f80900e3          	beqz	s2,4598 <_vfprintf_r+0x86c>
    461c:	03000793          	li	a5,48
    4620:	18f107a3          	sb	a5,399(sp)
    4624:	18f10d13          	add	s10,sp,399
    4628:	f71ff06f          	j	4598 <_vfprintf_r+0x86c>
    462c:	01412783          	lw	a5,20(sp)
    4630:	0007ab83          	lw	s7,0(a5)
    4634:	00478793          	add	a5,a5,4
    4638:	280bdae3          	bgez	s7,50cc <_vfprintf_r+0x13a0>
    463c:	41700bb3          	neg	s7,s7
    4640:	00f12a23          	sw	a5,20(sp)
    4644:	000ac883          	lbu	a7,0(s5)
    4648:	004cec93          	or	s9,s9,4
    464c:	88dff06f          	j	3ed8 <_vfprintf_r+0x1ac>
    4650:	02b00793          	li	a5,43
    4654:	000ac883          	lbu	a7,0(s5)
    4658:	0af103a3          	sb	a5,167(sp)
    465c:	87dff06f          	j	3ed8 <_vfprintf_r+0x1ac>
    4660:	020cf793          	and	a5,s9,32
    4664:	36078ce3          	beqz	a5,51dc <_vfprintf_r+0x14b0>
    4668:	01412783          	lw	a5,20(sp)
    466c:	00c12683          	lw	a3,12(sp)
    4670:	0007a783          	lw	a5,0(a5)
    4674:	41f6d713          	sra	a4,a3,0x1f
    4678:	00d7a023          	sw	a3,0(a5)
    467c:	00e7a223          	sw	a4,4(a5)
    4680:	01412783          	lw	a5,20(sp)
    4684:	000a8d13          	mv	s10,s5
    4688:	00478793          	add	a5,a5,4
    468c:	00f12a23          	sw	a5,20(sp)
    4690:	9e9ff06f          	j	4078 <_vfprintf_r+0x34c>
    4694:	01412703          	lw	a4,20(sp)
    4698:	000087b7          	lui	a5,0x8
    469c:	83078793          	add	a5,a5,-2000 # 7830 <_fstat_r+0x20>
    46a0:	0af11423          	sh	a5,168(sp)
    46a4:	00470793          	add	a5,a4,4
    46a8:	00f12a23          	sw	a5,20(sp)
    46ac:	00010797          	auipc	a5,0x10
    46b0:	84478793          	add	a5,a5,-1980 # 13ef0 <__flash_rodata_start+0x50>
    46b4:	02f12823          	sw	a5,48(sp)
    46b8:	00072903          	lw	s2,0(a4)
    46bc:	00000d93          	li	s11,0
    46c0:	002cee93          	or	t4,s9,2
    46c4:	00200793          	li	a5,2
    46c8:	07800893          	li	a7,120
    46cc:	f25ff06f          	j	45f0 <_vfprintf_r+0x8c4>
    46d0:	000ac883          	lbu	a7,0(s5)
    46d4:	06c00793          	li	a5,108
    46d8:	3ef880e3          	beq	a7,a5,52b8 <_vfprintf_r+0x158c>
    46dc:	010cec93          	or	s9,s9,16
    46e0:	ff8ff06f          	j	3ed8 <_vfprintf_r+0x1ac>
    46e4:	000ac883          	lbu	a7,0(s5)
    46e8:	06800793          	li	a5,104
    46ec:	38f886e3          	beq	a7,a5,5278 <_vfprintf_r+0x154c>
    46f0:	040cec93          	or	s9,s9,64
    46f4:	fe4ff06f          	j	3ed8 <_vfprintf_r+0x1ac>
    46f8:	010cee93          	or	t4,s9,16
    46fc:	020ef793          	and	a5,t4,32
    4700:	0e0788e3          	beqz	a5,4ff0 <_vfprintf_r+0x12c4>
    4704:	01412783          	lw	a5,20(sp)
    4708:	00778c13          	add	s8,a5,7
    470c:	ff8c7c13          	and	s8,s8,-8
    4710:	008c0793          	add	a5,s8,8
    4714:	00f12a23          	sw	a5,20(sp)
    4718:	000c2903          	lw	s2,0(s8)
    471c:	004c2d83          	lw	s11,4(s8)
    4720:	00100793          	li	a5,1
    4724:	ecdff06f          	j	45f0 <_vfprintf_r+0x8c4>
    4728:	000ac883          	lbu	a7,0(s5)
    472c:	008cec93          	or	s9,s9,8
    4730:	fa8ff06f          	j	3ed8 <_vfprintf_r+0x1ac>
    4734:	000ac883          	lbu	a7,0(s5)
    4738:	001cec93          	or	s9,s9,1
    473c:	f9cff06f          	j	3ed8 <_vfprintf_r+0x1ac>
    4740:	0a714783          	lbu	a5,167(sp)
    4744:	000ac883          	lbu	a7,0(s5)
    4748:	f8079863          	bnez	a5,3ed8 <_vfprintf_r+0x1ac>
    474c:	02000793          	li	a5,32
    4750:	0af103a3          	sb	a5,167(sp)
    4754:	f84ff06f          	j	3ed8 <_vfprintf_r+0x1ac>
    4758:	000ac883          	lbu	a7,0(s5)
    475c:	080cec93          	or	s9,s9,128
    4760:	f78ff06f          	j	3ed8 <_vfprintf_r+0x1ac>
    4764:	000ac883          	lbu	a7,0(s5)
    4768:	02a00793          	li	a5,42
    476c:	001a8693          	add	a3,s5,1
    4770:	00f89463          	bne	a7,a5,4778 <_vfprintf_r+0xa4c>
    4774:	6f10106f          	j	6664 <_vfprintf_r+0x2938>
    4778:	fd088793          	add	a5,a7,-48
    477c:	00900713          	li	a4,9
    4780:	00000b13          	li	s6,0
    4784:	00900613          	li	a2,9
    4788:	02f76463          	bltu	a4,a5,47b0 <_vfprintf_r+0xa84>
    478c:	0006c883          	lbu	a7,0(a3)
    4790:	002b1713          	sll	a4,s6,0x2
    4794:	01670b33          	add	s6,a4,s6
    4798:	001b1b13          	sll	s6,s6,0x1
    479c:	00fb0b33          	add	s6,s6,a5
    47a0:	fd088793          	add	a5,a7,-48
    47a4:	00168693          	add	a3,a3,1
    47a8:	fef672e3          	bgeu	a2,a5,478c <_vfprintf_r+0xa60>
    47ac:	240b4ee3          	bltz	s6,5208 <_vfprintf_r+0x14dc>
    47b0:	00068a93          	mv	s5,a3
    47b4:	f28ff06f          	j	3edc <_vfprintf_r+0x1b0>
    47b8:	06500713          	li	a4,101
    47bc:	b7175ae3          	bge	a4,a7,4330 <_vfprintf_r+0x604>
    47c0:	0d012703          	lw	a4,208(sp)
    47c4:	08010593          	add	a1,sp,128
    47c8:	09010513          	add	a0,sp,144
    47cc:	08e12823          	sw	a4,144(sp)
    47d0:	0d412703          	lw	a4,212(sp)
    47d4:	02c12a23          	sw	a2,52(sp)
    47d8:	08012023          	sw	zero,128(sp)
    47dc:	08e12a23          	sw	a4,148(sp)
    47e0:	0d812703          	lw	a4,216(sp)
    47e4:	08012223          	sw	zero,132(sp)
    47e8:	08012423          	sw	zero,136(sp)
    47ec:	08e12c23          	sw	a4,152(sp)
    47f0:	0dc12703          	lw	a4,220(sp)
    47f4:	08012623          	sw	zero,140(sp)
    47f8:	08e12e23          	sw	a4,156(sp)
    47fc:	3ac0b0ef          	jal	fba8 <__eqtf2>
    4800:	03412603          	lw	a2,52(sp)
    4804:	5c051263          	bnez	a0,4dc8 <_vfprintf_r+0x109c>
    4808:	0c812783          	lw	a5,200(sp)
    480c:	0000f717          	auipc	a4,0xf
    4810:	71470713          	add	a4,a4,1812 # 13f20 <__flash_rodata_start+0x80>
    4814:	00ea2023          	sw	a4,0(s4)
    4818:	00160613          	add	a2,a2,1
    481c:	00100713          	li	a4,1
    4820:	00178793          	add	a5,a5,1
    4824:	00ea2223          	sw	a4,4(s4)
    4828:	0cc12623          	sw	a2,204(sp)
    482c:	0cf12423          	sw	a5,200(sp)
    4830:	00700713          	li	a4,7
    4834:	008a0a13          	add	s4,s4,8
    4838:	50f740e3          	blt	a4,a5,5538 <_vfprintf_r+0x180c>
    483c:	0ac12783          	lw	a5,172(sp)
    4840:	01c12703          	lw	a4,28(sp)
    4844:	06e7d2e3          	bge	a5,a4,50a8 <_vfprintf_r+0x137c>
    4848:	02c12783          	lw	a5,44(sp)
    484c:	02812703          	lw	a4,40(sp)
    4850:	008a0a13          	add	s4,s4,8
    4854:	fefa2c23          	sw	a5,-8(s4)
    4858:	0c812783          	lw	a5,200(sp)
    485c:	00e60633          	add	a2,a2,a4
    4860:	feea2e23          	sw	a4,-4(s4)
    4864:	00178793          	add	a5,a5,1
    4868:	0cc12623          	sw	a2,204(sp)
    486c:	0cf12423          	sw	a5,200(sp)
    4870:	00700713          	li	a4,7
    4874:	22f742e3          	blt	a4,a5,5298 <_vfprintf_r+0x156c>
    4878:	01c12783          	lw	a5,28(sp)
    487c:	fff78913          	add	s2,a5,-1
    4880:	fb205663          	blez	s2,402c <_vfprintf_r+0x300>
    4884:	00010e97          	auipc	t4,0x10
    4888:	9c4e8e93          	add	t4,t4,-1596 # 14248 <zeroes.0>
    488c:	01000713          	li	a4,16
    4890:	0c812783          	lw	a5,200(sp)
    4894:	01000b13          	li	s6,16
    4898:	00700c13          	li	s8,7
    489c:	000e8d13          	mv	s10,t4
    48a0:	01274863          	blt	a4,s2,48b0 <_vfprintf_r+0xb84>
    48a4:	4b90006f          	j	555c <_vfprintf_r+0x1830>
    48a8:	ff090913          	add	s2,s2,-16
    48ac:	4b2b56e3          	bge	s6,s2,5558 <_vfprintf_r+0x182c>
    48b0:	01060613          	add	a2,a2,16
    48b4:	00178793          	add	a5,a5,1
    48b8:	01aa2023          	sw	s10,0(s4)
    48bc:	016a2223          	sw	s6,4(s4)
    48c0:	0cc12623          	sw	a2,204(sp)
    48c4:	0cf12423          	sw	a5,200(sp)
    48c8:	008a0a13          	add	s4,s4,8
    48cc:	fcfc5ee3          	bge	s8,a5,48a8 <_vfprintf_r+0xb7c>
    48d0:	00812503          	lw	a0,8(sp)
    48d4:	0c410613          	add	a2,sp,196
    48d8:	00040593          	mv	a1,s0
    48dc:	721010ef          	jal	67fc <__sprint_r>
    48e0:	2c051a63          	bnez	a0,4bb4 <_vfprintf_r+0xe88>
    48e4:	0cc12603          	lw	a2,204(sp)
    48e8:	0c812783          	lw	a5,200(sp)
    48ec:	00098a13          	mv	s4,s3
    48f0:	fb9ff06f          	j	48a8 <_vfprintf_r+0xb7c>
    48f4:	000c8e93          	mv	t4,s9
    48f8:	00100713          	li	a4,1
    48fc:	c6e78ee3          	beq	a5,a4,4578 <_vfprintf_r+0x84c>
    4900:	00200713          	li	a4,2
    4904:	06e78c63          	beq	a5,a4,497c <_vfprintf_r+0xc50>
    4908:	19010d13          	add	s10,sp,400
    490c:	01dd9793          	sll	a5,s11,0x1d
    4910:	00797713          	and	a4,s2,7
    4914:	00395913          	srl	s2,s2,0x3
    4918:	03070713          	add	a4,a4,48
    491c:	0127e933          	or	s2,a5,s2
    4920:	003ddd93          	srl	s11,s11,0x3
    4924:	feed0fa3          	sb	a4,-1(s10)
    4928:	01b967b3          	or	a5,s2,s11
    492c:	000d0613          	mv	a2,s10
    4930:	fffd0d13          	add	s10,s10,-1
    4934:	fc079ce3          	bnez	a5,490c <_vfprintf_r+0xbe0>
    4938:	001ef693          	and	a3,t4,1
    493c:	06068a63          	beqz	a3,49b0 <_vfprintf_r+0xc84>
    4940:	03000693          	li	a3,48
    4944:	06d70663          	beq	a4,a3,49b0 <_vfprintf_r+0xc84>
    4948:	ffe60613          	add	a2,a2,-2
    494c:	19010793          	add	a5,sp,400
    4950:	fedd0fa3          	sb	a3,-1(s10)
    4954:	40c78933          	sub	s2,a5,a2
    4958:	000e8c93          	mv	s9,t4
    495c:	00060d13          	mv	s10,a2
    4960:	c39ff06f          	j	4598 <_vfprintf_r+0x86c>
    4964:	00100713          	li	a4,1
    4968:	00e79463          	bne	a5,a4,4970 <_vfprintf_r+0xc44>
    496c:	3450106f          	j	64b0 <_vfprintf_r+0x2784>
    4970:	00200713          	li	a4,2
    4974:	000c8e93          	mv	t4,s9
    4978:	f8e798e3          	bne	a5,a4,4908 <_vfprintf_r+0xbdc>
    497c:	03012683          	lw	a3,48(sp)
    4980:	19010d13          	add	s10,sp,400
    4984:	00f97793          	and	a5,s2,15
    4988:	00f687b3          	add	a5,a3,a5
    498c:	0007c703          	lbu	a4,0(a5)
    4990:	00495913          	srl	s2,s2,0x4
    4994:	01cd9793          	sll	a5,s11,0x1c
    4998:	0127e933          	or	s2,a5,s2
    499c:	004ddd93          	srl	s11,s11,0x4
    49a0:	feed0fa3          	sb	a4,-1(s10)
    49a4:	01b967b3          	or	a5,s2,s11
    49a8:	fffd0d13          	add	s10,s10,-1
    49ac:	fc079ce3          	bnez	a5,4984 <_vfprintf_r+0xc58>
    49b0:	19010793          	add	a5,sp,400
    49b4:	41a78933          	sub	s2,a5,s10
    49b8:	000e8c93          	mv	s9,t4
    49bc:	bddff06f          	j	4598 <_vfprintf_r+0x86c>
    49c0:	41bb8c33          	sub	s8,s7,s11
    49c4:	e3805863          	blez	s8,3ff4 <_vfprintf_r+0x2c8>
    49c8:	01000513          	li	a0,16
    49cc:	0c812583          	lw	a1,200(sp)
    49d0:	00010e97          	auipc	t4,0x10
    49d4:	878e8e93          	add	t4,t4,-1928 # 14248 <zeroes.0>
    49d8:	09855c63          	bge	a0,s8,4a70 <_vfprintf_r+0xd44>
    49dc:	00090713          	mv	a4,s2
    49e0:	000a0793          	mv	a5,s4
    49e4:	000c0913          	mv	s2,s8
    49e8:	01000f13          	li	t5,16
    49ec:	00700f93          	li	t6,7
    49f0:	03112a23          	sw	a7,52(sp)
    49f4:	000e8a13          	mv	s4,t4
    49f8:	00070c13          	mv	s8,a4
    49fc:	00c0006f          	j	4a08 <_vfprintf_r+0xcdc>
    4a00:	ff090913          	add	s2,s2,-16
    4a04:	052f5a63          	bge	t5,s2,4a58 <_vfprintf_r+0xd2c>
    4a08:	01060613          	add	a2,a2,16
    4a0c:	00158593          	add	a1,a1,1 # 2001 <global_stdio_init.part.0+0x9>
    4a10:	0147a023          	sw	s4,0(a5)
    4a14:	01e7a223          	sw	t5,4(a5)
    4a18:	0cc12623          	sw	a2,204(sp)
    4a1c:	0cb12423          	sw	a1,200(sp)
    4a20:	00878793          	add	a5,a5,8
    4a24:	fcbfdee3          	bge	t6,a1,4a00 <_vfprintf_r+0xcd4>
    4a28:	00812503          	lw	a0,8(sp)
    4a2c:	0c410613          	add	a2,sp,196
    4a30:	00040593          	mv	a1,s0
    4a34:	5c9010ef          	jal	67fc <__sprint_r>
    4a38:	16051e63          	bnez	a0,4bb4 <_vfprintf_r+0xe88>
    4a3c:	01000f13          	li	t5,16
    4a40:	ff090913          	add	s2,s2,-16
    4a44:	0cc12603          	lw	a2,204(sp)
    4a48:	0c812583          	lw	a1,200(sp)
    4a4c:	00098793          	mv	a5,s3
    4a50:	00700f93          	li	t6,7
    4a54:	fb2f4ae3          	blt	t5,s2,4a08 <_vfprintf_r+0xcdc>
    4a58:	03412883          	lw	a7,52(sp)
    4a5c:	000c0713          	mv	a4,s8
    4a60:	000a0e93          	mv	t4,s4
    4a64:	00090c13          	mv	s8,s2
    4a68:	00078a13          	mv	s4,a5
    4a6c:	00070913          	mv	s2,a4
    4a70:	01860633          	add	a2,a2,s8
    4a74:	00158593          	add	a1,a1,1
    4a78:	01da2023          	sw	t4,0(s4)
    4a7c:	018a2223          	sw	s8,4(s4)
    4a80:	0cc12623          	sw	a2,204(sp)
    4a84:	0cb12423          	sw	a1,200(sp)
    4a88:	00700713          	li	a4,7
    4a8c:	008a0a13          	add	s4,s4,8
    4a90:	d6b75263          	bge	a4,a1,3ff4 <_vfprintf_r+0x2c8>
    4a94:	00812503          	lw	a0,8(sp)
    4a98:	0c410613          	add	a2,sp,196
    4a9c:	00040593          	mv	a1,s0
    4aa0:	03112a23          	sw	a7,52(sp)
    4aa4:	559010ef          	jal	67fc <__sprint_r>
    4aa8:	10051663          	bnez	a0,4bb4 <_vfprintf_r+0xe88>
    4aac:	0cc12603          	lw	a2,204(sp)
    4ab0:	03412883          	lw	a7,52(sp)
    4ab4:	00098a13          	mv	s4,s3
    4ab8:	d3cff06f          	j	3ff4 <_vfprintf_r+0x2c8>
    4abc:	0c812583          	lw	a1,200(sp)
    4ac0:	0000fe97          	auipc	t4,0xf
    4ac4:	788e8e93          	add	t4,t4,1928 # 14248 <zeroes.0>
    4ac8:	0964d663          	bge	s1,s6,4b54 <_vfprintf_r+0xe28>
    4acc:	000a0793          	mv	a5,s4
    4ad0:	00700c13          	li	s8,7
    4ad4:	00090a13          	mv	s4,s2
    4ad8:	03112a23          	sw	a7,52(sp)
    4adc:	000b0913          	mv	s2,s6
    4ae0:	000e8b13          	mv	s6,t4
    4ae4:	00c0006f          	j	4af0 <_vfprintf_r+0xdc4>
    4ae8:	ff090913          	add	s2,s2,-16
    4aec:	0524da63          	bge	s1,s2,4b40 <_vfprintf_r+0xe14>
    4af0:	01060613          	add	a2,a2,16
    4af4:	00158593          	add	a1,a1,1
    4af8:	0000f717          	auipc	a4,0xf
    4afc:	75070713          	add	a4,a4,1872 # 14248 <zeroes.0>
    4b00:	00e7a023          	sw	a4,0(a5)
    4b04:	0097a223          	sw	s1,4(a5)
    4b08:	0cc12623          	sw	a2,204(sp)
    4b0c:	0cb12423          	sw	a1,200(sp)
    4b10:	00878793          	add	a5,a5,8
    4b14:	fcbc5ae3          	bge	s8,a1,4ae8 <_vfprintf_r+0xdbc>
    4b18:	00812503          	lw	a0,8(sp)
    4b1c:	0c410613          	add	a2,sp,196
    4b20:	00040593          	mv	a1,s0
    4b24:	4d9010ef          	jal	67fc <__sprint_r>
    4b28:	08051663          	bnez	a0,4bb4 <_vfprintf_r+0xe88>
    4b2c:	ff090913          	add	s2,s2,-16
    4b30:	0cc12603          	lw	a2,204(sp)
    4b34:	0c812583          	lw	a1,200(sp)
    4b38:	00098793          	mv	a5,s3
    4b3c:	fb24cae3          	blt	s1,s2,4af0 <_vfprintf_r+0xdc4>
    4b40:	03412883          	lw	a7,52(sp)
    4b44:	000b0e93          	mv	t4,s6
    4b48:	00090b13          	mv	s6,s2
    4b4c:	000a0913          	mv	s2,s4
    4b50:	00078a13          	mv	s4,a5
    4b54:	01660633          	add	a2,a2,s6
    4b58:	00158593          	add	a1,a1,1
    4b5c:	01da2023          	sw	t4,0(s4)
    4b60:	016a2223          	sw	s6,4(s4)
    4b64:	0cc12623          	sw	a2,204(sp)
    4b68:	0cb12423          	sw	a1,200(sp)
    4b6c:	00700713          	li	a4,7
    4b70:	008a0a13          	add	s4,s4,8
    4b74:	c8b75463          	bge	a4,a1,3ffc <_vfprintf_r+0x2d0>
    4b78:	00812503          	lw	a0,8(sp)
    4b7c:	0c410613          	add	a2,sp,196
    4b80:	00040593          	mv	a1,s0
    4b84:	03112a23          	sw	a7,52(sp)
    4b88:	475010ef          	jal	67fc <__sprint_r>
    4b8c:	02051463          	bnez	a0,4bb4 <_vfprintf_r+0xe88>
    4b90:	0cc12603          	lw	a2,204(sp)
    4b94:	03412883          	lw	a7,52(sp)
    4b98:	00098a13          	mv	s4,s3
    4b9c:	c60ff06f          	j	3ffc <_vfprintf_r+0x2d0>
    4ba0:	00812503          	lw	a0,8(sp)
    4ba4:	0c410613          	add	a2,sp,196
    4ba8:	00040593          	mv	a1,s0
    4bac:	451010ef          	jal	67fc <__sprint_r>
    4bb0:	ca050463          	beqz	a0,4058 <_vfprintf_r+0x32c>
    4bb4:	01012383          	lw	t2,16(sp)
    4bb8:	cc038c63          	beqz	t2,4090 <_vfprintf_r+0x364>
    4bbc:	00812503          	lw	a0,8(sp)
    4bc0:	00038593          	mv	a1,t2
    4bc4:	e54fe0ef          	jal	3218 <_free_r>
    4bc8:	06442703          	lw	a4,100(s0)
    4bcc:	00c41783          	lh	a5,12(s0)
    4bd0:	00177713          	and	a4,a4,1
    4bd4:	cc071663          	bnez	a4,40a0 <_vfprintf_r+0x374>
    4bd8:	881ff06f          	j	4458 <_vfprintf_r+0x72c>
    4bdc:	01000513          	li	a0,16
    4be0:	0c812583          	lw	a1,200(sp)
    4be4:	0000fc17          	auipc	s8,0xf
    4be8:	654c0c13          	add	s8,s8,1620 # 14238 <blanks.1>
    4bec:	0ae55063          	bge	a0,a4,4c8c <_vfprintf_r+0xf60>
    4bf0:	000a0793          	mv	a5,s4
    4bf4:	01000e93          	li	t4,16
    4bf8:	000c0a13          	mv	s4,s8
    4bfc:	00700393          	li	t2,7
    4c00:	00090c13          	mv	s8,s2
    4c04:	02512a23          	sw	t0,52(sp)
    4c08:	05f12423          	sw	t6,72(sp)
    4c0c:	05112623          	sw	a7,76(sp)
    4c10:	00070913          	mv	s2,a4
    4c14:	00c0006f          	j	4c20 <_vfprintf_r+0xef4>
    4c18:	ff090913          	add	s2,s2,-16
    4c1c:	052eda63          	bge	t4,s2,4c70 <_vfprintf_r+0xf44>
    4c20:	01060613          	add	a2,a2,16
    4c24:	00158593          	add	a1,a1,1
    4c28:	0147a023          	sw	s4,0(a5)
    4c2c:	01d7a223          	sw	t4,4(a5)
    4c30:	0cc12623          	sw	a2,204(sp)
    4c34:	0cb12423          	sw	a1,200(sp)
    4c38:	00878793          	add	a5,a5,8
    4c3c:	fcb3dee3          	bge	t2,a1,4c18 <_vfprintf_r+0xeec>
    4c40:	00812503          	lw	a0,8(sp)
    4c44:	0c410613          	add	a2,sp,196
    4c48:	00040593          	mv	a1,s0
    4c4c:	3b1010ef          	jal	67fc <__sprint_r>
    4c50:	f60512e3          	bnez	a0,4bb4 <_vfprintf_r+0xe88>
    4c54:	01000e93          	li	t4,16
    4c58:	ff090913          	add	s2,s2,-16
    4c5c:	0cc12603          	lw	a2,204(sp)
    4c60:	0c812583          	lw	a1,200(sp)
    4c64:	00098793          	mv	a5,s3
    4c68:	00700393          	li	t2,7
    4c6c:	fb2ecae3          	blt	t4,s2,4c20 <_vfprintf_r+0xef4>
    4c70:	03412283          	lw	t0,52(sp)
    4c74:	04812f83          	lw	t6,72(sp)
    4c78:	04c12883          	lw	a7,76(sp)
    4c7c:	00090713          	mv	a4,s2
    4c80:	000c0913          	mv	s2,s8
    4c84:	000a0c13          	mv	s8,s4
    4c88:	00078a13          	mv	s4,a5
    4c8c:	00e60633          	add	a2,a2,a4
    4c90:	00158593          	add	a1,a1,1
    4c94:	00ea2223          	sw	a4,4(s4)
    4c98:	018a2023          	sw	s8,0(s4)
    4c9c:	0cc12623          	sw	a2,204(sp)
    4ca0:	0cb12423          	sw	a1,200(sp)
    4ca4:	00700713          	li	a4,7
    4ca8:	008a0a13          	add	s4,s4,8
    4cac:	acb75a63          	bge	a4,a1,3f80 <_vfprintf_r+0x254>
    4cb0:	00812503          	lw	a0,8(sp)
    4cb4:	0c410613          	add	a2,sp,196
    4cb8:	00040593          	mv	a1,s0
    4cbc:	05112623          	sw	a7,76(sp)
    4cc0:	05f12423          	sw	t6,72(sp)
    4cc4:	02512a23          	sw	t0,52(sp)
    4cc8:	335010ef          	jal	67fc <__sprint_r>
    4ccc:	ee0514e3          	bnez	a0,4bb4 <_vfprintf_r+0xe88>
    4cd0:	0cc12603          	lw	a2,204(sp)
    4cd4:	04c12883          	lw	a7,76(sp)
    4cd8:	04812f83          	lw	t6,72(sp)
    4cdc:	03412283          	lw	t0,52(sp)
    4ce0:	00098a13          	mv	s4,s3
    4ce4:	a9cff06f          	j	3f80 <_vfprintf_r+0x254>
    4ce8:	00812503          	lw	a0,8(sp)
    4cec:	0c410613          	add	a2,sp,196
    4cf0:	00040593          	mv	a1,s0
    4cf4:	05112423          	sw	a7,72(sp)
    4cf8:	03f12a23          	sw	t6,52(sp)
    4cfc:	301010ef          	jal	67fc <__sprint_r>
    4d00:	ea051ae3          	bnez	a0,4bb4 <_vfprintf_r+0xe88>
    4d04:	0cc12603          	lw	a2,204(sp)
    4d08:	04812883          	lw	a7,72(sp)
    4d0c:	03412f83          	lw	t6,52(sp)
    4d10:	00098a13          	mv	s4,s3
    4d14:	ad8ff06f          	j	3fec <_vfprintf_r+0x2c0>
    4d18:	01000713          	li	a4,16
    4d1c:	0c812783          	lw	a5,200(sp)
    4d20:	0000fc17          	auipc	s8,0xf
    4d24:	518c0c13          	add	s8,s8,1304 # 14238 <blanks.1>
    4d28:	07275263          	bge	a4,s2,4d8c <_vfprintf_r+0x1060>
    4d2c:	00812d03          	lw	s10,8(sp)
    4d30:	01000b13          	li	s6,16
    4d34:	00700c93          	li	s9,7
    4d38:	00c0006f          	j	4d44 <_vfprintf_r+0x1018>
    4d3c:	ff090913          	add	s2,s2,-16
    4d40:	052b5663          	bge	s6,s2,4d8c <_vfprintf_r+0x1060>
    4d44:	01060613          	add	a2,a2,16
    4d48:	00178793          	add	a5,a5,1
    4d4c:	018a2023          	sw	s8,0(s4)
    4d50:	016a2223          	sw	s6,4(s4)
    4d54:	0cc12623          	sw	a2,204(sp)
    4d58:	0cf12423          	sw	a5,200(sp)
    4d5c:	008a0a13          	add	s4,s4,8
    4d60:	fcfcdee3          	bge	s9,a5,4d3c <_vfprintf_r+0x1010>
    4d64:	0c410613          	add	a2,sp,196
    4d68:	00040593          	mv	a1,s0
    4d6c:	000d0513          	mv	a0,s10
    4d70:	28d010ef          	jal	67fc <__sprint_r>
    4d74:	e40510e3          	bnez	a0,4bb4 <_vfprintf_r+0xe88>
    4d78:	ff090913          	add	s2,s2,-16
    4d7c:	0cc12603          	lw	a2,204(sp)
    4d80:	0c812783          	lw	a5,200(sp)
    4d84:	00098a13          	mv	s4,s3
    4d88:	fb2b4ee3          	blt	s6,s2,4d44 <_vfprintf_r+0x1018>
    4d8c:	01260633          	add	a2,a2,s2
    4d90:	00178793          	add	a5,a5,1
    4d94:	018a2023          	sw	s8,0(s4)
    4d98:	012a2223          	sw	s2,4(s4)
    4d9c:	0cc12623          	sw	a2,204(sp)
    4da0:	0cf12423          	sw	a5,200(sp)
    4da4:	00700713          	li	a4,7
    4da8:	a8f75a63          	bge	a4,a5,403c <_vfprintf_r+0x310>
    4dac:	00812503          	lw	a0,8(sp)
    4db0:	0c410613          	add	a2,sp,196
    4db4:	00040593          	mv	a1,s0
    4db8:	245010ef          	jal	67fc <__sprint_r>
    4dbc:	de051ce3          	bnez	a0,4bb4 <_vfprintf_r+0xe88>
    4dc0:	0cc12603          	lw	a2,204(sp)
    4dc4:	a78ff06f          	j	403c <_vfprintf_r+0x310>
    4dc8:	0ac12583          	lw	a1,172(sp)
    4dcc:	30b05663          	blez	a1,50d8 <_vfprintf_r+0x13ac>
    4dd0:	01812783          	lw	a5,24(sp)
    4dd4:	01c12703          	lw	a4,28(sp)
    4dd8:	00078b13          	mv	s6,a5
    4ddc:	00f75463          	bge	a4,a5,4de4 <_vfprintf_r+0x10b8>
    4de0:	00070b13          	mv	s6,a4
    4de4:	03605863          	blez	s6,4e14 <_vfprintf_r+0x10e8>
    4de8:	0c812703          	lw	a4,200(sp)
    4dec:	01660633          	add	a2,a2,s6
    4df0:	01aa2023          	sw	s10,0(s4)
    4df4:	00170713          	add	a4,a4,1
    4df8:	016a2223          	sw	s6,4(s4)
    4dfc:	0cc12623          	sw	a2,204(sp)
    4e00:	0ce12423          	sw	a4,200(sp)
    4e04:	00700593          	li	a1,7
    4e08:	008a0a13          	add	s4,s4,8
    4e0c:	00e5d463          	bge	a1,a4,4e14 <_vfprintf_r+0x10e8>
    4e10:	4880106f          	j	6298 <_vfprintf_r+0x256c>
    4e14:	fffb4713          	not	a4,s6
    4e18:	01812783          	lw	a5,24(sp)
    4e1c:	41f75713          	sra	a4,a4,0x1f
    4e20:	00eb7b33          	and	s6,s6,a4
    4e24:	41678b33          	sub	s6,a5,s6
    4e28:	016044e3          	bgtz	s6,5630 <_vfprintf_r+0x1904>
    4e2c:	01812783          	lw	a5,24(sp)
    4e30:	400cf713          	and	a4,s9,1024
    4e34:	00fd0c33          	add	s8,s10,a5
    4e38:	00070463          	beqz	a4,4e40 <_vfprintf_r+0x1114>
    4e3c:	0f80106f          	j	5f34 <_vfprintf_r+0x2208>
    4e40:	0ac12583          	lw	a1,172(sp)
    4e44:	01c12783          	lw	a5,28(sp)
    4e48:	4af5c063          	blt	a1,a5,52e8 <_vfprintf_r+0x15bc>
    4e4c:	001cf713          	and	a4,s9,1
    4e50:	48071c63          	bnez	a4,52e8 <_vfprintf_r+0x15bc>
    4e54:	01c12703          	lw	a4,28(sp)
    4e58:	00ed07b3          	add	a5,s10,a4
    4e5c:	40b705b3          	sub	a1,a4,a1
    4e60:	41878b33          	sub	s6,a5,s8
    4e64:	0165d463          	bge	a1,s6,4e6c <_vfprintf_r+0x1140>
    4e68:	00058b13          	mv	s6,a1
    4e6c:	03605863          	blez	s6,4e9c <_vfprintf_r+0x1170>
    4e70:	0c812703          	lw	a4,200(sp)
    4e74:	01660633          	add	a2,a2,s6
    4e78:	018a2023          	sw	s8,0(s4)
    4e7c:	00170713          	add	a4,a4,1
    4e80:	016a2223          	sw	s6,4(s4)
    4e84:	0cc12623          	sw	a2,204(sp)
    4e88:	0ce12423          	sw	a4,200(sp)
    4e8c:	00700793          	li	a5,7
    4e90:	008a0a13          	add	s4,s4,8
    4e94:	00e7d463          	bge	a5,a4,4e9c <_vfprintf_r+0x1170>
    4e98:	4680106f          	j	6300 <_vfprintf_r+0x25d4>
    4e9c:	fffb4713          	not	a4,s6
    4ea0:	41f75713          	sra	a4,a4,0x1f
    4ea4:	00eb77b3          	and	a5,s6,a4
    4ea8:	40f58933          	sub	s2,a1,a5
    4eac:	99205063          	blez	s2,402c <_vfprintf_r+0x300>
    4eb0:	0000fe97          	auipc	t4,0xf
    4eb4:	398e8e93          	add	t4,t4,920 # 14248 <zeroes.0>
    4eb8:	01000713          	li	a4,16
    4ebc:	0c812783          	lw	a5,200(sp)
    4ec0:	01000b13          	li	s6,16
    4ec4:	00700c13          	li	s8,7
    4ec8:	000e8d13          	mv	s10,t4
    4ecc:	01274863          	blt	a4,s2,4edc <_vfprintf_r+0x11b0>
    4ed0:	68c0006f          	j	555c <_vfprintf_r+0x1830>
    4ed4:	ff090913          	add	s2,s2,-16
    4ed8:	692b5063          	bge	s6,s2,5558 <_vfprintf_r+0x182c>
    4edc:	01060613          	add	a2,a2,16
    4ee0:	00178793          	add	a5,a5,1
    4ee4:	01aa2023          	sw	s10,0(s4)
    4ee8:	016a2223          	sw	s6,4(s4)
    4eec:	0cc12623          	sw	a2,204(sp)
    4ef0:	0cf12423          	sw	a5,200(sp)
    4ef4:	008a0a13          	add	s4,s4,8
    4ef8:	fcfc5ee3          	bge	s8,a5,4ed4 <_vfprintf_r+0x11a8>
    4efc:	00812503          	lw	a0,8(sp)
    4f00:	0c410613          	add	a2,sp,196
    4f04:	00040593          	mv	a1,s0
    4f08:	0f5010ef          	jal	67fc <__sprint_r>
    4f0c:	ca0514e3          	bnez	a0,4bb4 <_vfprintf_r+0xe88>
    4f10:	0cc12603          	lw	a2,204(sp)
    4f14:	0c812783          	lw	a5,200(sp)
    4f18:	00098a13          	mv	s4,s3
    4f1c:	fb9ff06f          	j	4ed4 <_vfprintf_r+0x11a8>
    4f20:	001cf593          	and	a1,s9,1
    4f24:	c2059663          	bnez	a1,4350 <_vfprintf_r+0x624>
    4f28:	00ea2223          	sw	a4,4(s4)
    4f2c:	0d812623          	sw	s8,204(sp)
    4f30:	0d212423          	sw	s2,200(sp)
    4f34:	00700793          	li	a5,7
    4f38:	cd27da63          	bge	a5,s2,440c <_vfprintf_r+0x6e0>
    4f3c:	00812503          	lw	a0,8(sp)
    4f40:	0c410613          	add	a2,sp,196
    4f44:	00040593          	mv	a1,s0
    4f48:	0b5010ef          	jal	67fc <__sprint_r>
    4f4c:	c60514e3          	bnez	a0,4bb4 <_vfprintf_r+0xe88>
    4f50:	0cc12c03          	lw	s8,204(sp)
    4f54:	0c812903          	lw	s2,200(sp)
    4f58:	00098b13          	mv	s6,s3
    4f5c:	cb0ff06f          	j	440c <_vfprintf_r+0x6e0>
    4f60:	01c12703          	lw	a4,28(sp)
    4f64:	00100793          	li	a5,1
    4f68:	cae7d263          	bge	a5,a4,440c <_vfprintf_r+0x6e0>
    4f6c:	01100793          	li	a5,17
    4f70:	0000fe97          	auipc	t4,0xf
    4f74:	2d8e8e93          	add	t4,t4,728 # 14248 <zeroes.0>
    4f78:	6ae7d463          	bge	a5,a4,5620 <_vfprintf_r+0x18f4>
    4f7c:	00040713          	mv	a4,s0
    4f80:	01512c23          	sw	s5,24(sp)
    4f84:	000a0413          	mv	s0,s4
    4f88:	01000793          	li	a5,16
    4f8c:	00700d13          	li	s10,7
    4f90:	000e8a93          	mv	s5,t4
    4f94:	00070a13          	mv	s4,a4
    4f98:	00c0006f          	j	4fa4 <_vfprintf_r+0x1278>
    4f9c:	ff040413          	add	s0,s0,-16
    4fa0:	6687d663          	bge	a5,s0,560c <_vfprintf_r+0x18e0>
    4fa4:	010c0c13          	add	s8,s8,16
    4fa8:	00190913          	add	s2,s2,1
    4fac:	015b2023          	sw	s5,0(s6)
    4fb0:	00fb2223          	sw	a5,4(s6)
    4fb4:	0d812623          	sw	s8,204(sp)
    4fb8:	0d212423          	sw	s2,200(sp)
    4fbc:	008b0b13          	add	s6,s6,8
    4fc0:	fd2d5ee3          	bge	s10,s2,4f9c <_vfprintf_r+0x1270>
    4fc4:	00812503          	lw	a0,8(sp)
    4fc8:	0c410613          	add	a2,sp,196
    4fcc:	000a0593          	mv	a1,s4
    4fd0:	02d010ef          	jal	67fc <__sprint_r>
    4fd4:	00050463          	beqz	a0,4fdc <_vfprintf_r+0x12b0>
    4fd8:	4e00106f          	j	64b8 <_vfprintf_r+0x278c>
    4fdc:	0cc12c03          	lw	s8,204(sp)
    4fe0:	0c812903          	lw	s2,200(sp)
    4fe4:	00098b13          	mv	s6,s3
    4fe8:	01000793          	li	a5,16
    4fec:	fb1ff06f          	j	4f9c <_vfprintf_r+0x1270>
    4ff0:	01412703          	lw	a4,20(sp)
    4ff4:	010ef793          	and	a5,t4,16
    4ff8:	00072903          	lw	s2,0(a4)
    4ffc:	00470713          	add	a4,a4,4
    5000:	00e12a23          	sw	a4,20(sp)
    5004:	16079063          	bnez	a5,5164 <_vfprintf_r+0x1438>
    5008:	040ef793          	and	a5,t4,64
    500c:	14078663          	beqz	a5,5158 <_vfprintf_r+0x142c>
    5010:	01091913          	sll	s2,s2,0x10
    5014:	01095913          	srl	s2,s2,0x10
    5018:	00000d93          	li	s11,0
    501c:	00100793          	li	a5,1
    5020:	dd0ff06f          	j	45f0 <_vfprintf_r+0x8c4>
    5024:	01412703          	lw	a4,20(sp)
    5028:	010cf793          	and	a5,s9,16
    502c:	00072903          	lw	s2,0(a4)
    5030:	00470713          	add	a4,a4,4
    5034:	00e12a23          	sw	a4,20(sp)
    5038:	14079863          	bnez	a5,5188 <_vfprintf_r+0x145c>
    503c:	040cf793          	and	a5,s9,64
    5040:	14078063          	beqz	a5,5180 <_vfprintf_r+0x1454>
    5044:	01091913          	sll	s2,s2,0x10
    5048:	41095913          	sra	s2,s2,0x10
    504c:	41f95d93          	sra	s11,s2,0x1f
    5050:	000d8793          	mv	a5,s11
    5054:	c407dc63          	bgez	a5,44ac <_vfprintf_r+0x780>
    5058:	012037b3          	snez	a5,s2
    505c:	41b00db3          	neg	s11,s11
    5060:	40fd8db3          	sub	s11,s11,a5
    5064:	41200933          	neg	s2,s2
    5068:	000c8e93          	mv	t4,s9
    506c:	02d00713          	li	a4,45
    5070:	00100793          	li	a5,1
    5074:	d80ff06f          	j	45f4 <_vfprintf_r+0x8c8>
    5078:	01412703          	lw	a4,20(sp)
    507c:	010cf793          	and	a5,s9,16
    5080:	00072903          	lw	s2,0(a4)
    5084:	00470713          	add	a4,a4,4
    5088:	00e12a23          	sw	a4,20(sp)
    508c:	0e079663          	bnez	a5,5178 <_vfprintf_r+0x144c>
    5090:	040cf793          	and	a5,s9,64
    5094:	0c078e63          	beqz	a5,5170 <_vfprintf_r+0x1444>
    5098:	01091913          	sll	s2,s2,0x10
    509c:	01095913          	srl	s2,s2,0x10
    50a0:	00000d93          	li	s11,0
    50a4:	d44ff06f          	j	45e8 <_vfprintf_r+0x8bc>
    50a8:	001cf793          	and	a5,s9,1
    50ac:	00079463          	bnez	a5,50b4 <_vfprintf_r+0x1388>
    50b0:	f7dfe06f          	j	402c <_vfprintf_r+0x300>
    50b4:	f94ff06f          	j	4848 <_vfprintf_r+0xb1c>
    50b8:	05842503          	lw	a0,88(s0)
    50bc:	ad5fd0ef          	jal	2b90 <__retarget_lock_acquire_recursive>
    50c0:	00c41683          	lh	a3,12(s0)
    50c4:	06442703          	lw	a4,100(s0)
    50c8:	ce1fe06f          	j	3da8 <_vfprintf_r+0x7c>
    50cc:	000ac883          	lbu	a7,0(s5)
    50d0:	00f12a23          	sw	a5,20(sp)
    50d4:	e05fe06f          	j	3ed8 <_vfprintf_r+0x1ac>
    50d8:	0c812703          	lw	a4,200(sp)
    50dc:	0000f517          	auipc	a0,0xf
    50e0:	e4450513          	add	a0,a0,-444 # 13f20 <__flash_rodata_start+0x80>
    50e4:	00aa2023          	sw	a0,0(s4)
    50e8:	00160613          	add	a2,a2,1
    50ec:	00100513          	li	a0,1
    50f0:	00170713          	add	a4,a4,1
    50f4:	00aa2223          	sw	a0,4(s4)
    50f8:	0cc12623          	sw	a2,204(sp)
    50fc:	0ce12423          	sw	a4,200(sp)
    5100:	00700513          	li	a0,7
    5104:	008a0a13          	add	s4,s4,8
    5108:	04e542e3          	blt	a0,a4,594c <_vfprintf_r+0x1c20>
    510c:	58059c63          	bnez	a1,56a4 <_vfprintf_r+0x1978>
    5110:	01c12783          	lw	a5,28(sp)
    5114:	001cf713          	and	a4,s9,1
    5118:	00f76733          	or	a4,a4,a5
    511c:	00071463          	bnez	a4,5124 <_vfprintf_r+0x13f8>
    5120:	f0dfe06f          	j	402c <_vfprintf_r+0x300>
    5124:	02c12703          	lw	a4,44(sp)
    5128:	02812783          	lw	a5,40(sp)
    512c:	00700593          	li	a1,7
    5130:	00ea2023          	sw	a4,0(s4)
    5134:	0c812703          	lw	a4,200(sp)
    5138:	00c78633          	add	a2,a5,a2
    513c:	00fa2223          	sw	a5,4(s4)
    5140:	00170713          	add	a4,a4,1
    5144:	0cc12623          	sw	a2,204(sp)
    5148:	0ce12423          	sw	a4,200(sp)
    514c:	0ae5c6e3          	blt	a1,a4,59f8 <_vfprintf_r+0x1ccc>
    5150:	008a0a13          	add	s4,s4,8
    5154:	5840006f          	j	56d8 <_vfprintf_r+0x19ac>
    5158:	200ef793          	and	a5,t4,512
    515c:	00078463          	beqz	a5,5164 <_vfprintf_r+0x1438>
    5160:	0ff97913          	zext.b	s2,s2
    5164:	00000d93          	li	s11,0
    5168:	00100793          	li	a5,1
    516c:	c84ff06f          	j	45f0 <_vfprintf_r+0x8c4>
    5170:	200cf793          	and	a5,s9,512
    5174:	020794e3          	bnez	a5,599c <_vfprintf_r+0x1c70>
    5178:	00000d93          	li	s11,0
    517c:	c6cff06f          	j	45e8 <_vfprintf_r+0x8bc>
    5180:	200cf793          	and	a5,s9,512
    5184:	000792e3          	bnez	a5,5988 <_vfprintf_r+0x1c5c>
    5188:	41f95d93          	sra	s11,s2,0x1f
    518c:	000d8793          	mv	a5,s11
    5190:	b18ff06f          	j	44a8 <_vfprintf_r+0x77c>
    5194:	03812783          	lw	a5,56(sp)
    5198:	000ac883          	lbu	a7,0(s5)
    519c:	00079463          	bnez	a5,51a4 <_vfprintf_r+0x1478>
    51a0:	d39fe06f          	j	3ed8 <_vfprintf_r+0x1ac>
    51a4:	0007c783          	lbu	a5,0(a5)
    51a8:	00079463          	bnez	a5,51b0 <_vfprintf_r+0x1484>
    51ac:	d2dfe06f          	j	3ed8 <_vfprintf_r+0x1ac>
    51b0:	400cec93          	or	s9,s9,1024
    51b4:	d25fe06f          	j	3ed8 <_vfprintf_r+0x1ac>
    51b8:	01412783          	lw	a5,20(sp)
    51bc:	0007a703          	lw	a4,0(a5)
    51c0:	00478793          	add	a5,a5,4
    51c4:	00f12a23          	sw	a5,20(sp)
    51c8:	00072583          	lw	a1,0(a4)
    51cc:	00472603          	lw	a2,4(a4)
    51d0:	00872683          	lw	a3,8(a4)
    51d4:	00c72703          	lw	a4,12(a4)
    51d8:	848ff06f          	j	4220 <_vfprintf_r+0x4f4>
    51dc:	010cf793          	and	a5,s9,16
    51e0:	40079c63          	bnez	a5,55f8 <_vfprintf_r+0x18cc>
    51e4:	040cf793          	and	a5,s9,64
    51e8:	7c079663          	bnez	a5,59b4 <_vfprintf_r+0x1c88>
    51ec:	200cfe13          	and	t3,s9,512
    51f0:	400e0463          	beqz	t3,55f8 <_vfprintf_r+0x18cc>
    51f4:	01412783          	lw	a5,20(sp)
    51f8:	00c12703          	lw	a4,12(sp)
    51fc:	0007a783          	lw	a5,0(a5)
    5200:	00e78023          	sb	a4,0(a5)
    5204:	c7cff06f          	j	4680 <_vfprintf_r+0x954>
    5208:	fff00b13          	li	s6,-1
    520c:	00068a93          	mv	s5,a3
    5210:	ccdfe06f          	j	3edc <_vfprintf_r+0x1b0>
    5214:	000c8e93          	mv	t4,s9
    5218:	ce4ff06f          	j	46fc <_vfprintf_r+0x9d0>
    521c:	0000f797          	auipc	a5,0xf
    5220:	ce878793          	add	a5,a5,-792 # 13f04 <__flash_rodata_start+0x64>
    5224:	02f12823          	sw	a5,48(sp)
    5228:	020cf793          	and	a5,s9,32
    522c:	16078063          	beqz	a5,538c <_vfprintf_r+0x1660>
    5230:	01412783          	lw	a5,20(sp)
    5234:	00778c13          	add	s8,a5,7
    5238:	ff8c7c13          	and	s8,s8,-8
    523c:	000c2903          	lw	s2,0(s8)
    5240:	004c2d83          	lw	s11,4(s8)
    5244:	008c0793          	add	a5,s8,8
    5248:	00f12a23          	sw	a5,20(sp)
    524c:	001cf793          	and	a5,s9,1
    5250:	00078e63          	beqz	a5,526c <_vfprintf_r+0x1540>
    5254:	01b967b3          	or	a5,s2,s11
    5258:	00078a63          	beqz	a5,526c <_vfprintf_r+0x1540>
    525c:	03000793          	li	a5,48
    5260:	0af10423          	sb	a5,168(sp)
    5264:	0b1104a3          	sb	a7,169(sp)
    5268:	002cec93          	or	s9,s9,2
    526c:	bffcfe93          	and	t4,s9,-1025
    5270:	00200793          	li	a5,2
    5274:	b7cff06f          	j	45f0 <_vfprintf_r+0x8c4>
    5278:	001ac883          	lbu	a7,1(s5)
    527c:	200cec93          	or	s9,s9,512
    5280:	001a8a93          	add	s5,s5,1
    5284:	c55fe06f          	j	3ed8 <_vfprintf_r+0x1ac>
    5288:	0000f797          	auipc	a5,0xf
    528c:	c6878793          	add	a5,a5,-920 # 13ef0 <__flash_rodata_start+0x50>
    5290:	02f12823          	sw	a5,48(sp)
    5294:	f95ff06f          	j	5228 <_vfprintf_r+0x14fc>
    5298:	00812503          	lw	a0,8(sp)
    529c:	0c410613          	add	a2,sp,196
    52a0:	00040593          	mv	a1,s0
    52a4:	558010ef          	jal	67fc <__sprint_r>
    52a8:	900516e3          	bnez	a0,4bb4 <_vfprintf_r+0xe88>
    52ac:	0cc12603          	lw	a2,204(sp)
    52b0:	00098a13          	mv	s4,s3
    52b4:	dc4ff06f          	j	4878 <_vfprintf_r+0xb4c>
    52b8:	001ac883          	lbu	a7,1(s5)
    52bc:	020cec93          	or	s9,s9,32
    52c0:	001a8a93          	add	s5,s5,1
    52c4:	c15fe06f          	j	3ed8 <_vfprintf_r+0x1ac>
    52c8:	00600793          	li	a5,6
    52cc:	000b0913          	mv	s2,s6
    52d0:	6b67e063          	bltu	a5,s6,5970 <_vfprintf_r+0x1c44>
    52d4:	00090d93          	mv	s11,s2
    52d8:	01812a23          	sw	s8,20(sp)
    52dc:	0000fd17          	auipc	s10,0xf
    52e0:	c3cd0d13          	add	s10,s10,-964 # 13f18 <__flash_rodata_start+0x78>
    52e4:	c69fe06f          	j	3f4c <_vfprintf_r+0x220>
    52e8:	02c12703          	lw	a4,44(sp)
    52ec:	02812783          	lw	a5,40(sp)
    52f0:	00700513          	li	a0,7
    52f4:	00ea2023          	sw	a4,0(s4)
    52f8:	0c812703          	lw	a4,200(sp)
    52fc:	00f60633          	add	a2,a2,a5
    5300:	00fa2223          	sw	a5,4(s4)
    5304:	00170713          	add	a4,a4,1
    5308:	0cc12623          	sw	a2,204(sp)
    530c:	0ce12423          	sw	a4,200(sp)
    5310:	008a0a13          	add	s4,s4,8
    5314:	b4e550e3          	bge	a0,a4,4e54 <_vfprintf_r+0x1128>
    5318:	00812503          	lw	a0,8(sp)
    531c:	0c410613          	add	a2,sp,196
    5320:	00040593          	mv	a1,s0
    5324:	4d8010ef          	jal	67fc <__sprint_r>
    5328:	880516e3          	bnez	a0,4bb4 <_vfprintf_r+0xe88>
    532c:	0ac12583          	lw	a1,172(sp)
    5330:	0cc12603          	lw	a2,204(sp)
    5334:	00098a13          	mv	s4,s3
    5338:	b1dff06f          	j	4e54 <_vfprintf_r+0x1128>
    533c:	07800793          	li	a5,120
    5340:	03000713          	li	a4,48
    5344:	0ae10423          	sb	a4,168(sp)
    5348:	0af104a3          	sb	a5,169(sp)
    534c:	06300713          	li	a4,99
    5350:	00012823          	sw	zero,16(sp)
    5354:	002cec93          	or	s9,s9,2
    5358:	12c10d13          	add	s10,sp,300
    535c:	01674463          	blt	a4,s6,5364 <_vfprintf_r+0x1638>
    5360:	f3dfe06f          	j	429c <_vfprintf_r+0x570>
    5364:	00812503          	lw	a0,8(sp)
    5368:	001b0593          	add	a1,s6,1
    536c:	01112823          	sw	a7,16(sp)
    5370:	9c8fe0ef          	jal	3538 <_malloc_r>
    5374:	01012883          	lw	a7,16(sp)
    5378:	00050d13          	mv	s10,a0
    537c:	00051463          	bnez	a0,5384 <_vfprintf_r+0x1658>
    5380:	3600106f          	j	66e0 <_vfprintf_r+0x29b4>
    5384:	00a12823          	sw	a0,16(sp)
    5388:	f15fe06f          	j	429c <_vfprintf_r+0x570>
    538c:	01412703          	lw	a4,20(sp)
    5390:	010cf793          	and	a5,s9,16
    5394:	00072903          	lw	s2,0(a4)
    5398:	00470713          	add	a4,a4,4
    539c:	00e12a23          	sw	a4,20(sp)
    53a0:	06079c63          	bnez	a5,5418 <_vfprintf_r+0x16ec>
    53a4:	040cf793          	and	a5,s9,64
    53a8:	06078463          	beqz	a5,5410 <_vfprintf_r+0x16e4>
    53ac:	01091913          	sll	s2,s2,0x10
    53b0:	01095913          	srl	s2,s2,0x10
    53b4:	00000d93          	li	s11,0
    53b8:	e95ff06f          	j	524c <_vfprintf_r+0x1520>
    53bc:	00000913          	li	s2,0
    53c0:	19010d13          	add	s10,sp,400
    53c4:	9d4ff06f          	j	4598 <_vfprintf_r+0x86c>
    53c8:	00812503          	lw	a0,8(sp)
    53cc:	0c410613          	add	a2,sp,196
    53d0:	00040593          	mv	a1,s0
    53d4:	428010ef          	jal	67fc <__sprint_r>
    53d8:	fc051e63          	bnez	a0,4bb4 <_vfprintf_r+0xe88>
    53dc:	0cc12c03          	lw	s8,204(sp)
    53e0:	0c812903          	lw	s2,200(sp)
    53e4:	00098b13          	mv	s6,s3
    53e8:	f85fe06f          	j	436c <_vfprintf_r+0x640>
    53ec:	00812503          	lw	a0,8(sp)
    53f0:	0c410613          	add	a2,sp,196
    53f4:	00040593          	mv	a1,s0
    53f8:	404010ef          	jal	67fc <__sprint_r>
    53fc:	fa051c63          	bnez	a0,4bb4 <_vfprintf_r+0xe88>
    5400:	0cc12c03          	lw	s8,204(sp)
    5404:	0c812903          	lw	s2,200(sp)
    5408:	00098b13          	mv	s6,s3
    540c:	f91fe06f          	j	439c <_vfprintf_r+0x670>
    5410:	200cf793          	and	a5,s9,512
    5414:	58079a63          	bnez	a5,59a8 <_vfprintf_r+0x1c7c>
    5418:	00000d93          	li	s11,0
    541c:	e31ff06f          	j	524c <_vfprintf_r+0x1520>
    5420:	ccccd837          	lui	a6,0xccccd
    5424:	ccccdcb7          	lui	s9,0xccccd
    5428:	03812703          	lw	a4,56(sp)
    542c:	400eff13          	and	t5,t4,1024
    5430:	00000613          	li	a2,0
    5434:	19010593          	add	a1,sp,400
    5438:	00500e13          	li	t3,5
    543c:	ccd80813          	add	a6,a6,-819 # cccccccd <__alt_data_end+0xcccacccd>
    5440:	cccc8c93          	add	s9,s9,-820 # cccccccc <__alt_data_end+0xcccacccc>
    5444:	0ff00c13          	li	s8,255
    5448:	0540006f          	j	549c <_vfprintf_r+0x1770>
    544c:	012d37b3          	sltu	a5,s10,s2
    5450:	00fd07b3          	add	a5,s10,a5
    5454:	03c7f7b3          	remu	a5,a5,t3
    5458:	40f907b3          	sub	a5,s2,a5
    545c:	00f935b3          	sltu	a1,s2,a5
    5460:	40bd85b3          	sub	a1,s11,a1
    5464:	03978333          	mul	t1,a5,s9
    5468:	030585b3          	mul	a1,a1,a6
    546c:	0307b533          	mulhu	a0,a5,a6
    5470:	006585b3          	add	a1,a1,t1
    5474:	030787b3          	mul	a5,a5,a6
    5478:	00a585b3          	add	a1,a1,a0
    547c:	01f59513          	sll	a0,a1,0x1f
    5480:	0015d593          	srl	a1,a1,0x1
    5484:	0017d793          	srl	a5,a5,0x1
    5488:	00f567b3          	or	a5,a0,a5
    548c:	600d80e3          	beqz	s11,628c <_vfprintf_r+0x2560>
    5490:	00058d93          	mv	s11,a1
    5494:	00078913          	mv	s2,a5
    5498:	00068593          	mv	a1,a3
    549c:	01b90d33          	add	s10,s2,s11
    54a0:	012d37b3          	sltu	a5,s10,s2
    54a4:	00fd07b3          	add	a5,s10,a5
    54a8:	03c7f7b3          	remu	a5,a5,t3
    54ac:	fff58693          	add	a3,a1,-1
    54b0:	00160613          	add	a2,a2,1
    54b4:	40f907b3          	sub	a5,s2,a5
    54b8:	00f93533          	sltu	a0,s2,a5
    54bc:	40ad8533          	sub	a0,s11,a0
    54c0:	0307b333          	mulhu	t1,a5,a6
    54c4:	03050533          	mul	a0,a0,a6
    54c8:	030787b3          	mul	a5,a5,a6
    54cc:	00650533          	add	a0,a0,t1
    54d0:	01f51513          	sll	a0,a0,0x1f
    54d4:	0017d793          	srl	a5,a5,0x1
    54d8:	00f567b3          	or	a5,a0,a5
    54dc:	00279513          	sll	a0,a5,0x2
    54e0:	00f507b3          	add	a5,a0,a5
    54e4:	00179793          	sll	a5,a5,0x1
    54e8:	40f907b3          	sub	a5,s2,a5
    54ec:	03078793          	add	a5,a5,48
    54f0:	fef58fa3          	sb	a5,-1(a1)
    54f4:	f40f0ce3          	beqz	t5,544c <_vfprintf_r+0x1720>
    54f8:	00074783          	lbu	a5,0(a4)
    54fc:	f4f618e3          	bne	a2,a5,544c <_vfprintf_r+0x1720>
    5500:	f58606e3          	beq	a2,s8,544c <_vfprintf_r+0x1720>
    5504:	440d98e3          	bnez	s11,6154 <_vfprintf_r+0x2428>
    5508:	00900793          	li	a5,9
    550c:	4527e4e3          	bltu	a5,s2,6154 <_vfprintf_r+0x2428>
    5510:	00068d13          	mv	s10,a3
    5514:	19010793          	add	a5,sp,400
    5518:	00c12e23          	sw	a2,28(sp)
    551c:	02e12c23          	sw	a4,56(sp)
    5520:	41a78933          	sub	s2,a5,s10
    5524:	000e8c93          	mv	s9,t4
    5528:	870ff06f          	j	4598 <_vfprintf_r+0x86c>
    552c:	00812503          	lw	a0,8(sp)
    5530:	db1fc0ef          	jal	22e0 <__sinit>
    5534:	859fe06f          	j	3d8c <_vfprintf_r+0x60>
    5538:	00812503          	lw	a0,8(sp)
    553c:	0c410613          	add	a2,sp,196
    5540:	00040593          	mv	a1,s0
    5544:	2b8010ef          	jal	67fc <__sprint_r>
    5548:	e6051663          	bnez	a0,4bb4 <_vfprintf_r+0xe88>
    554c:	0cc12603          	lw	a2,204(sp)
    5550:	00098a13          	mv	s4,s3
    5554:	ae8ff06f          	j	483c <_vfprintf_r+0xb10>
    5558:	000d0e93          	mv	t4,s10
    555c:	01260633          	add	a2,a2,s2
    5560:	00178793          	add	a5,a5,1
    5564:	01da2023          	sw	t4,0(s4)
    5568:	aadfe06f          	j	4014 <_vfprintf_r+0x2e8>
    556c:	0d012783          	lw	a5,208(sp)
    5570:	08010593          	add	a1,sp,128
    5574:	09010513          	add	a0,sp,144
    5578:	08f12823          	sw	a5,144(sp)
    557c:	0d412783          	lw	a5,212(sp)
    5580:	08012023          	sw	zero,128(sp)
    5584:	08012223          	sw	zero,132(sp)
    5588:	08f12a23          	sw	a5,148(sp)
    558c:	0d812783          	lw	a5,216(sp)
    5590:	08012423          	sw	zero,136(sp)
    5594:	08012623          	sw	zero,140(sp)
    5598:	08f12c23          	sw	a5,152(sp)
    559c:	0dc12783          	lw	a5,220(sp)
    55a0:	08f12e23          	sw	a5,156(sp)
    55a4:	0350a0ef          	jal	fdd8 <__letf2>
    55a8:	01012883          	lw	a7,16(sp)
    55ac:	3c054663          	bltz	a0,5978 <_vfprintf_r+0x1c4c>
    55b0:	0a714703          	lbu	a4,167(sp)
    55b4:	04700693          	li	a3,71
    55b8:	0000fd17          	auipc	s10,0xf
    55bc:	92cd0d13          	add	s10,s10,-1748 # 13ee4 <__flash_rodata_start+0x44>
    55c0:	0116c663          	blt	a3,a7,55cc <_vfprintf_r+0x18a0>
    55c4:	0000fd17          	auipc	s10,0xf
    55c8:	91cd0d13          	add	s10,s10,-1764 # 13ee0 <__flash_rodata_start+0x40>
    55cc:	00012823          	sw	zero,16(sp)
    55d0:	02012223          	sw	zero,36(sp)
    55d4:	02012023          	sw	zero,32(sp)
    55d8:	00012c23          	sw	zero,24(sp)
    55dc:	f7fcfc93          	and	s9,s9,-129
    55e0:	00300d93          	li	s11,3
    55e4:	00300913          	li	s2,3
    55e8:	00000b13          	li	s6,0
    55ec:	00070463          	beqz	a4,55f4 <_vfprintf_r+0x18c8>
    55f0:	f81fe06f          	j	4570 <_vfprintf_r+0x844>
    55f4:	96dfe06f          	j	3f60 <_vfprintf_r+0x234>
    55f8:	01412783          	lw	a5,20(sp)
    55fc:	00c12703          	lw	a4,12(sp)
    5600:	0007a783          	lw	a5,0(a5)
    5604:	00e7a023          	sw	a4,0(a5)
    5608:	878ff06f          	j	4680 <_vfprintf_r+0x954>
    560c:	000a8e93          	mv	t4,s5
    5610:	01812a83          	lw	s5,24(sp)
    5614:	000a0793          	mv	a5,s4
    5618:	00040a13          	mv	s4,s0
    561c:	00078413          	mv	s0,a5
    5620:	014c0c33          	add	s8,s8,s4
    5624:	00190913          	add	s2,s2,1
    5628:	01db2023          	sw	t4,0(s6)
    562c:	dc9fe06f          	j	43f4 <_vfprintf_r+0x6c8>
    5630:	01000593          	li	a1,16
    5634:	0c812703          	lw	a4,200(sp)
    5638:	0000fe97          	auipc	t4,0xf
    563c:	c10e8e93          	add	t4,t4,-1008 # 14248 <zeroes.0>
    5640:	1365de63          	bge	a1,s6,577c <_vfprintf_r+0x1a50>
    5644:	000a0793          	mv	a5,s4
    5648:	01000c13          	li	s8,16
    564c:	00700913          	li	s2,7
    5650:	000e8a13          	mv	s4,t4
    5654:	00c0006f          	j	5660 <_vfprintf_r+0x1934>
    5658:	ff0b0b13          	add	s6,s6,-16
    565c:	116c5c63          	bge	s8,s6,5774 <_vfprintf_r+0x1a48>
    5660:	01060613          	add	a2,a2,16
    5664:	00170713          	add	a4,a4,1
    5668:	0147a023          	sw	s4,0(a5)
    566c:	0187a223          	sw	s8,4(a5)
    5670:	0cc12623          	sw	a2,204(sp)
    5674:	0ce12423          	sw	a4,200(sp)
    5678:	00878793          	add	a5,a5,8
    567c:	fce95ee3          	bge	s2,a4,5658 <_vfprintf_r+0x192c>
    5680:	00812503          	lw	a0,8(sp)
    5684:	0c410613          	add	a2,sp,196
    5688:	00040593          	mv	a1,s0
    568c:	170010ef          	jal	67fc <__sprint_r>
    5690:	d2051263          	bnez	a0,4bb4 <_vfprintf_r+0xe88>
    5694:	0cc12603          	lw	a2,204(sp)
    5698:	0c812703          	lw	a4,200(sp)
    569c:	00098793          	mv	a5,s3
    56a0:	fb9ff06f          	j	5658 <_vfprintf_r+0x192c>
    56a4:	02c12703          	lw	a4,44(sp)
    56a8:	02812783          	lw	a5,40(sp)
    56ac:	00700513          	li	a0,7
    56b0:	00ea2023          	sw	a4,0(s4)
    56b4:	0c812703          	lw	a4,200(sp)
    56b8:	00c78633          	add	a2,a5,a2
    56bc:	00fa2223          	sw	a5,4(s4)
    56c0:	00170713          	add	a4,a4,1
    56c4:	0cc12623          	sw	a2,204(sp)
    56c8:	0ce12423          	sw	a4,200(sp)
    56cc:	008a0a13          	add	s4,s4,8
    56d0:	32e54463          	blt	a0,a4,59f8 <_vfprintf_r+0x1ccc>
    56d4:	5205cae3          	bltz	a1,6408 <_vfprintf_r+0x26dc>
    56d8:	01c12783          	lw	a5,28(sp)
    56dc:	00170713          	add	a4,a4,1
    56e0:	01aa2023          	sw	s10,0(s4)
    56e4:	00c78633          	add	a2,a5,a2
    56e8:	00fa2223          	sw	a5,4(s4)
    56ec:	0cc12623          	sw	a2,204(sp)
    56f0:	0ce12423          	sw	a4,200(sp)
    56f4:	00700793          	li	a5,7
    56f8:	00e7c463          	blt	a5,a4,5700 <_vfprintf_r+0x19d4>
    56fc:	92dfe06f          	j	4028 <_vfprintf_r+0x2fc>
    5700:	d39fe06f          	j	4438 <_vfprintf_r+0x70c>
    5704:	000d0513          	mv	a0,s10
    5708:	03112a23          	sw	a7,52(sp)
    570c:	3e0020ef          	jal	7aec <strlen>
    5710:	0a714703          	lbu	a4,167(sp)
    5714:	fff54693          	not	a3,a0
    5718:	41f6d693          	sra	a3,a3,0x1f
    571c:	01812a23          	sw	s8,20(sp)
    5720:	00012823          	sw	zero,16(sp)
    5724:	02012223          	sw	zero,36(sp)
    5728:	02012023          	sw	zero,32(sp)
    572c:	00012c23          	sw	zero,24(sp)
    5730:	03412883          	lw	a7,52(sp)
    5734:	00050913          	mv	s2,a0
    5738:	00d57db3          	and	s11,a0,a3
    573c:	00000b13          	li	s6,0
    5740:	00070463          	beqz	a4,5748 <_vfprintf_r+0x1a1c>
    5744:	e2dfe06f          	j	4570 <_vfprintf_r+0x844>
    5748:	819fe06f          	j	3f60 <_vfprintf_r+0x234>
    574c:	0dc12783          	lw	a5,220(sp)
    5750:	2607cc63          	bltz	a5,59c8 <_vfprintf_r+0x1c9c>
    5754:	0a714703          	lbu	a4,167(sp)
    5758:	04700693          	li	a3,71
    575c:	0000ed17          	auipc	s10,0xe
    5760:	790d0d13          	add	s10,s10,1936 # 13eec <__flash_rodata_start+0x4c>
    5764:	e716c4e3          	blt	a3,a7,55cc <_vfprintf_r+0x18a0>
    5768:	0000ed17          	auipc	s10,0xe
    576c:	780d0d13          	add	s10,s10,1920 # 13ee8 <__flash_rodata_start+0x48>
    5770:	e5dff06f          	j	55cc <_vfprintf_r+0x18a0>
    5774:	000a0e93          	mv	t4,s4
    5778:	00078a13          	mv	s4,a5
    577c:	01660633          	add	a2,a2,s6
    5780:	00170713          	add	a4,a4,1
    5784:	01da2023          	sw	t4,0(s4)
    5788:	016a2223          	sw	s6,4(s4)
    578c:	0cc12623          	sw	a2,204(sp)
    5790:	0ce12423          	sw	a4,200(sp)
    5794:	00700593          	li	a1,7
    5798:	008a0a13          	add	s4,s4,8
    579c:	e8e5d863          	bge	a1,a4,4e2c <_vfprintf_r+0x1100>
    57a0:	00812503          	lw	a0,8(sp)
    57a4:	0c410613          	add	a2,sp,196
    57a8:	00040593          	mv	a1,s0
    57ac:	050010ef          	jal	67fc <__sprint_r>
    57b0:	c0051263          	bnez	a0,4bb4 <_vfprintf_r+0xe88>
    57b4:	0cc12603          	lw	a2,204(sp)
    57b8:	00098a13          	mv	s4,s3
    57bc:	e70ff06f          	j	4e2c <_vfprintf_r+0x1100>
    57c0:	00812503          	lw	a0,8(sp)
    57c4:	09010913          	add	s2,sp,144
    57c8:	0ac10713          	add	a4,sp,172
    57cc:	0bc10813          	add	a6,sp,188
    57d0:	0b010793          	add	a5,sp,176
    57d4:	000b0693          	mv	a3,s6
    57d8:	00200613          	li	a2,2
    57dc:	00090593          	mv	a1,s2
    57e0:	03112223          	sw	a7,36(sp)
    57e4:	09f12823          	sw	t6,144(sp)
    57e8:	03f12023          	sw	t6,32(sp)
    57ec:	09e12a23          	sw	t5,148(sp)
    57f0:	01e12e23          	sw	t5,28(sp)
    57f4:	09d12c23          	sw	t4,152(sp)
    57f8:	01d12c23          	sw	t4,24(sp)
    57fc:	09812e23          	sw	s8,156(sp)
    5800:	510020ef          	jal	7d10 <_ldtoa_r>
    5804:	001cf713          	and	a4,s9,1
    5808:	01812e83          	lw	t4,24(sp)
    580c:	01c12f03          	lw	t5,28(sp)
    5810:	02012f83          	lw	t6,32(sp)
    5814:	02412883          	lw	a7,36(sp)
    5818:	00050d13          	mv	s10,a0
    581c:	320712e3          	bnez	a4,6340 <_vfprintf_r+0x2614>
    5820:	0ac12783          	lw	a5,172(sp)
    5824:	00f12c23          	sw	a5,24(sp)
    5828:	0bc12783          	lw	a5,188(sp)
    582c:	40a787b3          	sub	a5,a5,a0
    5830:	00f12e23          	sw	a5,28(sp)
    5834:	01812783          	lw	a5,24(sp)
    5838:	ffd00713          	li	a4,-3
    583c:	00e7c463          	blt	a5,a4,5844 <_vfprintf_r+0x1b18>
    5840:	1cfb54e3          	bge	s6,a5,6208 <_vfprintf_r+0x24dc>
    5844:	01812783          	lw	a5,24(sp)
    5848:	ffe88893          	add	a7,a7,-2
    584c:	fff78713          	add	a4,a5,-1
    5850:	0ae12623          	sw	a4,172(sp)
    5854:	0ff8f693          	zext.b	a3,a7
    5858:	00000613          	li	a2,0
    585c:	0ad10a23          	sb	a3,180(sp)
    5860:	02b00693          	li	a3,43
    5864:	00075a63          	bgez	a4,5878 <_vfprintf_r+0x1b4c>
    5868:	01812783          	lw	a5,24(sp)
    586c:	00100713          	li	a4,1
    5870:	02d00693          	li	a3,45
    5874:	40f70733          	sub	a4,a4,a5
    5878:	0ad10aa3          	sb	a3,181(sp)
    587c:	00900693          	li	a3,9
    5880:	48e6dce3          	bge	a3,a4,6518 <_vfprintf_r+0x27ec>
    5884:	0c310813          	add	a6,sp,195
    5888:	00080e93          	mv	t4,a6
    588c:	00a00613          	li	a2,10
    5890:	06300f13          	li	t5,99
    5894:	02c767b3          	rem	a5,a4,a2
    5898:	000e8513          	mv	a0,t4
    589c:	00070693          	mv	a3,a4
    58a0:	fffe8e93          	add	t4,t4,-1
    58a4:	03078793          	add	a5,a5,48
    58a8:	fef50fa3          	sb	a5,-1(a0)
    58ac:	02c74733          	div	a4,a4,a2
    58b0:	fedf42e3          	blt	t5,a3,5894 <_vfprintf_r+0x1b68>
    58b4:	03070713          	add	a4,a4,48
    58b8:	ffe50693          	add	a3,a0,-2
    58bc:	feee8fa3          	sb	a4,-1(t4)
    58c0:	5d06f4e3          	bgeu	a3,a6,6688 <_vfprintf_r+0x295c>
    58c4:	0b610613          	add	a2,sp,182
    58c8:	0006c783          	lbu	a5,0(a3)
    58cc:	00168693          	add	a3,a3,1
    58d0:	00160613          	add	a2,a2,1
    58d4:	fef60fa3          	sb	a5,-1(a2)
    58d8:	ff0698e3          	bne	a3,a6,58c8 <_vfprintf_r+0x1b9c>
    58dc:	19010793          	add	a5,sp,400
    58e0:	40a78733          	sub	a4,a5,a0
    58e4:	f3770793          	add	a5,a4,-201
    58e8:	02f12e23          	sw	a5,60(sp)
    58ec:	01c12783          	lw	a5,28(sp)
    58f0:	03c12683          	lw	a3,60(sp)
    58f4:	00100713          	li	a4,1
    58f8:	00d78933          	add	s2,a5,a3
    58fc:	44f756e3          	bge	a4,a5,6548 <_vfprintf_r+0x281c>
    5900:	02812783          	lw	a5,40(sp)
    5904:	00f90933          	add	s2,s2,a5
    5908:	fff94693          	not	a3,s2
    590c:	bffcfe13          	and	t3,s9,-1025
    5910:	41f6d693          	sra	a3,a3,0x1f
    5914:	100e6793          	or	a5,t3,256
    5918:	04f12423          	sw	a5,72(sp)
    591c:	00d97db3          	and	s11,s2,a3
    5920:	02012223          	sw	zero,36(sp)
    5924:	02012023          	sw	zero,32(sp)
    5928:	00012c23          	sw	zero,24(sp)
    592c:	03412783          	lw	a5,52(sp)
    5930:	5e078663          	beqz	a5,5f1c <_vfprintf_r+0x21f0>
    5934:	02d00713          	li	a4,45
    5938:	04812c83          	lw	s9,72(sp)
    593c:	0ae103a3          	sb	a4,167(sp)
    5940:	00000b13          	li	s6,0
    5944:	001d8d93          	add	s11,s11,1
    5948:	e18fe06f          	j	3f60 <_vfprintf_r+0x234>
    594c:	00812503          	lw	a0,8(sp)
    5950:	0c410613          	add	a2,sp,196
    5954:	00040593          	mv	a1,s0
    5958:	6a5000ef          	jal	67fc <__sprint_r>
    595c:	a4051c63          	bnez	a0,4bb4 <_vfprintf_r+0xe88>
    5960:	0ac12583          	lw	a1,172(sp)
    5964:	0cc12603          	lw	a2,204(sp)
    5968:	00098a13          	mv	s4,s3
    596c:	fa0ff06f          	j	510c <_vfprintf_r+0x13e0>
    5970:	00600913          	li	s2,6
    5974:	961ff06f          	j	52d4 <_vfprintf_r+0x15a8>
    5978:	02d00793          	li	a5,45
    597c:	0af103a3          	sb	a5,167(sp)
    5980:	02d00713          	li	a4,45
    5984:	c31ff06f          	j	55b4 <_vfprintf_r+0x1888>
    5988:	01891913          	sll	s2,s2,0x18
    598c:	41895913          	sra	s2,s2,0x18
    5990:	41f95d93          	sra	s11,s2,0x1f
    5994:	000d8793          	mv	a5,s11
    5998:	b11fe06f          	j	44a8 <_vfprintf_r+0x77c>
    599c:	0ff97913          	zext.b	s2,s2
    59a0:	00000d93          	li	s11,0
    59a4:	c45fe06f          	j	45e8 <_vfprintf_r+0x8bc>
    59a8:	0ff97913          	zext.b	s2,s2
    59ac:	00000d93          	li	s11,0
    59b0:	89dff06f          	j	524c <_vfprintf_r+0x1520>
    59b4:	01412783          	lw	a5,20(sp)
    59b8:	00c12703          	lw	a4,12(sp)
    59bc:	0007a783          	lw	a5,0(a5)
    59c0:	00e79023          	sh	a4,0(a5)
    59c4:	cbdfe06f          	j	4680 <_vfprintf_r+0x954>
    59c8:	02d00793          	li	a5,45
    59cc:	0af103a3          	sb	a5,167(sp)
    59d0:	02d00713          	li	a4,45
    59d4:	d85ff06f          	j	5758 <_vfprintf_r+0x1a2c>
    59d8:	00812503          	lw	a0,8(sp)
    59dc:	0c410613          	add	a2,sp,196
    59e0:	00040593          	mv	a1,s0
    59e4:	619000ef          	jal	67fc <__sprint_r>
    59e8:	00050463          	beqz	a0,59f0 <_vfprintf_r+0x1cc4>
    59ec:	ea4fe06f          	j	4090 <_vfprintf_r+0x364>
    59f0:	0c012423          	sw	zero,200(sp)
    59f4:	e9cfe06f          	j	4090 <_vfprintf_r+0x364>
    59f8:	00812503          	lw	a0,8(sp)
    59fc:	0c410613          	add	a2,sp,196
    5a00:	00040593          	mv	a1,s0
    5a04:	5f9000ef          	jal	67fc <__sprint_r>
    5a08:	9a051663          	bnez	a0,4bb4 <_vfprintf_r+0xe88>
    5a0c:	0ac12583          	lw	a1,172(sp)
    5a10:	0cc12603          	lw	a2,204(sp)
    5a14:	0c812703          	lw	a4,200(sp)
    5a18:	00098a13          	mv	s4,s3
    5a1c:	cb9ff06f          	j	56d4 <_vfprintf_r+0x19a8>
    5a20:	05842503          	lw	a0,88(s0)
    5a24:	984fd0ef          	jal	2ba8 <__retarget_lock_release_recursive>
    5a28:	f08fe06f          	j	4130 <_vfprintf_r+0x404>
    5a2c:	09010913          	add	s2,sp,144
    5a30:	08010593          	add	a1,sp,128
    5a34:	0ac10613          	add	a2,sp,172
    5a38:	00090513          	mv	a0,s2
    5a3c:	03112e23          	sw	a7,60(sp)
    5a40:	09f12023          	sw	t6,128(sp)
    5a44:	09e12223          	sw	t5,132(sp)
    5a48:	09d12423          	sw	t4,136(sp)
    5a4c:	00b12c23          	sw	a1,24(sp)
    5a50:	09812623          	sw	s8,140(sp)
    5a54:	124020ef          	jal	7b78 <frexpl>
    5a58:	09012803          	lw	a6,144(sp)
    5a5c:	0000f717          	auipc	a4,0xf
    5a60:	80470713          	add	a4,a4,-2044 # 14260 <zeroes.0+0x18>
    5a64:	00072503          	lw	a0,0(a4)
    5a68:	09012023          	sw	a6,128(sp)
    5a6c:	09412803          	lw	a6,148(sp)
    5a70:	00472603          	lw	a2,4(a4)
    5a74:	00872683          	lw	a3,8(a4)
    5a78:	09012223          	sw	a6,132(sp)
    5a7c:	09812803          	lw	a6,152(sp)
    5a80:	00c72703          	lw	a4,12(a4)
    5a84:	01812583          	lw	a1,24(sp)
    5a88:	09012423          	sw	a6,136(sp)
    5a8c:	09c12803          	lw	a6,156(sp)
    5a90:	06a12823          	sw	a0,112(sp)
    5a94:	06c12a23          	sw	a2,116(sp)
    5a98:	00090513          	mv	a0,s2
    5a9c:	07010613          	add	a2,sp,112
    5aa0:	09012623          	sw	a6,140(sp)
    5aa4:	06d12c23          	sw	a3,120(sp)
    5aa8:	06e12e23          	sw	a4,124(sp)
    5aac:	48c0a0ef          	jal	ff38 <__multf3>
    5ab0:	01812583          	lw	a1,24(sp)
    5ab4:	09012f03          	lw	t5,144(sp)
    5ab8:	09412e83          	lw	t4,148(sp)
    5abc:	09812803          	lw	a6,152(sp)
    5ac0:	00090513          	mv	a0,s2
    5ac4:	02b12223          	sw	a1,36(sp)
    5ac8:	03e12023          	sw	t5,32(sp)
    5acc:	01d12e23          	sw	t4,28(sp)
    5ad0:	01012c23          	sw	a6,24(sp)
    5ad4:	08012023          	sw	zero,128(sp)
    5ad8:	08012223          	sw	zero,132(sp)
    5adc:	08012423          	sw	zero,136(sp)
    5ae0:	08012623          	sw	zero,140(sp)
    5ae4:	0c40a0ef          	jal	fba8 <__eqtf2>
    5ae8:	09c12d83          	lw	s11,156(sp)
    5aec:	01812803          	lw	a6,24(sp)
    5af0:	01c12e83          	lw	t4,28(sp)
    5af4:	02012f03          	lw	t5,32(sp)
    5af8:	02412583          	lw	a1,36(sp)
    5afc:	03c12883          	lw	a7,60(sp)
    5b00:	00051663          	bnez	a0,5b0c <_vfprintf_r+0x1de0>
    5b04:	00100713          	li	a4,1
    5b08:	0ae12623          	sw	a4,172(sp)
    5b0c:	0000e797          	auipc	a5,0xe
    5b10:	3f878793          	add	a5,a5,1016 # 13f04 <__flash_rodata_start+0x64>
    5b14:	06100713          	li	a4,97
    5b18:	00f12c23          	sw	a5,24(sp)
    5b1c:	00e89863          	bne	a7,a4,5b2c <_vfprintf_r+0x1e00>
    5b20:	0000e797          	auipc	a5,0xe
    5b24:	3d078793          	add	a5,a5,976 # 13ef0 <__flash_rodata_start+0x50>
    5b28:	00f12c23          	sw	a5,24(sp)
    5b2c:	0000e717          	auipc	a4,0xe
    5b30:	74470713          	add	a4,a4,1860 # 14270 <zeroes.0+0x28>
    5b34:	00072783          	lw	a5,0(a4)
    5b38:	03512e23          	sw	s5,60(sp)
    5b3c:	05712823          	sw	s7,80(sp)
    5b40:	00f12e23          	sw	a5,28(sp)
    5b44:	00472783          	lw	a5,4(a4)
    5b48:	05412a23          	sw	s4,84(sp)
    5b4c:	000d0a93          	mv	s5,s10
    5b50:	02f12023          	sw	a5,32(sp)
    5b54:	00872783          	lw	a5,8(a4)
    5b58:	04812c23          	sw	s0,88(sp)
    5b5c:	05a12e23          	sw	s10,92(sp)
    5b60:	02f12223          	sw	a5,36(sp)
    5b64:	00c72783          	lw	a5,12(a4)
    5b68:	000d8c13          	mv	s8,s11
    5b6c:	fffb0b13          	add	s6,s6,-1
    5b70:	05112423          	sw	a7,72(sp)
    5b74:	05912623          	sw	s9,76(sp)
    5b78:	00078d13          	mv	s10,a5
    5b7c:	000e8a13          	mv	s4,t4
    5b80:	00080b93          	mv	s7,a6
    5b84:	000f0d93          	mv	s11,t5
    5b88:	00058413          	mv	s0,a1
    5b8c:	03c0006f          	j	5bc8 <_vfprintf_r+0x1e9c>
    5b90:	00040593          	mv	a1,s0
    5b94:	00090513          	mv	a0,s2
    5b98:	09b12823          	sw	s11,144(sp)
    5b9c:	09412a23          	sw	s4,148(sp)
    5ba0:	09712c23          	sw	s7,152(sp)
    5ba4:	09812e23          	sw	s8,156(sp)
    5ba8:	08012023          	sw	zero,128(sp)
    5bac:	08012223          	sw	zero,132(sp)
    5bb0:	08012423          	sw	zero,136(sp)
    5bb4:	08012623          	sw	zero,140(sp)
    5bb8:	fffb0c93          	add	s9,s6,-1
    5bbc:	7ed090ef          	jal	fba8 <__eqtf2>
    5bc0:	240500e3          	beqz	a0,6600 <_vfprintf_r+0x28d4>
    5bc4:	000c8b13          	mv	s6,s9
    5bc8:	01c12783          	lw	a5,28(sp)
    5bcc:	07010613          	add	a2,sp,112
    5bd0:	00040593          	mv	a1,s0
    5bd4:	06f12823          	sw	a5,112(sp)
    5bd8:	02012783          	lw	a5,32(sp)
    5bdc:	00090513          	mv	a0,s2
    5be0:	09b12023          	sw	s11,128(sp)
    5be4:	06f12a23          	sw	a5,116(sp)
    5be8:	02412783          	lw	a5,36(sp)
    5bec:	09412223          	sw	s4,132(sp)
    5bf0:	09712423          	sw	s7,136(sp)
    5bf4:	06f12c23          	sw	a5,120(sp)
    5bf8:	09812623          	sw	s8,140(sp)
    5bfc:	07a12e23          	sw	s10,124(sp)
    5c00:	3380a0ef          	jal	ff38 <__multf3>
    5c04:	00090513          	mv	a0,s2
    5c08:	51d0c0ef          	jal	12924 <__fixtfsi>
    5c0c:	00050593          	mv	a1,a0
    5c10:	00050c93          	mv	s9,a0
    5c14:	00090513          	mv	a0,s2
    5c18:	09012d83          	lw	s11,144(sp)
    5c1c:	09412c03          	lw	s8,148(sp)
    5c20:	09812b83          	lw	s7,152(sp)
    5c24:	09c12a03          	lw	s4,156(sp)
    5c28:	5fd0c0ef          	jal	12a24 <__floatsitf>
    5c2c:	09012683          	lw	a3,144(sp)
    5c30:	06010613          	add	a2,sp,96
    5c34:	07010593          	add	a1,sp,112
    5c38:	06d12023          	sw	a3,96(sp)
    5c3c:	09412683          	lw	a3,148(sp)
    5c40:	00040513          	mv	a0,s0
    5c44:	07b12823          	sw	s11,112(sp)
    5c48:	06d12223          	sw	a3,100(sp)
    5c4c:	09812683          	lw	a3,152(sp)
    5c50:	07812a23          	sw	s8,116(sp)
    5c54:	07712c23          	sw	s7,120(sp)
    5c58:	06d12423          	sw	a3,104(sp)
    5c5c:	09c12683          	lw	a3,156(sp)
    5c60:	07412e23          	sw	s4,124(sp)
    5c64:	06d12623          	sw	a3,108(sp)
    5c68:	4840b0ef          	jal	110ec <__subtf3>
    5c6c:	01812783          	lw	a5,24(sp)
    5c70:	000a8f93          	mv	t6,s5
    5c74:	001a8a93          	add	s5,s5,1
    5c78:	019786b3          	add	a3,a5,s9
    5c7c:	0006c603          	lbu	a2,0(a3)
    5c80:	08012d83          	lw	s11,128(sp)
    5c84:	08412a03          	lw	s4,132(sp)
    5c88:	08812b83          	lw	s7,136(sp)
    5c8c:	08c12c03          	lw	s8,140(sp)
    5c90:	fff00793          	li	a5,-1
    5c94:	feca8fa3          	sb	a2,-1(s5)
    5c98:	eefb1ce3          	bne	s6,a5,5b90 <_vfprintf_r+0x1e64>
    5c9c:	0000e517          	auipc	a0,0xe
    5ca0:	5e450513          	add	a0,a0,1508 # 14280 <zeroes.0+0x38>
    5ca4:	04812883          	lw	a7,72(sp)
    5ca8:	00452283          	lw	t0,4(a0)
    5cac:	00852383          	lw	t2,8(a0)
    5cb0:	00c52783          	lw	a5,12(a0)
    5cb4:	00052b03          	lw	s6,0(a0)
    5cb8:	000d8f13          	mv	t5,s11
    5cbc:	000a0e93          	mv	t4,s4
    5cc0:	000b8813          	mv	a6,s7
    5cc4:	00040593          	mv	a1,s0
    5cc8:	000c0d93          	mv	s11,s8
    5ccc:	05c12d03          	lw	s10,92(sp)
    5cd0:	05412a03          	lw	s4,84(sp)
    5cd4:	05012b83          	lw	s7,80(sp)
    5cd8:	05812403          	lw	s0,88(sp)
    5cdc:	03112023          	sw	a7,32(sp)
    5ce0:	01f12e23          	sw	t6,28(sp)
    5ce4:	05912e23          	sw	s9,92(sp)
    5ce8:	000a8c13          	mv	s8,s5
    5cec:	04c12c83          	lw	s9,76(sp)
    5cf0:	03c12a83          	lw	s5,60(sp)
    5cf4:	09e12823          	sw	t5,144(sp)
    5cf8:	05e12c23          	sw	t5,88(sp)
    5cfc:	09d12a23          	sw	t4,148(sp)
    5d00:	05d12a23          	sw	t4,84(sp)
    5d04:	09012c23          	sw	a6,152(sp)
    5d08:	05012823          	sw	a6,80(sp)
    5d0c:	09b12e23          	sw	s11,156(sp)
    5d10:	09612023          	sw	s6,128(sp)
    5d14:	08512223          	sw	t0,132(sp)
    5d18:	04512623          	sw	t0,76(sp)
    5d1c:	08712423          	sw	t2,136(sp)
    5d20:	04712423          	sw	t2,72(sp)
    5d24:	08f12623          	sw	a5,140(sp)
    5d28:	02f12e23          	sw	a5,60(sp)
    5d2c:	02b12223          	sw	a1,36(sp)
    5d30:	00090513          	mv	a0,s2
    5d34:	745090ef          	jal	fc78 <__getf2>
    5d38:	01c12f83          	lw	t6,28(sp)
    5d3c:	02012883          	lw	a7,32(sp)
    5d40:	02a04863          	bgtz	a0,5d70 <_vfprintf_r+0x2044>
    5d44:	02412583          	lw	a1,36(sp)
    5d48:	00090513          	mv	a0,s2
    5d4c:	01112e23          	sw	a7,28(sp)
    5d50:	03f12023          	sw	t6,32(sp)
    5d54:	655090ef          	jal	fba8 <__eqtf2>
    5d58:	01c12883          	lw	a7,28(sp)
    5d5c:	04051e63          	bnez	a0,5db8 <_vfprintf_r+0x208c>
    5d60:	05c12703          	lw	a4,92(sp)
    5d64:	02012f83          	lw	t6,32(sp)
    5d68:	00177693          	and	a3,a4,1
    5d6c:	04068663          	beqz	a3,5db8 <_vfprintf_r+0x208c>
    5d70:	01812783          	lw	a5,24(sp)
    5d74:	0bf12e23          	sw	t6,188(sp)
    5d78:	fffc4603          	lbu	a2,-1(s8)
    5d7c:	00f7c583          	lbu	a1,15(a5)
    5d80:	000c0693          	mv	a3,s8
    5d84:	02b61063          	bne	a2,a1,5da4 <_vfprintf_r+0x2078>
    5d88:	03000513          	li	a0,48
    5d8c:	fea68fa3          	sb	a0,-1(a3)
    5d90:	0bc12683          	lw	a3,188(sp)
    5d94:	fff68793          	add	a5,a3,-1
    5d98:	0af12e23          	sw	a5,188(sp)
    5d9c:	fff6c603          	lbu	a2,-1(a3)
    5da0:	feb606e3          	beq	a2,a1,5d8c <_vfprintf_r+0x2060>
    5da4:	00160593          	add	a1,a2,1
    5da8:	03900513          	li	a0,57
    5dac:	0ff5f593          	zext.b	a1,a1
    5db0:	16a60063          	beq	a2,a0,5f10 <_vfprintf_r+0x21e4>
    5db4:	feb68fa3          	sb	a1,-1(a3)
    5db8:	0ac12783          	lw	a5,172(sp)
    5dbc:	41ac0733          	sub	a4,s8,s10
    5dc0:	00e12e23          	sw	a4,28(sp)
    5dc4:	fff78713          	add	a4,a5,-1
    5dc8:	00f12c23          	sw	a5,24(sp)
    5dcc:	06100613          	li	a2,97
    5dd0:	0ae12623          	sw	a4,172(sp)
    5dd4:	07000693          	li	a3,112
    5dd8:	00c88663          	beq	a7,a2,5de4 <_vfprintf_r+0x20b8>
    5ddc:	05000693          	li	a3,80
    5de0:	04100893          	li	a7,65
    5de4:	00100613          	li	a2,1
    5de8:	a75ff06f          	j	585c <_vfprintf_r+0x1b30>
    5dec:	001b0693          	add	a3,s6,1
    5df0:	00200613          	li	a2,2
    5df4:	00812503          	lw	a0,8(sp)
    5df8:	09010913          	add	s2,sp,144
    5dfc:	0ac10713          	add	a4,sp,172
    5e00:	00090593          	mv	a1,s2
    5e04:	0bc10813          	add	a6,sp,188
    5e08:	0b010793          	add	a5,sp,176
    5e0c:	05112623          	sw	a7,76(sp)
    5e10:	02d12223          	sw	a3,36(sp)
    5e14:	09f12823          	sw	t6,144(sp)
    5e18:	03f12023          	sw	t6,32(sp)
    5e1c:	09e12a23          	sw	t5,148(sp)
    5e20:	01e12e23          	sw	t5,28(sp)
    5e24:	09d12c23          	sw	t4,152(sp)
    5e28:	01d12c23          	sw	t4,24(sp)
    5e2c:	09812e23          	sw	s8,156(sp)
    5e30:	6e1010ef          	jal	7d10 <_ldtoa_r>
    5e34:	04c12883          	lw	a7,76(sp)
    5e38:	02412683          	lw	a3,36(sp)
    5e3c:	04600593          	li	a1,70
    5e40:	fdf8f613          	and	a2,a7,-33
    5e44:	01812e83          	lw	t4,24(sp)
    5e48:	01c12f03          	lw	t5,28(sp)
    5e4c:	02012f83          	lw	t6,32(sp)
    5e50:	00050d13          	mv	s10,a0
    5e54:	00d50733          	add	a4,a0,a3
    5e58:	06b618e3          	bne	a2,a1,66c8 <_vfprintf_r+0x299c>
    5e5c:	000d4503          	lbu	a0,0(s10)
    5e60:	03000593          	li	a1,48
    5e64:	4eb50663          	beq	a0,a1,6350 <_vfprintf_r+0x2624>
    5e68:	0ac12683          	lw	a3,172(sp)
    5e6c:	08010593          	add	a1,sp,128
    5e70:	00d70733          	add	a4,a4,a3
    5e74:	00090513          	mv	a0,s2
    5e78:	02e12023          	sw	a4,32(sp)
    5e7c:	00c12e23          	sw	a2,28(sp)
    5e80:	01112c23          	sw	a7,24(sp)
    5e84:	09f12823          	sw	t6,144(sp)
    5e88:	09e12a23          	sw	t5,148(sp)
    5e8c:	09d12c23          	sw	t4,152(sp)
    5e90:	09812e23          	sw	s8,156(sp)
    5e94:	08012023          	sw	zero,128(sp)
    5e98:	08012223          	sw	zero,132(sp)
    5e9c:	08012423          	sw	zero,136(sp)
    5ea0:	08012623          	sw	zero,140(sp)
    5ea4:	505090ef          	jal	fba8 <__eqtf2>
    5ea8:	01812883          	lw	a7,24(sp)
    5eac:	01c12603          	lw	a2,28(sp)
    5eb0:	02012703          	lw	a4,32(sp)
    5eb4:	46050e63          	beqz	a0,6330 <_vfprintf_r+0x2604>
    5eb8:	0bc12783          	lw	a5,188(sp)
    5ebc:	00e7fe63          	bgeu	a5,a4,5ed8 <_vfprintf_r+0x21ac>
    5ec0:	03000593          	li	a1,48
    5ec4:	00178693          	add	a3,a5,1
    5ec8:	0ad12e23          	sw	a3,188(sp)
    5ecc:	00b78023          	sb	a1,0(a5)
    5ed0:	0bc12783          	lw	a5,188(sp)
    5ed4:	fee7e8e3          	bltu	a5,a4,5ec4 <_vfprintf_r+0x2198>
    5ed8:	0ac12703          	lw	a4,172(sp)
    5edc:	00e12c23          	sw	a4,24(sp)
    5ee0:	41a787b3          	sub	a5,a5,s10
    5ee4:	04700713          	li	a4,71
    5ee8:	00f12e23          	sw	a5,28(sp)
    5eec:	94e604e3          	beq	a2,a4,5834 <_vfprintf_r+0x1b08>
    5ef0:	04600713          	li	a4,70
    5ef4:	4ee60063          	beq	a2,a4,63d4 <_vfprintf_r+0x26a8>
    5ef8:	01812783          	lw	a5,24(sp)
    5efc:	fff78713          	add	a4,a5,-1
    5f00:	951ff06f          	j	5850 <_vfprintf_r+0x1b24>
    5f04:	000b0693          	mv	a3,s6
    5f08:	00300613          	li	a2,3
    5f0c:	ee9ff06f          	j	5df4 <_vfprintf_r+0x20c8>
    5f10:	01812783          	lw	a5,24(sp)
    5f14:	00a7c583          	lbu	a1,10(a5)
    5f18:	e9dff06f          	j	5db4 <_vfprintf_r+0x2088>
    5f1c:	0a714703          	lbu	a4,167(sp)
    5f20:	04812c83          	lw	s9,72(sp)
    5f24:	00000b13          	li	s6,0
    5f28:	00070463          	beqz	a4,5f30 <_vfprintf_r+0x2204>
    5f2c:	e44fe06f          	j	4570 <_vfprintf_r+0x844>
    5f30:	830fe06f          	j	3f60 <_vfprintf_r+0x234>
    5f34:	01c12783          	lw	a5,28(sp)
    5f38:	03512a23          	sw	s5,52(sp)
    5f3c:	02012a83          	lw	s5,32(sp)
    5f40:	00fd07b3          	add	a5,s10,a5
    5f44:	05912423          	sw	s9,72(sp)
    5f48:	05712623          	sw	s7,76(sp)
    5f4c:	03b12023          	sw	s11,32(sp)
    5f50:	02412d83          	lw	s11,36(sp)
    5f54:	03a12223          	sw	s10,36(sp)
    5f58:	000c0c93          	mv	s9,s8
    5f5c:	00812903          	lw	s2,8(sp)
    5f60:	04412c03          	lw	s8,68(sp)
    5f64:	03812d03          	lw	s10,56(sp)
    5f68:	00700813          	li	a6,7
    5f6c:	01000713          	li	a4,16
    5f70:	0000eb17          	auipc	s6,0xe
    5f74:	2d8b0b13          	add	s6,s6,728 # 14248 <zeroes.0>
    5f78:	000a0593          	mv	a1,s4
    5f7c:	00078b93          	mv	s7,a5
    5f80:	09505663          	blez	s5,600c <_vfprintf_r+0x22e0>
    5f84:	17b05463          	blez	s11,60ec <_vfprintf_r+0x23c0>
    5f88:	fffd8d93          	add	s11,s11,-1
    5f8c:	04012783          	lw	a5,64(sp)
    5f90:	01860633          	add	a2,a2,s8
    5f94:	0185a223          	sw	s8,4(a1)
    5f98:	00f5a023          	sw	a5,0(a1)
    5f9c:	0c812783          	lw	a5,200(sp)
    5fa0:	0cc12623          	sw	a2,204(sp)
    5fa4:	00858593          	add	a1,a1,8
    5fa8:	00178793          	add	a5,a5,1
    5fac:	0cf12423          	sw	a5,200(sp)
    5fb0:	14f84463          	blt	a6,a5,60f8 <_vfprintf_r+0x23cc>
    5fb4:	000d4683          	lbu	a3,0(s10)
    5fb8:	419b8a33          	sub	s4,s7,s9
    5fbc:	0146d463          	bge	a3,s4,5fc4 <_vfprintf_r+0x2298>
    5fc0:	00068a13          	mv	s4,a3
    5fc4:	03405663          	blez	s4,5ff0 <_vfprintf_r+0x22c4>
    5fc8:	0c812683          	lw	a3,200(sp)
    5fcc:	01460633          	add	a2,a2,s4
    5fd0:	0195a023          	sw	s9,0(a1)
    5fd4:	00168693          	add	a3,a3,1
    5fd8:	0145a223          	sw	s4,4(a1)
    5fdc:	0cc12623          	sw	a2,204(sp)
    5fe0:	0cd12423          	sw	a3,200(sp)
    5fe4:	14d84063          	blt	a6,a3,6124 <_vfprintf_r+0x23f8>
    5fe8:	000d4683          	lbu	a3,0(s10)
    5fec:	00858593          	add	a1,a1,8
    5ff0:	fffa4513          	not	a0,s4
    5ff4:	41f55513          	sra	a0,a0,0x1f
    5ff8:	00aa77b3          	and	a5,s4,a0
    5ffc:	40f68a33          	sub	s4,a3,a5
    6000:	05404463          	bgtz	s4,6048 <_vfprintf_r+0x231c>
    6004:	00dc8cb3          	add	s9,s9,a3
    6008:	f7504ee3          	bgtz	s5,5f84 <_vfprintf_r+0x2258>
    600c:	f7b04ee3          	bgtz	s11,5f88 <_vfprintf_r+0x225c>
    6010:	01c12783          	lw	a5,28(sp)
    6014:	03a12c23          	sw	s10,56(sp)
    6018:	02412d03          	lw	s10,36(sp)
    601c:	000c8c13          	mv	s8,s9
    6020:	03412a83          	lw	s5,52(sp)
    6024:	00fd0733          	add	a4,s10,a5
    6028:	04812c83          	lw	s9,72(sp)
    602c:	04c12b83          	lw	s7,76(sp)
    6030:	02012d83          	lw	s11,32(sp)
    6034:	00058a13          	mv	s4,a1
    6038:	01876463          	bltu	a4,s8,6040 <_vfprintf_r+0x2314>
    603c:	e05fe06f          	j	4e40 <_vfprintf_r+0x1114>
    6040:	00070c13          	mv	s8,a4
    6044:	dfdfe06f          	j	4e40 <_vfprintf_r+0x1114>
    6048:	0c812683          	lw	a3,200(sp)
    604c:	0000ef17          	auipc	t5,0xe
    6050:	1fcf0f13          	add	t5,t5,508 # 14248 <zeroes.0>
    6054:	07475663          	bge	a4,s4,60c0 <_vfprintf_r+0x2394>
    6058:	01612c23          	sw	s6,24(sp)
    605c:	00c0006f          	j	6068 <_vfprintf_r+0x233c>
    6060:	ff0a0a13          	add	s4,s4,-16
    6064:	05475c63          	bge	a4,s4,60bc <_vfprintf_r+0x2390>
    6068:	01060613          	add	a2,a2,16
    606c:	00168693          	add	a3,a3,1
    6070:	0165a023          	sw	s6,0(a1)
    6074:	00e5a223          	sw	a4,4(a1)
    6078:	0cc12623          	sw	a2,204(sp)
    607c:	0cd12423          	sw	a3,200(sp)
    6080:	00858593          	add	a1,a1,8
    6084:	fcd85ee3          	bge	a6,a3,6060 <_vfprintf_r+0x2334>
    6088:	0c410613          	add	a2,sp,196
    608c:	00040593          	mv	a1,s0
    6090:	00090513          	mv	a0,s2
    6094:	768000ef          	jal	67fc <__sprint_r>
    6098:	00050463          	beqz	a0,60a0 <_vfprintf_r+0x2374>
    609c:	b19fe06f          	j	4bb4 <_vfprintf_r+0xe88>
    60a0:	01000713          	li	a4,16
    60a4:	ff0a0a13          	add	s4,s4,-16
    60a8:	0cc12603          	lw	a2,204(sp)
    60ac:	0c812683          	lw	a3,200(sp)
    60b0:	00098593          	mv	a1,s3
    60b4:	00700813          	li	a6,7
    60b8:	fb4748e3          	blt	a4,s4,6068 <_vfprintf_r+0x233c>
    60bc:	01812f03          	lw	t5,24(sp)
    60c0:	01460633          	add	a2,a2,s4
    60c4:	00168693          	add	a3,a3,1
    60c8:	01e5a023          	sw	t5,0(a1)
    60cc:	0145a223          	sw	s4,4(a1)
    60d0:	0cc12623          	sw	a2,204(sp)
    60d4:	0cd12423          	sw	a3,200(sp)
    60d8:	18d84063          	blt	a6,a3,6258 <_vfprintf_r+0x252c>
    60dc:	000d4683          	lbu	a3,0(s10)
    60e0:	00858593          	add	a1,a1,8
    60e4:	00dc8cb3          	add	s9,s9,a3
    60e8:	f21ff06f          	j	6008 <_vfprintf_r+0x22dc>
    60ec:	fffd0d13          	add	s10,s10,-1
    60f0:	fffa8a93          	add	s5,s5,-1
    60f4:	e99ff06f          	j	5f8c <_vfprintf_r+0x2260>
    60f8:	0c410613          	add	a2,sp,196
    60fc:	00040593          	mv	a1,s0
    6100:	00090513          	mv	a0,s2
    6104:	6f8000ef          	jal	67fc <__sprint_r>
    6108:	00050463          	beqz	a0,6110 <_vfprintf_r+0x23e4>
    610c:	aa9fe06f          	j	4bb4 <_vfprintf_r+0xe88>
    6110:	0cc12603          	lw	a2,204(sp)
    6114:	00098593          	mv	a1,s3
    6118:	01000713          	li	a4,16
    611c:	00700813          	li	a6,7
    6120:	e95ff06f          	j	5fb4 <_vfprintf_r+0x2288>
    6124:	0c410613          	add	a2,sp,196
    6128:	00040593          	mv	a1,s0
    612c:	00090513          	mv	a0,s2
    6130:	6cc000ef          	jal	67fc <__sprint_r>
    6134:	00050463          	beqz	a0,613c <_vfprintf_r+0x2410>
    6138:	a7dfe06f          	j	4bb4 <_vfprintf_r+0xe88>
    613c:	000d4683          	lbu	a3,0(s10)
    6140:	0cc12603          	lw	a2,204(sp)
    6144:	00098593          	mv	a1,s3
    6148:	01000713          	li	a4,16
    614c:	00700813          	li	a6,7
    6150:	ea1ff06f          	j	5ff0 <_vfprintf_r+0x22c4>
    6154:	04412783          	lw	a5,68(sp)
    6158:	04012583          	lw	a1,64(sp)
    615c:	03012a23          	sw	a6,52(sp)
    6160:	40f686b3          	sub	a3,a3,a5
    6164:	00078613          	mv	a2,a5
    6168:	00068513          	mv	a0,a3
    616c:	03e12223          	sw	t5,36(sp)
    6170:	02e12023          	sw	a4,32(sp)
    6174:	01d12e23          	sw	t4,28(sp)
    6178:	01112c23          	sw	a7,24(sp)
    617c:	00d12823          	sw	a3,16(sp)
    6180:	5c4010ef          	jal	7744 <strncpy>
    6184:	012d37b3          	sltu	a5,s10,s2
    6188:	00500613          	li	a2,5
    618c:	00fd07b3          	add	a5,s10,a5
    6190:	02c7f7b3          	remu	a5,a5,a2
    6194:	02012703          	lw	a4,32(sp)
    6198:	ccccd337          	lui	t1,0xccccd
    619c:	ccccd537          	lui	a0,0xccccd
    61a0:	00174583          	lbu	a1,1(a4)
    61a4:	ccd30313          	add	t1,t1,-819 # cccccccd <__alt_data_end+0xcccacccd>
    61a8:	ccc50513          	add	a0,a0,-820 # cccccccc <__alt_data_end+0xcccacccc>
    61ac:	00b035b3          	snez	a1,a1
    61b0:	00b70733          	add	a4,a4,a1
    61b4:	01012683          	lw	a3,16(sp)
    61b8:	01812883          	lw	a7,24(sp)
    61bc:	01c12e83          	lw	t4,28(sp)
    61c0:	02412f03          	lw	t5,36(sp)
    61c4:	03412803          	lw	a6,52(sp)
    61c8:	00000613          	li	a2,0
    61cc:	00500e13          	li	t3,5
    61d0:	40f907b3          	sub	a5,s2,a5
    61d4:	00f935b3          	sltu	a1,s2,a5
    61d8:	40bd85b3          	sub	a1,s11,a1
    61dc:	02a78533          	mul	a0,a5,a0
    61e0:	026585b3          	mul	a1,a1,t1
    61e4:	0267bfb3          	mulhu	t6,a5,t1
    61e8:	00a585b3          	add	a1,a1,a0
    61ec:	02678533          	mul	a0,a5,t1
    61f0:	01f585b3          	add	a1,a1,t6
    61f4:	01f59793          	sll	a5,a1,0x1f
    61f8:	0015d593          	srl	a1,a1,0x1
    61fc:	00155513          	srl	a0,a0,0x1
    6200:	00a7e7b3          	or	a5,a5,a0
    6204:	a8cff06f          	j	5490 <_vfprintf_r+0x1764>
    6208:	01c12783          	lw	a5,28(sp)
    620c:	01812703          	lw	a4,24(sp)
    6210:	26f74863          	blt	a4,a5,6480 <_vfprintf_r+0x2754>
    6214:	01812783          	lw	a5,24(sp)
    6218:	001cf713          	and	a4,s9,1
    621c:	00078913          	mv	s2,a5
    6220:	00070663          	beqz	a4,622c <_vfprintf_r+0x2500>
    6224:	02812703          	lw	a4,40(sp)
    6228:	00e78933          	add	s2,a5,a4
    622c:	400cfe13          	and	t3,s9,1024
    6230:	000e0663          	beqz	t3,623c <_vfprintf_r+0x2510>
    6234:	01812783          	lw	a5,24(sp)
    6238:	32f04463          	bgtz	a5,6560 <_vfprintf_r+0x2834>
    623c:	fff94693          	not	a3,s2
    6240:	41f6d693          	sra	a3,a3,0x1f
    6244:	00d97db3          	and	s11,s2,a3
    6248:	06700893          	li	a7,103
    624c:	02012223          	sw	zero,36(sp)
    6250:	02012023          	sw	zero,32(sp)
    6254:	ed8ff06f          	j	592c <_vfprintf_r+0x1c00>
    6258:	0c410613          	add	a2,sp,196
    625c:	00040593          	mv	a1,s0
    6260:	00090513          	mv	a0,s2
    6264:	598000ef          	jal	67fc <__sprint_r>
    6268:	00050463          	beqz	a0,6270 <_vfprintf_r+0x2544>
    626c:	949fe06f          	j	4bb4 <_vfprintf_r+0xe88>
    6270:	000d4683          	lbu	a3,0(s10)
    6274:	0cc12603          	lw	a2,204(sp)
    6278:	00098593          	mv	a1,s3
    627c:	01000713          	li	a4,16
    6280:	00700813          	li	a6,7
    6284:	00dc8cb3          	add	s9,s9,a3
    6288:	d81ff06f          	j	6008 <_vfprintf_r+0x22dc>
    628c:	00900513          	li	a0,9
    6290:	a1256063          	bltu	a0,s2,5490 <_vfprintf_r+0x1764>
    6294:	a7cff06f          	j	5510 <_vfprintf_r+0x17e4>
    6298:	00812503          	lw	a0,8(sp)
    629c:	0c410613          	add	a2,sp,196
    62a0:	00040593          	mv	a1,s0
    62a4:	558000ef          	jal	67fc <__sprint_r>
    62a8:	00050463          	beqz	a0,62b0 <_vfprintf_r+0x2584>
    62ac:	909fe06f          	j	4bb4 <_vfprintf_r+0xe88>
    62b0:	0cc12603          	lw	a2,204(sp)
    62b4:	00098a13          	mv	s4,s3
    62b8:	b5dfe06f          	j	4e14 <_vfprintf_r+0x10e8>
    62bc:	0a714703          	lbu	a4,167(sp)
    62c0:	01812a23          	sw	s8,20(sp)
    62c4:	02012223          	sw	zero,36(sp)
    62c8:	02012023          	sw	zero,32(sp)
    62cc:	00012c23          	sw	zero,24(sp)
    62d0:	000b0d93          	mv	s11,s6
    62d4:	000b0913          	mv	s2,s6
    62d8:	00000b13          	li	s6,0
    62dc:	00070463          	beqz	a4,62e4 <_vfprintf_r+0x25b8>
    62e0:	a90fe06f          	j	4570 <_vfprintf_r+0x844>
    62e4:	c7dfd06f          	j	3f60 <_vfprintf_r+0x234>
    62e8:	06442783          	lw	a5,100(s0)
    62ec:	0017f793          	and	a5,a5,1
    62f0:	2e078c63          	beqz	a5,65e8 <_vfprintf_r+0x28bc>
    62f4:	fff00793          	li	a5,-1
    62f8:	00f12623          	sw	a5,12(sp)
    62fc:	dd5fd06f          	j	40d0 <_vfprintf_r+0x3a4>
    6300:	00812503          	lw	a0,8(sp)
    6304:	0c410613          	add	a2,sp,196
    6308:	00040593          	mv	a1,s0
    630c:	4f0000ef          	jal	67fc <__sprint_r>
    6310:	00050463          	beqz	a0,6318 <_vfprintf_r+0x25ec>
    6314:	8a1fe06f          	j	4bb4 <_vfprintf_r+0xe88>
    6318:	0ac12583          	lw	a1,172(sp)
    631c:	01c12783          	lw	a5,28(sp)
    6320:	0cc12603          	lw	a2,204(sp)
    6324:	00098a13          	mv	s4,s3
    6328:	40b785b3          	sub	a1,a5,a1
    632c:	b71fe06f          	j	4e9c <_vfprintf_r+0x1170>
    6330:	0ac12783          	lw	a5,172(sp)
    6334:	00f12c23          	sw	a5,24(sp)
    6338:	00070793          	mv	a5,a4
    633c:	ba5ff06f          	j	5ee0 <_vfprintf_r+0x21b4>
    6340:	01650733          	add	a4,a0,s6
    6344:	04700613          	li	a2,71
    6348:	08010593          	add	a1,sp,128
    634c:	b29ff06f          	j	5e74 <_vfprintf_r+0x2148>
    6350:	08010593          	add	a1,sp,128
    6354:	00090513          	mv	a0,s2
    6358:	04e12c23          	sw	a4,88(sp)
    635c:	04c12a23          	sw	a2,84(sp)
    6360:	05112823          	sw	a7,80(sp)
    6364:	04d12623          	sw	a3,76(sp)
    6368:	09f12823          	sw	t6,144(sp)
    636c:	03f12223          	sw	t6,36(sp)
    6370:	09e12a23          	sw	t5,148(sp)
    6374:	03e12023          	sw	t5,32(sp)
    6378:	09d12c23          	sw	t4,152(sp)
    637c:	01d12e23          	sw	t4,28(sp)
    6380:	00b12c23          	sw	a1,24(sp)
    6384:	09812e23          	sw	s8,156(sp)
    6388:	08012023          	sw	zero,128(sp)
    638c:	08012223          	sw	zero,132(sp)
    6390:	08012423          	sw	zero,136(sp)
    6394:	08012623          	sw	zero,140(sp)
    6398:	011090ef          	jal	fba8 <__eqtf2>
    639c:	01812583          	lw	a1,24(sp)
    63a0:	01c12e83          	lw	t4,28(sp)
    63a4:	02012f03          	lw	t5,32(sp)
    63a8:	02412f83          	lw	t6,36(sp)
    63ac:	04c12683          	lw	a3,76(sp)
    63b0:	05012883          	lw	a7,80(sp)
    63b4:	05412603          	lw	a2,84(sp)
    63b8:	05812703          	lw	a4,88(sp)
    63bc:	28051c63          	bnez	a0,6654 <_vfprintf_r+0x2928>
    63c0:	0ac12783          	lw	a5,172(sp)
    63c4:	00f70733          	add	a4,a4,a5
    63c8:	00f12c23          	sw	a5,24(sp)
    63cc:	41a707b3          	sub	a5,a4,s10
    63d0:	00f12e23          	sw	a5,28(sp)
    63d4:	01812783          	lw	a5,24(sp)
    63d8:	001cf713          	and	a4,s9,1
    63dc:	01676733          	or	a4,a4,s6
    63e0:	2af05a63          	blez	a5,6694 <_vfprintf_r+0x2968>
    63e4:	24071e63          	bnez	a4,6640 <_vfprintf_r+0x2914>
    63e8:	01812903          	lw	s2,24(sp)
    63ec:	06600893          	li	a7,102
    63f0:	400cfe13          	and	t3,s9,1024
    63f4:	160e1863          	bnez	t3,6564 <_vfprintf_r+0x2838>
    63f8:	fff94693          	not	a3,s2
    63fc:	41f6d693          	sra	a3,a3,0x1f
    6400:	00d97db3          	and	s11,s2,a3
    6404:	e49ff06f          	j	624c <_vfprintf_r+0x2520>
    6408:	ff000513          	li	a0,-16
    640c:	40b00933          	neg	s2,a1
    6410:	0000ee97          	auipc	t4,0xe
    6414:	e38e8e93          	add	t4,t4,-456 # 14248 <zeroes.0>
    6418:	0aa5da63          	bge	a1,a0,64cc <_vfprintf_r+0x27a0>
    641c:	01512c23          	sw	s5,24(sp)
    6420:	01000b13          	li	s6,16
    6424:	00700c13          	li	s8,7
    6428:	000e8a93          	mv	s5,t4
    642c:	00c0006f          	j	6438 <_vfprintf_r+0x270c>
    6430:	ff090913          	add	s2,s2,-16
    6434:	092b5863          	bge	s6,s2,64c4 <_vfprintf_r+0x2798>
    6438:	01060613          	add	a2,a2,16
    643c:	00170713          	add	a4,a4,1
    6440:	015a2023          	sw	s5,0(s4)
    6444:	016a2223          	sw	s6,4(s4)
    6448:	0cc12623          	sw	a2,204(sp)
    644c:	0ce12423          	sw	a4,200(sp)
    6450:	008a0a13          	add	s4,s4,8
    6454:	fcec5ee3          	bge	s8,a4,6430 <_vfprintf_r+0x2704>
    6458:	00812503          	lw	a0,8(sp)
    645c:	0c410613          	add	a2,sp,196
    6460:	00040593          	mv	a1,s0
    6464:	398000ef          	jal	67fc <__sprint_r>
    6468:	00050463          	beqz	a0,6470 <_vfprintf_r+0x2744>
    646c:	f48fe06f          	j	4bb4 <_vfprintf_r+0xe88>
    6470:	0cc12603          	lw	a2,204(sp)
    6474:	0c812703          	lw	a4,200(sp)
    6478:	00098a13          	mv	s4,s3
    647c:	fb5ff06f          	j	6430 <_vfprintf_r+0x2704>
    6480:	01c12783          	lw	a5,28(sp)
    6484:	02812703          	lw	a4,40(sp)
    6488:	06700893          	li	a7,103
    648c:	00e78933          	add	s2,a5,a4
    6490:	01812783          	lw	a5,24(sp)
    6494:	f4f04ee3          	bgtz	a5,63f0 <_vfprintf_r+0x26c4>
    6498:	40f90833          	sub	a6,s2,a5
    649c:	00180913          	add	s2,a6,1
    64a0:	fff94693          	not	a3,s2
    64a4:	41f6d693          	sra	a3,a3,0x1f
    64a8:	00d97db3          	and	s11,s2,a3
    64ac:	da1ff06f          	j	624c <_vfprintf_r+0x2520>
    64b0:	000c8e93          	mv	t4,s9
    64b4:	8d0fe06f          	j	4584 <_vfprintf_r+0x858>
    64b8:	01012383          	lw	t2,16(sp)
    64bc:	000a0413          	mv	s0,s4
    64c0:	ef8fe06f          	j	4bb8 <_vfprintf_r+0xe8c>
    64c4:	000a8e93          	mv	t4,s5
    64c8:	01812a83          	lw	s5,24(sp)
    64cc:	01260633          	add	a2,a2,s2
    64d0:	00170713          	add	a4,a4,1
    64d4:	01da2023          	sw	t4,0(s4)
    64d8:	012a2223          	sw	s2,4(s4)
    64dc:	0cc12623          	sw	a2,204(sp)
    64e0:	0ce12423          	sw	a4,200(sp)
    64e4:	00700593          	li	a1,7
    64e8:	00e5c463          	blt	a1,a4,64f0 <_vfprintf_r+0x27c4>
    64ec:	c65fe06f          	j	5150 <_vfprintf_r+0x1424>
    64f0:	00812503          	lw	a0,8(sp)
    64f4:	0c410613          	add	a2,sp,196
    64f8:	00040593          	mv	a1,s0
    64fc:	300000ef          	jal	67fc <__sprint_r>
    6500:	00050463          	beqz	a0,6508 <_vfprintf_r+0x27dc>
    6504:	eb0fe06f          	j	4bb4 <_vfprintf_r+0xe88>
    6508:	0cc12603          	lw	a2,204(sp)
    650c:	0c812703          	lw	a4,200(sp)
    6510:	00098a13          	mv	s4,s3
    6514:	9c4ff06f          	j	56d8 <_vfprintf_r+0x19ac>
    6518:	0b610693          	add	a3,sp,182
    651c:	00061863          	bnez	a2,652c <_vfprintf_r+0x2800>
    6520:	03000693          	li	a3,48
    6524:	0ad10b23          	sb	a3,182(sp)
    6528:	0b710693          	add	a3,sp,183
    652c:	19010793          	add	a5,sp,400
    6530:	40f68633          	sub	a2,a3,a5
    6534:	03070713          	add	a4,a4,48
    6538:	0dd60793          	add	a5,a2,221
    653c:	00e68023          	sb	a4,0(a3)
    6540:	02f12e23          	sw	a5,60(sp)
    6544:	ba8ff06f          	j	58ec <_vfprintf_r+0x1bc0>
    6548:	001cf713          	and	a4,s9,1
    654c:	ba070e63          	beqz	a4,5908 <_vfprintf_r+0x1bdc>
    6550:	bb0ff06f          	j	5900 <_vfprintf_r+0x1bd4>
    6554:	00012823          	sw	zero,16(sp)
    6558:	00600b13          	li	s6,6
    655c:	d41fd06f          	j	429c <_vfprintf_r+0x570>
    6560:	06700893          	li	a7,103
    6564:	03812603          	lw	a2,56(sp)
    6568:	0ff00693          	li	a3,255
    656c:	00064703          	lbu	a4,0(a2)
    6570:	16d70263          	beq	a4,a3,66d4 <_vfprintf_r+0x29a8>
    6574:	01812783          	lw	a5,24(sp)
    6578:	00000513          	li	a0,0
    657c:	00000593          	li	a1,0
    6580:	00f75e63          	bge	a4,a5,659c <_vfprintf_r+0x2870>
    6584:	40e787b3          	sub	a5,a5,a4
    6588:	00164703          	lbu	a4,1(a2)
    658c:	04070463          	beqz	a4,65d4 <_vfprintf_r+0x28a8>
    6590:	00158593          	add	a1,a1,1
    6594:	00160613          	add	a2,a2,1
    6598:	fed714e3          	bne	a4,a3,6580 <_vfprintf_r+0x2854>
    659c:	02c12c23          	sw	a2,56(sp)
    65a0:	02b12023          	sw	a1,32(sp)
    65a4:	02a12223          	sw	a0,36(sp)
    65a8:	00f12c23          	sw	a5,24(sp)
    65ac:	02412783          	lw	a5,36(sp)
    65b0:	02012703          	lw	a4,32(sp)
    65b4:	00e78733          	add	a4,a5,a4
    65b8:	04412783          	lw	a5,68(sp)
    65bc:	02f70733          	mul	a4,a4,a5
    65c0:	01270933          	add	s2,a4,s2
    65c4:	fff94693          	not	a3,s2
    65c8:	41f6d693          	sra	a3,a3,0x1f
    65cc:	00d97db3          	and	s11,s2,a3
    65d0:	b5cff06f          	j	592c <_vfprintf_r+0x1c00>
    65d4:	00064703          	lbu	a4,0(a2)
    65d8:	00150513          	add	a0,a0,1
    65dc:	fbdff06f          	j	6598 <_vfprintf_r+0x286c>
    65e0:	00177713          	and	a4,a4,1
    65e4:	d00718e3          	bnez	a4,62f4 <_vfprintf_r+0x25c8>
    65e8:	00c45783          	lhu	a5,12(s0)
    65ec:	2007f793          	and	a5,a5,512
    65f0:	d00792e3          	bnez	a5,62f4 <_vfprintf_r+0x25c8>
    65f4:	05842503          	lw	a0,88(s0)
    65f8:	db0fc0ef          	jal	2ba8 <__retarget_lock_release_recursive>
    65fc:	cf9ff06f          	j	62f4 <_vfprintf_r+0x25c8>
    6600:	000a8c13          	mv	s8,s5
    6604:	001b0693          	add	a3,s6,1
    6608:	04812883          	lw	a7,72(sp)
    660c:	04c12c83          	lw	s9,76(sp)
    6610:	05012b83          	lw	s7,80(sp)
    6614:	05412a03          	lw	s4,84(sp)
    6618:	03c12a83          	lw	s5,60(sp)
    661c:	05812403          	lw	s0,88(sp)
    6620:	05c12d03          	lw	s10,92(sp)
    6624:	00dc06b3          	add	a3,s8,a3
    6628:	03000613          	li	a2,48
    662c:	f80b4663          	bltz	s6,5db8 <_vfprintf_r+0x208c>
    6630:	001c0c13          	add	s8,s8,1
    6634:	fecc0fa3          	sb	a2,-1(s8)
    6638:	ff869ce3          	bne	a3,s8,6630 <_vfprintf_r+0x2904>
    663c:	f7cff06f          	j	5db8 <_vfprintf_r+0x208c>
    6640:	02812703          	lw	a4,40(sp)
    6644:	06600893          	li	a7,102
    6648:	00eb0833          	add	a6,s6,a4
    664c:	00f80933          	add	s2,a6,a5
    6650:	da1ff06f          	j	63f0 <_vfprintf_r+0x26c4>
    6654:	00100513          	li	a0,1
    6658:	40d506b3          	sub	a3,a0,a3
    665c:	0ad12623          	sw	a3,172(sp)
    6660:	811ff06f          	j	5e70 <_vfprintf_r+0x2144>
    6664:	01412783          	lw	a5,20(sp)
    6668:	0007ab03          	lw	s6,0(a5)
    666c:	00478793          	add	a5,a5,4
    6670:	000b5463          	bgez	s6,6678 <_vfprintf_r+0x294c>
    6674:	fff00b13          	li	s6,-1
    6678:	001ac883          	lbu	a7,1(s5)
    667c:	00f12a23          	sw	a5,20(sp)
    6680:	00068a93          	mv	s5,a3
    6684:	855fd06f          	j	3ed8 <_vfprintf_r+0x1ac>
    6688:	00200793          	li	a5,2
    668c:	02f12e23          	sw	a5,60(sp)
    6690:	a5cff06f          	j	58ec <_vfprintf_r+0x1bc0>
    6694:	00071a63          	bnez	a4,66a8 <_vfprintf_r+0x297c>
    6698:	00100d93          	li	s11,1
    669c:	06600893          	li	a7,102
    66a0:	00100913          	li	s2,1
    66a4:	ba9ff06f          	j	624c <_vfprintf_r+0x2520>
    66a8:	02812783          	lw	a5,40(sp)
    66ac:	06600893          	li	a7,102
    66b0:	00178813          	add	a6,a5,1
    66b4:	01680933          	add	s2,a6,s6
    66b8:	fff94693          	not	a3,s2
    66bc:	41f6d693          	sra	a3,a3,0x1f
    66c0:	00d97db3          	and	s11,s2,a3
    66c4:	b89ff06f          	j	624c <_vfprintf_r+0x2520>
    66c8:	04500613          	li	a2,69
    66cc:	08010593          	add	a1,sp,128
    66d0:	fa4ff06f          	j	5e74 <_vfprintf_r+0x2148>
    66d4:	02012223          	sw	zero,36(sp)
    66d8:	02012023          	sw	zero,32(sp)
    66dc:	ed1ff06f          	j	65ac <_vfprintf_r+0x2880>
    66e0:	00c45783          	lhu	a5,12(s0)
    66e4:	0407e793          	or	a5,a5,64
    66e8:	00f41623          	sh	a5,12(s0)
    66ec:	9a5fd06f          	j	4090 <_vfprintf_r+0x364>

000066f0 <vfprintf>:
    66f0:	00060693          	mv	a3,a2
    66f4:	00058613          	mv	a2,a1
    66f8:	00050593          	mv	a1,a0
    66fc:	8201a503          	lw	a0,-2016(gp) # 160fc <_impure_ptr>
    6700:	e2cfd06f          	j	3d2c <_vfprintf_r>

00006704 <__sbprintf>:
    6704:	b7010113          	add	sp,sp,-1168
    6708:	00c59783          	lh	a5,12(a1)
    670c:	00e5d703          	lhu	a4,14(a1)
    6710:	48812423          	sw	s0,1160(sp)
    6714:	00058413          	mv	s0,a1
    6718:	000105b7          	lui	a1,0x10
    671c:	ffd58593          	add	a1,a1,-3 # fffd <__multf3+0xc5>
    6720:	06442303          	lw	t1,100(s0)
    6724:	01c42883          	lw	a7,28(s0)
    6728:	02442803          	lw	a6,36(s0)
    672c:	01071713          	sll	a4,a4,0x10
    6730:	00b7f7b3          	and	a5,a5,a1
    6734:	00e7e7b3          	or	a5,a5,a4
    6738:	40000593          	li	a1,1024
    673c:	49212023          	sw	s2,1152(sp)
    6740:	00f12a23          	sw	a5,20(sp)
    6744:	00050913          	mv	s2,a0
    6748:	07010793          	add	a5,sp,112
    674c:	06010513          	add	a0,sp,96
    6750:	48112623          	sw	ra,1164(sp)
    6754:	48912223          	sw	s1,1156(sp)
    6758:	47312e23          	sw	s3,1148(sp)
    675c:	00060493          	mv	s1,a2
    6760:	00068993          	mv	s3,a3
    6764:	06612623          	sw	t1,108(sp)
    6768:	03112223          	sw	a7,36(sp)
    676c:	03012623          	sw	a6,44(sp)
    6770:	00f12423          	sw	a5,8(sp)
    6774:	00f12c23          	sw	a5,24(sp)
    6778:	00b12823          	sw	a1,16(sp)
    677c:	00b12e23          	sw	a1,28(sp)
    6780:	02012023          	sw	zero,32(sp)
    6784:	bfcfc0ef          	jal	2b80 <__retarget_lock_init_recursive>
    6788:	00048613          	mv	a2,s1
    678c:	00098693          	mv	a3,s3
    6790:	00810593          	add	a1,sp,8
    6794:	00090513          	mv	a0,s2
    6798:	d94fd0ef          	jal	3d2c <_vfprintf_r>
    679c:	00050493          	mv	s1,a0
    67a0:	04055263          	bgez	a0,67e4 <__sbprintf+0xe0>
    67a4:	01415783          	lhu	a5,20(sp)
    67a8:	0407f793          	and	a5,a5,64
    67ac:	00078863          	beqz	a5,67bc <__sbprintf+0xb8>
    67b0:	00c45783          	lhu	a5,12(s0)
    67b4:	0407e793          	or	a5,a5,64
    67b8:	00f41623          	sh	a5,12(s0)
    67bc:	06012503          	lw	a0,96(sp)
    67c0:	bc8fc0ef          	jal	2b88 <__retarget_lock_close_recursive>
    67c4:	48c12083          	lw	ra,1164(sp)
    67c8:	48812403          	lw	s0,1160(sp)
    67cc:	48012903          	lw	s2,1152(sp)
    67d0:	47c12983          	lw	s3,1148(sp)
    67d4:	00048513          	mv	a0,s1
    67d8:	48412483          	lw	s1,1156(sp)
    67dc:	49010113          	add	sp,sp,1168
    67e0:	00008067          	ret
    67e4:	00810593          	add	a1,sp,8
    67e8:	00090513          	mv	a0,s2
    67ec:	424000ef          	jal	6c10 <_fflush_r>
    67f0:	fa050ae3          	beqz	a0,67a4 <__sbprintf+0xa0>
    67f4:	fff00493          	li	s1,-1
    67f8:	fadff06f          	j	67a4 <__sbprintf+0xa0>

000067fc <__sprint_r>:
    67fc:	00862783          	lw	a5,8(a2)
    6800:	ff010113          	add	sp,sp,-16
    6804:	00812423          	sw	s0,8(sp)
    6808:	00112623          	sw	ra,12(sp)
    680c:	00060413          	mv	s0,a2
    6810:	00079e63          	bnez	a5,682c <__sprint_r+0x30>
    6814:	00c12083          	lw	ra,12(sp)
    6818:	00042223          	sw	zero,4(s0)
    681c:	00812403          	lw	s0,8(sp)
    6820:	00000513          	li	a0,0
    6824:	01010113          	add	sp,sp,16
    6828:	00008067          	ret
    682c:	594000ef          	jal	6dc0 <__sfvwrite_r>
    6830:	00c12083          	lw	ra,12(sp)
    6834:	00042423          	sw	zero,8(s0)
    6838:	00042223          	sw	zero,4(s0)
    683c:	00812403          	lw	s0,8(sp)
    6840:	01010113          	add	sp,sp,16
    6844:	00008067          	ret

00006848 <_fclose_r>:
    6848:	ff010113          	add	sp,sp,-16
    684c:	00112623          	sw	ra,12(sp)
    6850:	01212023          	sw	s2,0(sp)
    6854:	0e058263          	beqz	a1,6938 <_fclose_r+0xf0>
    6858:	00812423          	sw	s0,8(sp)
    685c:	00912223          	sw	s1,4(sp)
    6860:	00058413          	mv	s0,a1
    6864:	00050493          	mv	s1,a0
    6868:	00050663          	beqz	a0,6874 <_fclose_r+0x2c>
    686c:	03452783          	lw	a5,52(a0)
    6870:	10078063          	beqz	a5,6970 <_fclose_r+0x128>
    6874:	06442783          	lw	a5,100(s0)
    6878:	00c41703          	lh	a4,12(s0)
    687c:	0017f793          	and	a5,a5,1
    6880:	0a079663          	bnez	a5,692c <_fclose_r+0xe4>
    6884:	20077713          	and	a4,a4,512
    6888:	0e070863          	beqz	a4,6978 <_fclose_r+0x130>
    688c:	00040593          	mv	a1,s0
    6890:	00048513          	mv	a0,s1
    6894:	130000ef          	jal	69c4 <__sflush_r>
    6898:	02c42783          	lw	a5,44(s0)
    689c:	00050913          	mv	s2,a0
    68a0:	00078a63          	beqz	a5,68b4 <_fclose_r+0x6c>
    68a4:	01c42583          	lw	a1,28(s0)
    68a8:	00048513          	mv	a0,s1
    68ac:	000780e7          	jalr	a5
    68b0:	0a054063          	bltz	a0,6950 <_fclose_r+0x108>
    68b4:	00c45783          	lhu	a5,12(s0)
    68b8:	0807f793          	and	a5,a5,128
    68bc:	0a079263          	bnez	a5,6960 <_fclose_r+0x118>
    68c0:	03042583          	lw	a1,48(s0)
    68c4:	00058c63          	beqz	a1,68dc <_fclose_r+0x94>
    68c8:	04040793          	add	a5,s0,64
    68cc:	00f58663          	beq	a1,a5,68d8 <_fclose_r+0x90>
    68d0:	00048513          	mv	a0,s1
    68d4:	945fc0ef          	jal	3218 <_free_r>
    68d8:	02042823          	sw	zero,48(s0)
    68dc:	04442583          	lw	a1,68(s0)
    68e0:	00058863          	beqz	a1,68f0 <_fclose_r+0xa8>
    68e4:	00048513          	mv	a0,s1
    68e8:	931fc0ef          	jal	3218 <_free_r>
    68ec:	04042223          	sw	zero,68(s0)
    68f0:	a61fb0ef          	jal	2350 <__sfp_lock_acquire>
    68f4:	06442783          	lw	a5,100(s0)
    68f8:	00041623          	sh	zero,12(s0)
    68fc:	0017f793          	and	a5,a5,1
    6900:	0a078663          	beqz	a5,69ac <_fclose_r+0x164>
    6904:	05842503          	lw	a0,88(s0)
    6908:	a80fc0ef          	jal	2b88 <__retarget_lock_close_recursive>
    690c:	a51fb0ef          	jal	235c <__sfp_lock_release>
    6910:	00c12083          	lw	ra,12(sp)
    6914:	00812403          	lw	s0,8(sp)
    6918:	00412483          	lw	s1,4(sp)
    691c:	00090513          	mv	a0,s2
    6920:	00012903          	lw	s2,0(sp)
    6924:	01010113          	add	sp,sp,16
    6928:	00008067          	ret
    692c:	f60710e3          	bnez	a4,688c <_fclose_r+0x44>
    6930:	00812403          	lw	s0,8(sp)
    6934:	00412483          	lw	s1,4(sp)
    6938:	00000913          	li	s2,0
    693c:	00c12083          	lw	ra,12(sp)
    6940:	00090513          	mv	a0,s2
    6944:	00012903          	lw	s2,0(sp)
    6948:	01010113          	add	sp,sp,16
    694c:	00008067          	ret
    6950:	00c45783          	lhu	a5,12(s0)
    6954:	fff00913          	li	s2,-1
    6958:	0807f793          	and	a5,a5,128
    695c:	f60782e3          	beqz	a5,68c0 <_fclose_r+0x78>
    6960:	01042583          	lw	a1,16(s0)
    6964:	00048513          	mv	a0,s1
    6968:	8b1fc0ef          	jal	3218 <_free_r>
    696c:	f55ff06f          	j	68c0 <_fclose_r+0x78>
    6970:	971fb0ef          	jal	22e0 <__sinit>
    6974:	f01ff06f          	j	6874 <_fclose_r+0x2c>
    6978:	05842503          	lw	a0,88(s0)
    697c:	a14fc0ef          	jal	2b90 <__retarget_lock_acquire_recursive>
    6980:	00c41783          	lh	a5,12(s0)
    6984:	f00794e3          	bnez	a5,688c <_fclose_r+0x44>
    6988:	06442783          	lw	a5,100(s0)
    698c:	0017f793          	and	a5,a5,1
    6990:	fa0790e3          	bnez	a5,6930 <_fclose_r+0xe8>
    6994:	05842503          	lw	a0,88(s0)
    6998:	00000913          	li	s2,0
    699c:	a0cfc0ef          	jal	2ba8 <__retarget_lock_release_recursive>
    69a0:	00812403          	lw	s0,8(sp)
    69a4:	00412483          	lw	s1,4(sp)
    69a8:	f95ff06f          	j	693c <_fclose_r+0xf4>
    69ac:	05842503          	lw	a0,88(s0)
    69b0:	9f8fc0ef          	jal	2ba8 <__retarget_lock_release_recursive>
    69b4:	f51ff06f          	j	6904 <_fclose_r+0xbc>

000069b8 <fclose>:
    69b8:	00050593          	mv	a1,a0
    69bc:	8201a503          	lw	a0,-2016(gp) # 160fc <_impure_ptr>
    69c0:	e89ff06f          	j	6848 <_fclose_r>

000069c4 <__sflush_r>:
    69c4:	00c59703          	lh	a4,12(a1)
    69c8:	fe010113          	add	sp,sp,-32
    69cc:	00812c23          	sw	s0,24(sp)
    69d0:	01312623          	sw	s3,12(sp)
    69d4:	00112e23          	sw	ra,28(sp)
    69d8:	00877793          	and	a5,a4,8
    69dc:	00058413          	mv	s0,a1
    69e0:	00050993          	mv	s3,a0
    69e4:	12079063          	bnez	a5,6b04 <__sflush_r+0x140>
    69e8:	000017b7          	lui	a5,0x1
    69ec:	80078793          	add	a5,a5,-2048 # 800 <altera_avalon_jtag_uart_init+0x60>
    69f0:	0045a683          	lw	a3,4(a1)
    69f4:	00f767b3          	or	a5,a4,a5
    69f8:	00f59623          	sh	a5,12(a1)
    69fc:	18d05263          	blez	a3,6b80 <__sflush_r+0x1bc>
    6a00:	02842803          	lw	a6,40(s0)
    6a04:	0e080463          	beqz	a6,6aec <__sflush_r+0x128>
    6a08:	00912a23          	sw	s1,20(sp)
    6a0c:	01371693          	sll	a3,a4,0x13
    6a10:	0009a483          	lw	s1,0(s3)
    6a14:	0009a023          	sw	zero,0(s3)
    6a18:	01c42583          	lw	a1,28(s0)
    6a1c:	1606ce63          	bltz	a3,6b98 <__sflush_r+0x1d4>
    6a20:	00000613          	li	a2,0
    6a24:	00100693          	li	a3,1
    6a28:	00098513          	mv	a0,s3
    6a2c:	000800e7          	jalr	a6
    6a30:	fff00793          	li	a5,-1
    6a34:	00050613          	mv	a2,a0
    6a38:	1af50463          	beq	a0,a5,6be0 <__sflush_r+0x21c>
    6a3c:	00c41783          	lh	a5,12(s0)
    6a40:	02842803          	lw	a6,40(s0)
    6a44:	01c42583          	lw	a1,28(s0)
    6a48:	0047f793          	and	a5,a5,4
    6a4c:	00078e63          	beqz	a5,6a68 <__sflush_r+0xa4>
    6a50:	00442703          	lw	a4,4(s0)
    6a54:	03042783          	lw	a5,48(s0)
    6a58:	40e60633          	sub	a2,a2,a4
    6a5c:	00078663          	beqz	a5,6a68 <__sflush_r+0xa4>
    6a60:	03c42783          	lw	a5,60(s0)
    6a64:	40f60633          	sub	a2,a2,a5
    6a68:	00000693          	li	a3,0
    6a6c:	00098513          	mv	a0,s3
    6a70:	000800e7          	jalr	a6
    6a74:	fff00793          	li	a5,-1
    6a78:	12f51463          	bne	a0,a5,6ba0 <__sflush_r+0x1dc>
    6a7c:	0009a683          	lw	a3,0(s3)
    6a80:	01d00793          	li	a5,29
    6a84:	00c41703          	lh	a4,12(s0)
    6a88:	16d7ea63          	bltu	a5,a3,6bfc <__sflush_r+0x238>
    6a8c:	204007b7          	lui	a5,0x20400
    6a90:	00178793          	add	a5,a5,1 # 20400001 <__alt_data_end+0x203e0001>
    6a94:	00d7d7b3          	srl	a5,a5,a3
    6a98:	0017f793          	and	a5,a5,1
    6a9c:	16078063          	beqz	a5,6bfc <__sflush_r+0x238>
    6aa0:	01042603          	lw	a2,16(s0)
    6aa4:	fffff7b7          	lui	a5,0xfffff
    6aa8:	7ff78793          	add	a5,a5,2047 # fffff7ff <__alt_data_end+0xfffdf7ff>
    6aac:	00f777b3          	and	a5,a4,a5
    6ab0:	00f41623          	sh	a5,12(s0)
    6ab4:	00042223          	sw	zero,4(s0)
    6ab8:	00c42023          	sw	a2,0(s0)
    6abc:	01371793          	sll	a5,a4,0x13
    6ac0:	0007d463          	bgez	a5,6ac8 <__sflush_r+0x104>
    6ac4:	10068263          	beqz	a3,6bc8 <__sflush_r+0x204>
    6ac8:	03042583          	lw	a1,48(s0)
    6acc:	0099a023          	sw	s1,0(s3)
    6ad0:	10058463          	beqz	a1,6bd8 <__sflush_r+0x214>
    6ad4:	04040793          	add	a5,s0,64
    6ad8:	00f58663          	beq	a1,a5,6ae4 <__sflush_r+0x120>
    6adc:	00098513          	mv	a0,s3
    6ae0:	f38fc0ef          	jal	3218 <_free_r>
    6ae4:	01412483          	lw	s1,20(sp)
    6ae8:	02042823          	sw	zero,48(s0)
    6aec:	00000513          	li	a0,0
    6af0:	01c12083          	lw	ra,28(sp)
    6af4:	01812403          	lw	s0,24(sp)
    6af8:	00c12983          	lw	s3,12(sp)
    6afc:	02010113          	add	sp,sp,32
    6b00:	00008067          	ret
    6b04:	01212823          	sw	s2,16(sp)
    6b08:	0105a903          	lw	s2,16(a1)
    6b0c:	08090263          	beqz	s2,6b90 <__sflush_r+0x1cc>
    6b10:	00912a23          	sw	s1,20(sp)
    6b14:	0005a483          	lw	s1,0(a1)
    6b18:	00377713          	and	a4,a4,3
    6b1c:	0125a023          	sw	s2,0(a1)
    6b20:	412484b3          	sub	s1,s1,s2
    6b24:	00000793          	li	a5,0
    6b28:	00071463          	bnez	a4,6b30 <__sflush_r+0x16c>
    6b2c:	0145a783          	lw	a5,20(a1)
    6b30:	00f42423          	sw	a5,8(s0)
    6b34:	00904863          	bgtz	s1,6b44 <__sflush_r+0x180>
    6b38:	0540006f          	j	6b8c <__sflush_r+0x1c8>
    6b3c:	00a90933          	add	s2,s2,a0
    6b40:	04905663          	blez	s1,6b8c <__sflush_r+0x1c8>
    6b44:	02442783          	lw	a5,36(s0)
    6b48:	01c42583          	lw	a1,28(s0)
    6b4c:	00048693          	mv	a3,s1
    6b50:	00090613          	mv	a2,s2
    6b54:	00098513          	mv	a0,s3
    6b58:	000780e7          	jalr	a5
    6b5c:	40a484b3          	sub	s1,s1,a0
    6b60:	fca04ee3          	bgtz	a0,6b3c <__sflush_r+0x178>
    6b64:	00c41703          	lh	a4,12(s0)
    6b68:	01012903          	lw	s2,16(sp)
    6b6c:	04076713          	or	a4,a4,64
    6b70:	01412483          	lw	s1,20(sp)
    6b74:	00e41623          	sh	a4,12(s0)
    6b78:	fff00513          	li	a0,-1
    6b7c:	f75ff06f          	j	6af0 <__sflush_r+0x12c>
    6b80:	03c5a683          	lw	a3,60(a1)
    6b84:	e6d04ee3          	bgtz	a3,6a00 <__sflush_r+0x3c>
    6b88:	f65ff06f          	j	6aec <__sflush_r+0x128>
    6b8c:	01412483          	lw	s1,20(sp)
    6b90:	01012903          	lw	s2,16(sp)
    6b94:	f59ff06f          	j	6aec <__sflush_r+0x128>
    6b98:	05042603          	lw	a2,80(s0)
    6b9c:	eadff06f          	j	6a48 <__sflush_r+0x84>
    6ba0:	00c41703          	lh	a4,12(s0)
    6ba4:	01042683          	lw	a3,16(s0)
    6ba8:	fffff7b7          	lui	a5,0xfffff
    6bac:	7ff78793          	add	a5,a5,2047 # fffff7ff <__alt_data_end+0xfffdf7ff>
    6bb0:	00f777b3          	and	a5,a4,a5
    6bb4:	00f41623          	sh	a5,12(s0)
    6bb8:	00042223          	sw	zero,4(s0)
    6bbc:	00d42023          	sw	a3,0(s0)
    6bc0:	01371793          	sll	a5,a4,0x13
    6bc4:	f007d2e3          	bgez	a5,6ac8 <__sflush_r+0x104>
    6bc8:	03042583          	lw	a1,48(s0)
    6bcc:	04a42823          	sw	a0,80(s0)
    6bd0:	0099a023          	sw	s1,0(s3)
    6bd4:	f00590e3          	bnez	a1,6ad4 <__sflush_r+0x110>
    6bd8:	01412483          	lw	s1,20(sp)
    6bdc:	f11ff06f          	j	6aec <__sflush_r+0x128>
    6be0:	0009a783          	lw	a5,0(s3)
    6be4:	e4078ce3          	beqz	a5,6a3c <__sflush_r+0x78>
    6be8:	01d00713          	li	a4,29
    6bec:	00e78c63          	beq	a5,a4,6c04 <__sflush_r+0x240>
    6bf0:	01600713          	li	a4,22
    6bf4:	00e78863          	beq	a5,a4,6c04 <__sflush_r+0x240>
    6bf8:	00c41703          	lh	a4,12(s0)
    6bfc:	04076713          	or	a4,a4,64
    6c00:	f71ff06f          	j	6b70 <__sflush_r+0x1ac>
    6c04:	0099a023          	sw	s1,0(s3)
    6c08:	01412483          	lw	s1,20(sp)
    6c0c:	ee1ff06f          	j	6aec <__sflush_r+0x128>

00006c10 <_fflush_r>:
    6c10:	ff010113          	add	sp,sp,-16
    6c14:	00812423          	sw	s0,8(sp)
    6c18:	00912223          	sw	s1,4(sp)
    6c1c:	00112623          	sw	ra,12(sp)
    6c20:	01212023          	sw	s2,0(sp)
    6c24:	00050493          	mv	s1,a0
    6c28:	00058413          	mv	s0,a1
    6c2c:	00050663          	beqz	a0,6c38 <_fflush_r+0x28>
    6c30:	03452783          	lw	a5,52(a0)
    6c34:	0a078a63          	beqz	a5,6ce8 <_fflush_r+0xd8>
    6c38:	00c41783          	lh	a5,12(s0)
    6c3c:	00000913          	li	s2,0
    6c40:	04078063          	beqz	a5,6c80 <_fflush_r+0x70>
    6c44:	06442703          	lw	a4,100(s0)
    6c48:	00177713          	and	a4,a4,1
    6c4c:	00071663          	bnez	a4,6c58 <_fflush_r+0x48>
    6c50:	2007f793          	and	a5,a5,512
    6c54:	04078463          	beqz	a5,6c9c <_fflush_r+0x8c>
    6c58:	00040593          	mv	a1,s0
    6c5c:	00048513          	mv	a0,s1
    6c60:	d65ff0ef          	jal	69c4 <__sflush_r>
    6c64:	06442783          	lw	a5,100(s0)
    6c68:	00050913          	mv	s2,a0
    6c6c:	0017f793          	and	a5,a5,1
    6c70:	00079863          	bnez	a5,6c80 <_fflush_r+0x70>
    6c74:	00c45783          	lhu	a5,12(s0)
    6c78:	2007f793          	and	a5,a5,512
    6c7c:	04078463          	beqz	a5,6cc4 <_fflush_r+0xb4>
    6c80:	00c12083          	lw	ra,12(sp)
    6c84:	00812403          	lw	s0,8(sp)
    6c88:	00412483          	lw	s1,4(sp)
    6c8c:	00090513          	mv	a0,s2
    6c90:	00012903          	lw	s2,0(sp)
    6c94:	01010113          	add	sp,sp,16
    6c98:	00008067          	ret
    6c9c:	05842503          	lw	a0,88(s0)
    6ca0:	ef1fb0ef          	jal	2b90 <__retarget_lock_acquire_recursive>
    6ca4:	00040593          	mv	a1,s0
    6ca8:	00048513          	mv	a0,s1
    6cac:	d19ff0ef          	jal	69c4 <__sflush_r>
    6cb0:	06442783          	lw	a5,100(s0)
    6cb4:	00050913          	mv	s2,a0
    6cb8:	0017f793          	and	a5,a5,1
    6cbc:	fc0792e3          	bnez	a5,6c80 <_fflush_r+0x70>
    6cc0:	fb5ff06f          	j	6c74 <_fflush_r+0x64>
    6cc4:	05842503          	lw	a0,88(s0)
    6cc8:	ee1fb0ef          	jal	2ba8 <__retarget_lock_release_recursive>
    6ccc:	00c12083          	lw	ra,12(sp)
    6cd0:	00812403          	lw	s0,8(sp)
    6cd4:	00412483          	lw	s1,4(sp)
    6cd8:	00090513          	mv	a0,s2
    6cdc:	00012903          	lw	s2,0(sp)
    6ce0:	01010113          	add	sp,sp,16
    6ce4:	00008067          	ret
    6ce8:	df8fb0ef          	jal	22e0 <__sinit>
    6cec:	f4dff06f          	j	6c38 <_fflush_r+0x28>

00006cf0 <fflush>:
    6cf0:	0a050a63          	beqz	a0,6da4 <fflush+0xb4>
    6cf4:	ff010113          	add	sp,sp,-16
    6cf8:	00812423          	sw	s0,8(sp)
    6cfc:	01212023          	sw	s2,0(sp)
    6d00:	00112623          	sw	ra,12(sp)
    6d04:	00912223          	sw	s1,4(sp)
    6d08:	8201a903          	lw	s2,-2016(gp) # 160fc <_impure_ptr>
    6d0c:	00050413          	mv	s0,a0
    6d10:	00090663          	beqz	s2,6d1c <fflush+0x2c>
    6d14:	03492783          	lw	a5,52(s2)
    6d18:	06078463          	beqz	a5,6d80 <fflush+0x90>
    6d1c:	00c41783          	lh	a5,12(s0)
    6d20:	00000493          	li	s1,0
    6d24:	04078063          	beqz	a5,6d64 <fflush+0x74>
    6d28:	06442703          	lw	a4,100(s0)
    6d2c:	00177713          	and	a4,a4,1
    6d30:	00071663          	bnez	a4,6d3c <fflush+0x4c>
    6d34:	2007f793          	and	a5,a5,512
    6d38:	04078a63          	beqz	a5,6d8c <fflush+0x9c>
    6d3c:	00040593          	mv	a1,s0
    6d40:	00090513          	mv	a0,s2
    6d44:	c81ff0ef          	jal	69c4 <__sflush_r>
    6d48:	06442783          	lw	a5,100(s0)
    6d4c:	00050493          	mv	s1,a0
    6d50:	0017f793          	and	a5,a5,1
    6d54:	00079863          	bnez	a5,6d64 <fflush+0x74>
    6d58:	00c45783          	lhu	a5,12(s0)
    6d5c:	2007f793          	and	a5,a5,512
    6d60:	02078c63          	beqz	a5,6d98 <fflush+0xa8>
    6d64:	00c12083          	lw	ra,12(sp)
    6d68:	00812403          	lw	s0,8(sp)
    6d6c:	00012903          	lw	s2,0(sp)
    6d70:	00048513          	mv	a0,s1
    6d74:	00412483          	lw	s1,4(sp)
    6d78:	01010113          	add	sp,sp,16
    6d7c:	00008067          	ret
    6d80:	00090513          	mv	a0,s2
    6d84:	d5cfb0ef          	jal	22e0 <__sinit>
    6d88:	f95ff06f          	j	6d1c <fflush+0x2c>
    6d8c:	05842503          	lw	a0,88(s0)
    6d90:	e01fb0ef          	jal	2b90 <__retarget_lock_acquire_recursive>
    6d94:	fa9ff06f          	j	6d3c <fflush+0x4c>
    6d98:	05842503          	lw	a0,88(s0)
    6d9c:	e0dfb0ef          	jal	2ba8 <__retarget_lock_release_recursive>
    6da0:	fc5ff06f          	j	6d64 <fflush+0x74>
    6da4:	0000f617          	auipc	a2,0xf
    6da8:	c9460613          	add	a2,a2,-876 # 15a38 <__sglue>
    6dac:	00000597          	auipc	a1,0x0
    6db0:	e6458593          	add	a1,a1,-412 # 6c10 <_fflush_r>
    6db4:	0000f517          	auipc	a0,0xf
    6db8:	c9450513          	add	a0,a0,-876 # 15a48 <_impure_data>
    6dbc:	e14fb06f          	j	23d0 <_fwalk_sglue>

00006dc0 <__sfvwrite_r>:
    6dc0:	00862783          	lw	a5,8(a2)
    6dc4:	2c078463          	beqz	a5,708c <__sfvwrite_r+0x2cc>
    6dc8:	00c59683          	lh	a3,12(a1)
    6dcc:	fd010113          	add	sp,sp,-48
    6dd0:	02812423          	sw	s0,40(sp)
    6dd4:	01412c23          	sw	s4,24(sp)
    6dd8:	01612823          	sw	s6,16(sp)
    6ddc:	02112623          	sw	ra,44(sp)
    6de0:	0086f793          	and	a5,a3,8
    6de4:	00060b13          	mv	s6,a2
    6de8:	00050a13          	mv	s4,a0
    6dec:	00058413          	mv	s0,a1
    6df0:	08078e63          	beqz	a5,6e8c <__sfvwrite_r+0xcc>
    6df4:	0105a783          	lw	a5,16(a1)
    6df8:	08078a63          	beqz	a5,6e8c <__sfvwrite_r+0xcc>
    6dfc:	02912223          	sw	s1,36(sp)
    6e00:	03212023          	sw	s2,32(sp)
    6e04:	01312e23          	sw	s3,28(sp)
    6e08:	01512a23          	sw	s5,20(sp)
    6e0c:	0026f793          	and	a5,a3,2
    6e10:	000b2483          	lw	s1,0(s6)
    6e14:	0a078463          	beqz	a5,6ebc <__sfvwrite_r+0xfc>
    6e18:	02442783          	lw	a5,36(s0)
    6e1c:	01c42583          	lw	a1,28(s0)
    6e20:	80000ab7          	lui	s5,0x80000
    6e24:	00000993          	li	s3,0
    6e28:	00000913          	li	s2,0
    6e2c:	c00a8a93          	add	s5,s5,-1024 # 7ffffc00 <__alt_data_end+0x7ffdfc00>
    6e30:	00098613          	mv	a2,s3
    6e34:	000a0513          	mv	a0,s4
    6e38:	04090263          	beqz	s2,6e7c <__sfvwrite_r+0xbc>
    6e3c:	00090693          	mv	a3,s2
    6e40:	012af463          	bgeu	s5,s2,6e48 <__sfvwrite_r+0x88>
    6e44:	000a8693          	mv	a3,s5
    6e48:	000780e7          	jalr	a5
    6e4c:	46a05063          	blez	a0,72ac <__sfvwrite_r+0x4ec>
    6e50:	008b2783          	lw	a5,8(s6)
    6e54:	00a989b3          	add	s3,s3,a0
    6e58:	40a90933          	sub	s2,s2,a0
    6e5c:	40a787b3          	sub	a5,a5,a0
    6e60:	00fb2423          	sw	a5,8(s6)
    6e64:	1a078663          	beqz	a5,7010 <__sfvwrite_r+0x250>
    6e68:	02442783          	lw	a5,36(s0)
    6e6c:	01c42583          	lw	a1,28(s0)
    6e70:	00098613          	mv	a2,s3
    6e74:	000a0513          	mv	a0,s4
    6e78:	fc0912e3          	bnez	s2,6e3c <__sfvwrite_r+0x7c>
    6e7c:	0004a983          	lw	s3,0(s1)
    6e80:	0044a903          	lw	s2,4(s1)
    6e84:	00848493          	add	s1,s1,8
    6e88:	fa9ff06f          	j	6e30 <__sfvwrite_r+0x70>
    6e8c:	00040593          	mv	a1,s0
    6e90:	000a0513          	mv	a0,s4
    6e94:	6ac000ef          	jal	7540 <__swsetup_r>
    6e98:	1c051c63          	bnez	a0,7070 <__sfvwrite_r+0x2b0>
    6e9c:	00c41683          	lh	a3,12(s0)
    6ea0:	02912223          	sw	s1,36(sp)
    6ea4:	03212023          	sw	s2,32(sp)
    6ea8:	01312e23          	sw	s3,28(sp)
    6eac:	01512a23          	sw	s5,20(sp)
    6eb0:	0026f793          	and	a5,a3,2
    6eb4:	000b2483          	lw	s1,0(s6)
    6eb8:	f60790e3          	bnez	a5,6e18 <__sfvwrite_r+0x58>
    6ebc:	01712623          	sw	s7,12(sp)
    6ec0:	01812423          	sw	s8,8(sp)
    6ec4:	0016f793          	and	a5,a3,1
    6ec8:	1c079663          	bnez	a5,7094 <__sfvwrite_r+0x2d4>
    6ecc:	00042783          	lw	a5,0(s0)
    6ed0:	00842703          	lw	a4,8(s0)
    6ed4:	80000ab7          	lui	s5,0x80000
    6ed8:	01912223          	sw	s9,4(sp)
    6edc:	00000b93          	li	s7,0
    6ee0:	00000993          	li	s3,0
    6ee4:	fffa8a93          	add	s5,s5,-1 # 7fffffff <__alt_data_end+0x7ffdffff>
    6ee8:	00078513          	mv	a0,a5
    6eec:	00070c13          	mv	s8,a4
    6ef0:	10098263          	beqz	s3,6ff4 <__sfvwrite_r+0x234>
    6ef4:	2006f613          	and	a2,a3,512
    6ef8:	28060863          	beqz	a2,7188 <__sfvwrite_r+0x3c8>
    6efc:	00070c93          	mv	s9,a4
    6f00:	32e9e663          	bltu	s3,a4,722c <__sfvwrite_r+0x46c>
    6f04:	4806f713          	and	a4,a3,1152
    6f08:	08070a63          	beqz	a4,6f9c <__sfvwrite_r+0x1dc>
    6f0c:	01442603          	lw	a2,20(s0)
    6f10:	01042583          	lw	a1,16(s0)
    6f14:	00161713          	sll	a4,a2,0x1
    6f18:	00c70733          	add	a4,a4,a2
    6f1c:	40b78933          	sub	s2,a5,a1
    6f20:	01f75c13          	srl	s8,a4,0x1f
    6f24:	00ec0c33          	add	s8,s8,a4
    6f28:	00190793          	add	a5,s2,1
    6f2c:	401c5c13          	sra	s8,s8,0x1
    6f30:	013787b3          	add	a5,a5,s3
    6f34:	000c0613          	mv	a2,s8
    6f38:	00fc7663          	bgeu	s8,a5,6f44 <__sfvwrite_r+0x184>
    6f3c:	00078c13          	mv	s8,a5
    6f40:	00078613          	mv	a2,a5
    6f44:	4006f693          	and	a3,a3,1024
    6f48:	30068e63          	beqz	a3,7264 <__sfvwrite_r+0x4a4>
    6f4c:	00060593          	mv	a1,a2
    6f50:	000a0513          	mv	a0,s4
    6f54:	de4fc0ef          	jal	3538 <_malloc_r>
    6f58:	00050c93          	mv	s9,a0
    6f5c:	34050c63          	beqz	a0,72b4 <__sfvwrite_r+0x4f4>
    6f60:	01042583          	lw	a1,16(s0)
    6f64:	00090613          	mv	a2,s2
    6f68:	d75fb0ef          	jal	2cdc <memcpy>
    6f6c:	00c45783          	lhu	a5,12(s0)
    6f70:	b7f7f793          	and	a5,a5,-1153
    6f74:	0807e793          	or	a5,a5,128
    6f78:	00f41623          	sh	a5,12(s0)
    6f7c:	012c8533          	add	a0,s9,s2
    6f80:	412c07b3          	sub	a5,s8,s2
    6f84:	01942823          	sw	s9,16(s0)
    6f88:	01842a23          	sw	s8,20(s0)
    6f8c:	00a42023          	sw	a0,0(s0)
    6f90:	00098c13          	mv	s8,s3
    6f94:	00f42423          	sw	a5,8(s0)
    6f98:	00098c93          	mv	s9,s3
    6f9c:	000c8613          	mv	a2,s9
    6fa0:	000b8593          	mv	a1,s7
    6fa4:	23d000ef          	jal	79e0 <memmove>
    6fa8:	00842703          	lw	a4,8(s0)
    6fac:	00042783          	lw	a5,0(s0)
    6fb0:	00098913          	mv	s2,s3
    6fb4:	41870733          	sub	a4,a4,s8
    6fb8:	019787b3          	add	a5,a5,s9
    6fbc:	00e42423          	sw	a4,8(s0)
    6fc0:	00f42023          	sw	a5,0(s0)
    6fc4:	00000993          	li	s3,0
    6fc8:	008b2783          	lw	a5,8(s6)
    6fcc:	012b8bb3          	add	s7,s7,s2
    6fd0:	412787b3          	sub	a5,a5,s2
    6fd4:	00fb2423          	sw	a5,8(s6)
    6fd8:	02078663          	beqz	a5,7004 <__sfvwrite_r+0x244>
    6fdc:	00042783          	lw	a5,0(s0)
    6fe0:	00842703          	lw	a4,8(s0)
    6fe4:	00c41683          	lh	a3,12(s0)
    6fe8:	00078513          	mv	a0,a5
    6fec:	00070c13          	mv	s8,a4
    6ff0:	f00992e3          	bnez	s3,6ef4 <__sfvwrite_r+0x134>
    6ff4:	0004ab83          	lw	s7,0(s1)
    6ff8:	0044a983          	lw	s3,4(s1)
    6ffc:	00848493          	add	s1,s1,8
    7000:	ee9ff06f          	j	6ee8 <__sfvwrite_r+0x128>
    7004:	00c12b83          	lw	s7,12(sp)
    7008:	00812c03          	lw	s8,8(sp)
    700c:	00412c83          	lw	s9,4(sp)
    7010:	02c12083          	lw	ra,44(sp)
    7014:	02812403          	lw	s0,40(sp)
    7018:	02412483          	lw	s1,36(sp)
    701c:	02012903          	lw	s2,32(sp)
    7020:	01c12983          	lw	s3,28(sp)
    7024:	01412a83          	lw	s5,20(sp)
    7028:	01812a03          	lw	s4,24(sp)
    702c:	01012b03          	lw	s6,16(sp)
    7030:	00000513          	li	a0,0
    7034:	03010113          	add	sp,sp,48
    7038:	00008067          	ret
    703c:	00040593          	mv	a1,s0
    7040:	000a0513          	mv	a0,s4
    7044:	bcdff0ef          	jal	6c10 <_fflush_r>
    7048:	0a050e63          	beqz	a0,7104 <__sfvwrite_r+0x344>
    704c:	00c41783          	lh	a5,12(s0)
    7050:	00c12b83          	lw	s7,12(sp)
    7054:	00812c03          	lw	s8,8(sp)
    7058:	02412483          	lw	s1,36(sp)
    705c:	02012903          	lw	s2,32(sp)
    7060:	01c12983          	lw	s3,28(sp)
    7064:	01412a83          	lw	s5,20(sp)
    7068:	0407e793          	or	a5,a5,64
    706c:	00f41623          	sh	a5,12(s0)
    7070:	02c12083          	lw	ra,44(sp)
    7074:	02812403          	lw	s0,40(sp)
    7078:	01812a03          	lw	s4,24(sp)
    707c:	01012b03          	lw	s6,16(sp)
    7080:	fff00513          	li	a0,-1
    7084:	03010113          	add	sp,sp,48
    7088:	00008067          	ret
    708c:	00000513          	li	a0,0
    7090:	00008067          	ret
    7094:	00000a93          	li	s5,0
    7098:	00000513          	li	a0,0
    709c:	00000c13          	li	s8,0
    70a0:	00000993          	li	s3,0
    70a4:	08098263          	beqz	s3,7128 <__sfvwrite_r+0x368>
    70a8:	08050a63          	beqz	a0,713c <__sfvwrite_r+0x37c>
    70ac:	000a8793          	mv	a5,s5
    70b0:	00098b93          	mv	s7,s3
    70b4:	0137f463          	bgeu	a5,s3,70bc <__sfvwrite_r+0x2fc>
    70b8:	00078b93          	mv	s7,a5
    70bc:	00042503          	lw	a0,0(s0)
    70c0:	01042783          	lw	a5,16(s0)
    70c4:	00842903          	lw	s2,8(s0)
    70c8:	01442683          	lw	a3,20(s0)
    70cc:	00a7f663          	bgeu	a5,a0,70d8 <__sfvwrite_r+0x318>
    70d0:	00d90933          	add	s2,s2,a3
    70d4:	09794463          	blt	s2,s7,715c <__sfvwrite_r+0x39c>
    70d8:	16dbc063          	blt	s7,a3,7238 <__sfvwrite_r+0x478>
    70dc:	02442783          	lw	a5,36(s0)
    70e0:	01c42583          	lw	a1,28(s0)
    70e4:	000c0613          	mv	a2,s8
    70e8:	000a0513          	mv	a0,s4
    70ec:	000780e7          	jalr	a5
    70f0:	00050913          	mv	s2,a0
    70f4:	f4a05ce3          	blez	a0,704c <__sfvwrite_r+0x28c>
    70f8:	412a8ab3          	sub	s5,s5,s2
    70fc:	00100513          	li	a0,1
    7100:	f20a8ee3          	beqz	s5,703c <__sfvwrite_r+0x27c>
    7104:	008b2783          	lw	a5,8(s6)
    7108:	012c0c33          	add	s8,s8,s2
    710c:	412989b3          	sub	s3,s3,s2
    7110:	412787b3          	sub	a5,a5,s2
    7114:	00fb2423          	sw	a5,8(s6)
    7118:	f80796e3          	bnez	a5,70a4 <__sfvwrite_r+0x2e4>
    711c:	00c12b83          	lw	s7,12(sp)
    7120:	00812c03          	lw	s8,8(sp)
    7124:	eedff06f          	j	7010 <__sfvwrite_r+0x250>
    7128:	0044a983          	lw	s3,4(s1)
    712c:	00048793          	mv	a5,s1
    7130:	00848493          	add	s1,s1,8
    7134:	fe098ae3          	beqz	s3,7128 <__sfvwrite_r+0x368>
    7138:	0007ac03          	lw	s8,0(a5)
    713c:	00098613          	mv	a2,s3
    7140:	00a00593          	li	a1,10
    7144:	000c0513          	mv	a0,s8
    7148:	538000ef          	jal	7680 <memchr>
    714c:	14050a63          	beqz	a0,72a0 <__sfvwrite_r+0x4e0>
    7150:	00150513          	add	a0,a0,1
    7154:	41850ab3          	sub	s5,a0,s8
    7158:	f55ff06f          	j	70ac <__sfvwrite_r+0x2ec>
    715c:	000c0593          	mv	a1,s8
    7160:	00090613          	mv	a2,s2
    7164:	07d000ef          	jal	79e0 <memmove>
    7168:	00042783          	lw	a5,0(s0)
    716c:	00040593          	mv	a1,s0
    7170:	000a0513          	mv	a0,s4
    7174:	012787b3          	add	a5,a5,s2
    7178:	00f42023          	sw	a5,0(s0)
    717c:	a95ff0ef          	jal	6c10 <_fflush_r>
    7180:	f6050ce3          	beqz	a0,70f8 <__sfvwrite_r+0x338>
    7184:	ec9ff06f          	j	704c <__sfvwrite_r+0x28c>
    7188:	01042683          	lw	a3,16(s0)
    718c:	04f6e263          	bltu	a3,a5,71d0 <__sfvwrite_r+0x410>
    7190:	01442603          	lw	a2,20(s0)
    7194:	02c9ee63          	bltu	s3,a2,71d0 <__sfvwrite_r+0x410>
    7198:	00098793          	mv	a5,s3
    719c:	013af463          	bgeu	s5,s3,71a4 <__sfvwrite_r+0x3e4>
    71a0:	000a8793          	mv	a5,s5
    71a4:	02c7e6b3          	rem	a3,a5,a2
    71a8:	02442703          	lw	a4,36(s0)
    71ac:	01c42583          	lw	a1,28(s0)
    71b0:	000b8613          	mv	a2,s7
    71b4:	000a0513          	mv	a0,s4
    71b8:	40d786b3          	sub	a3,a5,a3
    71bc:	000700e7          	jalr	a4
    71c0:	00050913          	mv	s2,a0
    71c4:	04a05a63          	blez	a0,7218 <__sfvwrite_r+0x458>
    71c8:	412989b3          	sub	s3,s3,s2
    71cc:	dfdff06f          	j	6fc8 <__sfvwrite_r+0x208>
    71d0:	00070913          	mv	s2,a4
    71d4:	00e9f463          	bgeu	s3,a4,71dc <__sfvwrite_r+0x41c>
    71d8:	00098913          	mv	s2,s3
    71dc:	00078513          	mv	a0,a5
    71e0:	00090613          	mv	a2,s2
    71e4:	000b8593          	mv	a1,s7
    71e8:	7f8000ef          	jal	79e0 <memmove>
    71ec:	00842703          	lw	a4,8(s0)
    71f0:	00042783          	lw	a5,0(s0)
    71f4:	41270733          	sub	a4,a4,s2
    71f8:	012787b3          	add	a5,a5,s2
    71fc:	00e42423          	sw	a4,8(s0)
    7200:	00f42023          	sw	a5,0(s0)
    7204:	fc0712e3          	bnez	a4,71c8 <__sfvwrite_r+0x408>
    7208:	00040593          	mv	a1,s0
    720c:	000a0513          	mv	a0,s4
    7210:	a01ff0ef          	jal	6c10 <_fflush_r>
    7214:	fa050ae3          	beqz	a0,71c8 <__sfvwrite_r+0x408>
    7218:	00c41783          	lh	a5,12(s0)
    721c:	00c12b83          	lw	s7,12(sp)
    7220:	00812c03          	lw	s8,8(sp)
    7224:	00412c83          	lw	s9,4(sp)
    7228:	e31ff06f          	j	7058 <__sfvwrite_r+0x298>
    722c:	00098c13          	mv	s8,s3
    7230:	00098c93          	mv	s9,s3
    7234:	d69ff06f          	j	6f9c <__sfvwrite_r+0x1dc>
    7238:	000b8613          	mv	a2,s7
    723c:	000c0593          	mv	a1,s8
    7240:	7a0000ef          	jal	79e0 <memmove>
    7244:	00842703          	lw	a4,8(s0)
    7248:	00042783          	lw	a5,0(s0)
    724c:	000b8913          	mv	s2,s7
    7250:	41770733          	sub	a4,a4,s7
    7254:	017787b3          	add	a5,a5,s7
    7258:	00e42423          	sw	a4,8(s0)
    725c:	00f42023          	sw	a5,0(s0)
    7260:	e99ff06f          	j	70f8 <__sfvwrite_r+0x338>
    7264:	000a0513          	mv	a0,s4
    7268:	1d4040ef          	jal	b43c <_realloc_r>
    726c:	00050c93          	mv	s9,a0
    7270:	d00516e3          	bnez	a0,6f7c <__sfvwrite_r+0x1bc>
    7274:	01042583          	lw	a1,16(s0)
    7278:	000a0513          	mv	a0,s4
    727c:	f9dfb0ef          	jal	3218 <_free_r>
    7280:	00c41783          	lh	a5,12(s0)
    7284:	00c00713          	li	a4,12
    7288:	00c12b83          	lw	s7,12(sp)
    728c:	00812c03          	lw	s8,8(sp)
    7290:	00412c83          	lw	s9,4(sp)
    7294:	00ea2023          	sw	a4,0(s4)
    7298:	f7f7f793          	and	a5,a5,-129
    729c:	dbdff06f          	j	7058 <__sfvwrite_r+0x298>
    72a0:	00198793          	add	a5,s3,1
    72a4:	00078a93          	mv	s5,a5
    72a8:	e09ff06f          	j	70b0 <__sfvwrite_r+0x2f0>
    72ac:	00c41783          	lh	a5,12(s0)
    72b0:	da9ff06f          	j	7058 <__sfvwrite_r+0x298>
    72b4:	00c00713          	li	a4,12
    72b8:	00c41783          	lh	a5,12(s0)
    72bc:	00c12b83          	lw	s7,12(sp)
    72c0:	00812c03          	lw	s8,8(sp)
    72c4:	00412c83          	lw	s9,4(sp)
    72c8:	00ea2023          	sw	a4,0(s4)
    72cc:	d8dff06f          	j	7058 <__sfvwrite_r+0x298>

000072d0 <__smakebuf_r>:
    72d0:	00c59783          	lh	a5,12(a1)
    72d4:	f8010113          	add	sp,sp,-128
    72d8:	06812c23          	sw	s0,120(sp)
    72dc:	06112e23          	sw	ra,124(sp)
    72e0:	0027f713          	and	a4,a5,2
    72e4:	00058413          	mv	s0,a1
    72e8:	02070463          	beqz	a4,7310 <__smakebuf_r+0x40>
    72ec:	04358793          	add	a5,a1,67
    72f0:	00f5a023          	sw	a5,0(a1)
    72f4:	00f5a823          	sw	a5,16(a1)
    72f8:	00100793          	li	a5,1
    72fc:	00f5aa23          	sw	a5,20(a1)
    7300:	07c12083          	lw	ra,124(sp)
    7304:	07812403          	lw	s0,120(sp)
    7308:	08010113          	add	sp,sp,128
    730c:	00008067          	ret
    7310:	00e59583          	lh	a1,14(a1)
    7314:	06912a23          	sw	s1,116(sp)
    7318:	07212823          	sw	s2,112(sp)
    731c:	07312623          	sw	s3,108(sp)
    7320:	07412423          	sw	s4,104(sp)
    7324:	00050493          	mv	s1,a0
    7328:	0805c663          	bltz	a1,73b4 <__smakebuf_r+0xe4>
    732c:	00810613          	add	a2,sp,8
    7330:	4e0000ef          	jal	7810 <_fstat_r>
    7334:	06054e63          	bltz	a0,73b0 <__smakebuf_r+0xe0>
    7338:	00c12783          	lw	a5,12(sp)
    733c:	0000f937          	lui	s2,0xf
    7340:	000019b7          	lui	s3,0x1
    7344:	00f97933          	and	s2,s2,a5
    7348:	ffffe7b7          	lui	a5,0xffffe
    734c:	00f90933          	add	s2,s2,a5
    7350:	00193913          	seqz	s2,s2
    7354:	40000a13          	li	s4,1024
    7358:	80098993          	add	s3,s3,-2048 # 800 <altera_avalon_jtag_uart_init+0x60>
    735c:	000a0593          	mv	a1,s4
    7360:	00048513          	mv	a0,s1
    7364:	9d4fc0ef          	jal	3538 <_malloc_r>
    7368:	00c41783          	lh	a5,12(s0)
    736c:	06050863          	beqz	a0,73dc <__smakebuf_r+0x10c>
    7370:	0807e793          	or	a5,a5,128
    7374:	00a42023          	sw	a0,0(s0)
    7378:	00a42823          	sw	a0,16(s0)
    737c:	00f41623          	sh	a5,12(s0)
    7380:	01442a23          	sw	s4,20(s0)
    7384:	0a091063          	bnez	s2,7424 <__smakebuf_r+0x154>
    7388:	0137e7b3          	or	a5,a5,s3
    738c:	07c12083          	lw	ra,124(sp)
    7390:	00f41623          	sh	a5,12(s0)
    7394:	07812403          	lw	s0,120(sp)
    7398:	07412483          	lw	s1,116(sp)
    739c:	07012903          	lw	s2,112(sp)
    73a0:	06c12983          	lw	s3,108(sp)
    73a4:	06812a03          	lw	s4,104(sp)
    73a8:	08010113          	add	sp,sp,128
    73ac:	00008067          	ret
    73b0:	00c41783          	lh	a5,12(s0)
    73b4:	0807f793          	and	a5,a5,128
    73b8:	00000913          	li	s2,0
    73bc:	04078e63          	beqz	a5,7418 <__smakebuf_r+0x148>
    73c0:	04000a13          	li	s4,64
    73c4:	000a0593          	mv	a1,s4
    73c8:	00048513          	mv	a0,s1
    73cc:	96cfc0ef          	jal	3538 <_malloc_r>
    73d0:	00c41783          	lh	a5,12(s0)
    73d4:	00000993          	li	s3,0
    73d8:	f8051ce3          	bnez	a0,7370 <__smakebuf_r+0xa0>
    73dc:	2007f713          	and	a4,a5,512
    73e0:	04071e63          	bnez	a4,743c <__smakebuf_r+0x16c>
    73e4:	ffc7f793          	and	a5,a5,-4
    73e8:	0027e793          	or	a5,a5,2
    73ec:	04340713          	add	a4,s0,67
    73f0:	00f41623          	sh	a5,12(s0)
    73f4:	00100793          	li	a5,1
    73f8:	07412483          	lw	s1,116(sp)
    73fc:	07012903          	lw	s2,112(sp)
    7400:	06c12983          	lw	s3,108(sp)
    7404:	06812a03          	lw	s4,104(sp)
    7408:	00e42023          	sw	a4,0(s0)
    740c:	00e42823          	sw	a4,16(s0)
    7410:	00f42a23          	sw	a5,20(s0)
    7414:	eedff06f          	j	7300 <__smakebuf_r+0x30>
    7418:	40000a13          	li	s4,1024
    741c:	00000993          	li	s3,0
    7420:	f3dff06f          	j	735c <__smakebuf_r+0x8c>
    7424:	00e41583          	lh	a1,14(s0)
    7428:	00048513          	mv	a0,s1
    742c:	444000ef          	jal	7870 <_isatty_r>
    7430:	02051063          	bnez	a0,7450 <__smakebuf_r+0x180>
    7434:	00c41783          	lh	a5,12(s0)
    7438:	f51ff06f          	j	7388 <__smakebuf_r+0xb8>
    743c:	07412483          	lw	s1,116(sp)
    7440:	07012903          	lw	s2,112(sp)
    7444:	06c12983          	lw	s3,108(sp)
    7448:	06812a03          	lw	s4,104(sp)
    744c:	eb5ff06f          	j	7300 <__smakebuf_r+0x30>
    7450:	00c45783          	lhu	a5,12(s0)
    7454:	ffc7f793          	and	a5,a5,-4
    7458:	0017e793          	or	a5,a5,1
    745c:	01079793          	sll	a5,a5,0x10
    7460:	4107d793          	sra	a5,a5,0x10
    7464:	f25ff06f          	j	7388 <__smakebuf_r+0xb8>

00007468 <__swhatbuf_r>:
    7468:	f9010113          	add	sp,sp,-112
    746c:	06812423          	sw	s0,104(sp)
    7470:	00058413          	mv	s0,a1
    7474:	00e59583          	lh	a1,14(a1)
    7478:	06912223          	sw	s1,100(sp)
    747c:	07212023          	sw	s2,96(sp)
    7480:	06112623          	sw	ra,108(sp)
    7484:	00060493          	mv	s1,a2
    7488:	00068913          	mv	s2,a3
    748c:	0405ca63          	bltz	a1,74e0 <__swhatbuf_r+0x78>
    7490:	00810613          	add	a2,sp,8
    7494:	37c000ef          	jal	7810 <_fstat_r>
    7498:	04054463          	bltz	a0,74e0 <__swhatbuf_r+0x78>
    749c:	00c12703          	lw	a4,12(sp)
    74a0:	0000f7b7          	lui	a5,0xf
    74a4:	06c12083          	lw	ra,108(sp)
    74a8:	00e7f7b3          	and	a5,a5,a4
    74ac:	ffffe737          	lui	a4,0xffffe
    74b0:	00e787b3          	add	a5,a5,a4
    74b4:	06812403          	lw	s0,104(sp)
    74b8:	0017b793          	seqz	a5,a5
    74bc:	00f92023          	sw	a5,0(s2) # f000 <__muldf3+0x574>
    74c0:	40000713          	li	a4,1024
    74c4:	00e4a023          	sw	a4,0(s1)
    74c8:	00001537          	lui	a0,0x1
    74cc:	06412483          	lw	s1,100(sp)
    74d0:	06012903          	lw	s2,96(sp)
    74d4:	80050513          	add	a0,a0,-2048 # 800 <altera_avalon_jtag_uart_init+0x60>
    74d8:	07010113          	add	sp,sp,112
    74dc:	00008067          	ret
    74e0:	00c45783          	lhu	a5,12(s0)
    74e4:	0807f793          	and	a5,a5,128
    74e8:	02078863          	beqz	a5,7518 <__swhatbuf_r+0xb0>
    74ec:	06c12083          	lw	ra,108(sp)
    74f0:	06812403          	lw	s0,104(sp)
    74f4:	00000793          	li	a5,0
    74f8:	00f92023          	sw	a5,0(s2)
    74fc:	04000713          	li	a4,64
    7500:	00e4a023          	sw	a4,0(s1)
    7504:	06012903          	lw	s2,96(sp)
    7508:	06412483          	lw	s1,100(sp)
    750c:	00000513          	li	a0,0
    7510:	07010113          	add	sp,sp,112
    7514:	00008067          	ret
    7518:	06c12083          	lw	ra,108(sp)
    751c:	06812403          	lw	s0,104(sp)
    7520:	00f92023          	sw	a5,0(s2)
    7524:	40000713          	li	a4,1024
    7528:	00e4a023          	sw	a4,0(s1)
    752c:	06012903          	lw	s2,96(sp)
    7530:	06412483          	lw	s1,100(sp)
    7534:	00000513          	li	a0,0
    7538:	07010113          	add	sp,sp,112
    753c:	00008067          	ret

00007540 <__swsetup_r>:
    7540:	ff010113          	add	sp,sp,-16
    7544:	00812423          	sw	s0,8(sp)
    7548:	00912223          	sw	s1,4(sp)
    754c:	00112623          	sw	ra,12(sp)
    7550:	8201a783          	lw	a5,-2016(gp) # 160fc <_impure_ptr>
    7554:	00050493          	mv	s1,a0
    7558:	00058413          	mv	s0,a1
    755c:	00078663          	beqz	a5,7568 <__swsetup_r+0x28>
    7560:	0347a703          	lw	a4,52(a5) # f034 <__muldf3+0x5a8>
    7564:	0e070c63          	beqz	a4,765c <__swsetup_r+0x11c>
    7568:	00c41783          	lh	a5,12(s0)
    756c:	0087f713          	and	a4,a5,8
    7570:	06070a63          	beqz	a4,75e4 <__swsetup_r+0xa4>
    7574:	01042703          	lw	a4,16(s0)
    7578:	08070663          	beqz	a4,7604 <__swsetup_r+0xc4>
    757c:	0017f693          	and	a3,a5,1
    7580:	02068863          	beqz	a3,75b0 <__swsetup_r+0x70>
    7584:	01442683          	lw	a3,20(s0)
    7588:	00042423          	sw	zero,8(s0)
    758c:	00000513          	li	a0,0
    7590:	40d006b3          	neg	a3,a3
    7594:	00d42c23          	sw	a3,24(s0)
    7598:	02070a63          	beqz	a4,75cc <__swsetup_r+0x8c>
    759c:	00c12083          	lw	ra,12(sp)
    75a0:	00812403          	lw	s0,8(sp)
    75a4:	00412483          	lw	s1,4(sp)
    75a8:	01010113          	add	sp,sp,16
    75ac:	00008067          	ret
    75b0:	0027f693          	and	a3,a5,2
    75b4:	00000613          	li	a2,0
    75b8:	00069463          	bnez	a3,75c0 <__swsetup_r+0x80>
    75bc:	01442603          	lw	a2,20(s0)
    75c0:	00c42423          	sw	a2,8(s0)
    75c4:	00000513          	li	a0,0
    75c8:	fc071ae3          	bnez	a4,759c <__swsetup_r+0x5c>
    75cc:	0807f713          	and	a4,a5,128
    75d0:	fc0706e3          	beqz	a4,759c <__swsetup_r+0x5c>
    75d4:	0407e793          	or	a5,a5,64
    75d8:	00f41623          	sh	a5,12(s0)
    75dc:	fff00513          	li	a0,-1
    75e0:	fbdff06f          	j	759c <__swsetup_r+0x5c>
    75e4:	0107f713          	and	a4,a5,16
    75e8:	08070063          	beqz	a4,7668 <__swsetup_r+0x128>
    75ec:	0047f713          	and	a4,a5,4
    75f0:	02071c63          	bnez	a4,7628 <__swsetup_r+0xe8>
    75f4:	01042703          	lw	a4,16(s0)
    75f8:	0087e793          	or	a5,a5,8
    75fc:	00f41623          	sh	a5,12(s0)
    7600:	f6071ee3          	bnez	a4,757c <__swsetup_r+0x3c>
    7604:	2807f693          	and	a3,a5,640
    7608:	20000613          	li	a2,512
    760c:	f6c688e3          	beq	a3,a2,757c <__swsetup_r+0x3c>
    7610:	00040593          	mv	a1,s0
    7614:	00048513          	mv	a0,s1
    7618:	cb9ff0ef          	jal	72d0 <__smakebuf_r>
    761c:	00c41783          	lh	a5,12(s0)
    7620:	01042703          	lw	a4,16(s0)
    7624:	f59ff06f          	j	757c <__swsetup_r+0x3c>
    7628:	03042583          	lw	a1,48(s0)
    762c:	00058e63          	beqz	a1,7648 <__swsetup_r+0x108>
    7630:	04040713          	add	a4,s0,64
    7634:	00e58863          	beq	a1,a4,7644 <__swsetup_r+0x104>
    7638:	00048513          	mv	a0,s1
    763c:	bddfb0ef          	jal	3218 <_free_r>
    7640:	00c41783          	lh	a5,12(s0)
    7644:	02042823          	sw	zero,48(s0)
    7648:	01042703          	lw	a4,16(s0)
    764c:	fdb7f793          	and	a5,a5,-37
    7650:	00042223          	sw	zero,4(s0)
    7654:	00e42023          	sw	a4,0(s0)
    7658:	fa1ff06f          	j	75f8 <__swsetup_r+0xb8>
    765c:	00078513          	mv	a0,a5
    7660:	c81fa0ef          	jal	22e0 <__sinit>
    7664:	f05ff06f          	j	7568 <__swsetup_r+0x28>
    7668:	00900713          	li	a4,9
    766c:	00e4a023          	sw	a4,0(s1)
    7670:	0407e793          	or	a5,a5,64
    7674:	00f41623          	sh	a5,12(s0)
    7678:	fff00513          	li	a0,-1
    767c:	f21ff06f          	j	759c <__swsetup_r+0x5c>

00007680 <memchr>:
    7680:	00357793          	and	a5,a0,3
    7684:	0ff5f693          	zext.b	a3,a1
    7688:	02078a63          	beqz	a5,76bc <memchr+0x3c>
    768c:	fff60793          	add	a5,a2,-1
    7690:	02060e63          	beqz	a2,76cc <memchr+0x4c>
    7694:	fff00613          	li	a2,-1
    7698:	0180006f          	j	76b0 <memchr+0x30>
    769c:	00150513          	add	a0,a0,1
    76a0:	00357713          	and	a4,a0,3
    76a4:	00070e63          	beqz	a4,76c0 <memchr+0x40>
    76a8:	fff78793          	add	a5,a5,-1
    76ac:	02c78063          	beq	a5,a2,76cc <memchr+0x4c>
    76b0:	00054703          	lbu	a4,0(a0)
    76b4:	fed714e3          	bne	a4,a3,769c <memchr+0x1c>
    76b8:	00008067          	ret
    76bc:	00060793          	mv	a5,a2
    76c0:	00300713          	li	a4,3
    76c4:	00f76863          	bltu	a4,a5,76d4 <memchr+0x54>
    76c8:	06079063          	bnez	a5,7728 <memchr+0xa8>
    76cc:	00000513          	li	a0,0
    76d0:	00008067          	ret
    76d4:	0ff5f593          	zext.b	a1,a1
    76d8:	00859713          	sll	a4,a1,0x8
    76dc:	00b705b3          	add	a1,a4,a1
    76e0:	01059713          	sll	a4,a1,0x10
    76e4:	feff08b7          	lui	a7,0xfeff0
    76e8:	80808837          	lui	a6,0x80808
    76ec:	00e585b3          	add	a1,a1,a4
    76f0:	eff88893          	add	a7,a7,-257 # fefefeff <__alt_data_end+0xfefcfeff>
    76f4:	08080813          	add	a6,a6,128 # 80808080 <__alt_data_end+0x807e8080>
    76f8:	00300313          	li	t1,3
    76fc:	0100006f          	j	770c <memchr+0x8c>
    7700:	ffc78793          	add	a5,a5,-4
    7704:	00450513          	add	a0,a0,4
    7708:	fcf370e3          	bgeu	t1,a5,76c8 <memchr+0x48>
    770c:	00052703          	lw	a4,0(a0)
    7710:	00e5c733          	xor	a4,a1,a4
    7714:	01170633          	add	a2,a4,a7
    7718:	fff74713          	not	a4,a4
    771c:	00e67733          	and	a4,a2,a4
    7720:	01077733          	and	a4,a4,a6
    7724:	fc070ee3          	beqz	a4,7700 <memchr+0x80>
    7728:	00f507b3          	add	a5,a0,a5
    772c:	00c0006f          	j	7738 <memchr+0xb8>
    7730:	00150513          	add	a0,a0,1
    7734:	f8a78ce3          	beq	a5,a0,76cc <memchr+0x4c>
    7738:	00054703          	lbu	a4,0(a0)
    773c:	fed71ae3          	bne	a4,a3,7730 <memchr+0xb0>
    7740:	00008067          	ret

00007744 <strncpy>:
    7744:	00a5e7b3          	or	a5,a1,a0
    7748:	0037f793          	and	a5,a5,3
    774c:	00079663          	bnez	a5,7758 <strncpy+0x14>
    7750:	00300793          	li	a5,3
    7754:	04c7e663          	bltu	a5,a2,77a0 <strncpy+0x5c>
    7758:	00050713          	mv	a4,a0
    775c:	01c0006f          	j	7778 <strncpy+0x34>
    7760:	fff5c683          	lbu	a3,-1(a1)
    7764:	fff60813          	add	a6,a2,-1
    7768:	fed78fa3          	sb	a3,-1(a5)
    776c:	00068e63          	beqz	a3,7788 <strncpy+0x44>
    7770:	00078713          	mv	a4,a5
    7774:	00080613          	mv	a2,a6
    7778:	00158593          	add	a1,a1,1
    777c:	00170793          	add	a5,a4,1 # ffffe001 <__alt_data_end+0xfffde001>
    7780:	fe0610e3          	bnez	a2,7760 <strncpy+0x1c>
    7784:	00008067          	ret
    7788:	00c70733          	add	a4,a4,a2
    778c:	06080063          	beqz	a6,77ec <strncpy+0xa8>
    7790:	00178793          	add	a5,a5,1
    7794:	fe078fa3          	sb	zero,-1(a5)
    7798:	fee79ce3          	bne	a5,a4,7790 <strncpy+0x4c>
    779c:	00008067          	ret
    77a0:	feff0337          	lui	t1,0xfeff0
    77a4:	808088b7          	lui	a7,0x80808
    77a8:	00050713          	mv	a4,a0
    77ac:	eff30313          	add	t1,t1,-257 # fefefeff <__alt_data_end+0xfefcfeff>
    77b0:	08088893          	add	a7,a7,128 # 80808080 <__alt_data_end+0x807e8080>
    77b4:	00300e13          	li	t3,3
    77b8:	0180006f          	j	77d0 <strncpy+0x8c>
    77bc:	00d72023          	sw	a3,0(a4)
    77c0:	ffc60613          	add	a2,a2,-4
    77c4:	00470713          	add	a4,a4,4
    77c8:	00458593          	add	a1,a1,4
    77cc:	face76e3          	bgeu	t3,a2,7778 <strncpy+0x34>
    77d0:	0005a683          	lw	a3,0(a1)
    77d4:	006687b3          	add	a5,a3,t1
    77d8:	fff6c813          	not	a6,a3
    77dc:	0107f7b3          	and	a5,a5,a6
    77e0:	0117f7b3          	and	a5,a5,a7
    77e4:	fc078ce3          	beqz	a5,77bc <strncpy+0x78>
    77e8:	f91ff06f          	j	7778 <strncpy+0x34>
    77ec:	00008067          	ret

000077f0 <__localeconv_l>:
    77f0:	0f050513          	add	a0,a0,240
    77f4:	00008067          	ret

000077f8 <_localeconv_r>:
    77f8:	0000f517          	auipc	a0,0xf
    77fc:	86850513          	add	a0,a0,-1944 # 16060 <__global_locale+0xf0>
    7800:	00008067          	ret

00007804 <localeconv>:
    7804:	0000f517          	auipc	a0,0xf
    7808:	85c50513          	add	a0,a0,-1956 # 16060 <__global_locale+0xf0>
    780c:	00008067          	ret

00007810 <_fstat_r>:
    7810:	ff010113          	add	sp,sp,-16
    7814:	00058713          	mv	a4,a1
    7818:	00812423          	sw	s0,8(sp)
    781c:	00060593          	mv	a1,a2
    7820:	00050413          	mv	s0,a0
    7824:	00070513          	mv	a0,a4
    7828:	00010797          	auipc	a5,0x10
    782c:	1e07ae23          	sw	zero,508(a5) # 17a24 <errno>
    7830:	00112623          	sw	ra,12(sp)
    7834:	0010b0ef          	jal	13034 <_fstat>
    7838:	fff00793          	li	a5,-1
    783c:	00f50a63          	beq	a0,a5,7850 <_fstat_r+0x40>
    7840:	00c12083          	lw	ra,12(sp)
    7844:	00812403          	lw	s0,8(sp)
    7848:	01010113          	add	sp,sp,16
    784c:	00008067          	ret
    7850:	00010797          	auipc	a5,0x10
    7854:	1d47a783          	lw	a5,468(a5) # 17a24 <errno>
    7858:	fe0784e3          	beqz	a5,7840 <_fstat_r+0x30>
    785c:	00c12083          	lw	ra,12(sp)
    7860:	00f42023          	sw	a5,0(s0)
    7864:	00812403          	lw	s0,8(sp)
    7868:	01010113          	add	sp,sp,16
    786c:	00008067          	ret

00007870 <_isatty_r>:
    7870:	ff010113          	add	sp,sp,-16
    7874:	00812423          	sw	s0,8(sp)
    7878:	00050413          	mv	s0,a0
    787c:	00058513          	mv	a0,a1
    7880:	00010797          	auipc	a5,0x10
    7884:	1a07a223          	sw	zero,420(a5) # 17a24 <errno>
    7888:	00112623          	sw	ra,12(sp)
    788c:	0cd0b0ef          	jal	13158 <_isatty>
    7890:	fff00793          	li	a5,-1
    7894:	00f50a63          	beq	a0,a5,78a8 <_isatty_r+0x38>
    7898:	00c12083          	lw	ra,12(sp)
    789c:	00812403          	lw	s0,8(sp)
    78a0:	01010113          	add	sp,sp,16
    78a4:	00008067          	ret
    78a8:	00010797          	auipc	a5,0x10
    78ac:	17c7a783          	lw	a5,380(a5) # 17a24 <errno>
    78b0:	fe0784e3          	beqz	a5,7898 <_isatty_r+0x28>
    78b4:	00c12083          	lw	ra,12(sp)
    78b8:	00f42023          	sw	a5,0(s0)
    78bc:	00812403          	lw	s0,8(sp)
    78c0:	01010113          	add	sp,sp,16
    78c4:	00008067          	ret

000078c8 <_open_r>:
    78c8:	ff010113          	add	sp,sp,-16
    78cc:	00058713          	mv	a4,a1
    78d0:	00812423          	sw	s0,8(sp)
    78d4:	00060593          	mv	a1,a2
    78d8:	00050413          	mv	s0,a0
    78dc:	00068613          	mv	a2,a3
    78e0:	00070513          	mv	a0,a4
    78e4:	00010797          	auipc	a5,0x10
    78e8:	1407a023          	sw	zero,320(a5) # 17a24 <errno>
    78ec:	00112623          	sw	ra,12(sp)
    78f0:	4ed0b0ef          	jal	135dc <_open>
    78f4:	fff00793          	li	a5,-1
    78f8:	00f50a63          	beq	a0,a5,790c <_open_r+0x44>
    78fc:	00c12083          	lw	ra,12(sp)
    7900:	00812403          	lw	s0,8(sp)
    7904:	01010113          	add	sp,sp,16
    7908:	00008067          	ret
    790c:	00010797          	auipc	a5,0x10
    7910:	1187a783          	lw	a5,280(a5) # 17a24 <errno>
    7914:	fe0784e3          	beqz	a5,78fc <_open_r+0x34>
    7918:	00c12083          	lw	ra,12(sp)
    791c:	00f42023          	sw	a5,0(s0)
    7920:	00812403          	lw	s0,8(sp)
    7924:	01010113          	add	sp,sp,16
    7928:	00008067          	ret

0000792c <_sbrk_r>:
    792c:	ff010113          	add	sp,sp,-16
    7930:	00812423          	sw	s0,8(sp)
    7934:	00050413          	mv	s0,a0
    7938:	00058513          	mv	a0,a1
    793c:	00010797          	auipc	a5,0x10
    7940:	0e07a423          	sw	zero,232(a5) # 17a24 <errno>
    7944:	00112623          	sw	ra,12(sp)
    7948:	7490b0ef          	jal	13890 <_sbrk>
    794c:	fff00793          	li	a5,-1
    7950:	00f50a63          	beq	a0,a5,7964 <_sbrk_r+0x38>
    7954:	00c12083          	lw	ra,12(sp)
    7958:	00812403          	lw	s0,8(sp)
    795c:	01010113          	add	sp,sp,16
    7960:	00008067          	ret
    7964:	00010797          	auipc	a5,0x10
    7968:	0c07a783          	lw	a5,192(a5) # 17a24 <errno>
    796c:	fe0784e3          	beqz	a5,7954 <_sbrk_r+0x28>
    7970:	00c12083          	lw	ra,12(sp)
    7974:	00f42023          	sw	a5,0(s0)
    7978:	00812403          	lw	s0,8(sp)
    797c:	01010113          	add	sp,sp,16
    7980:	00008067          	ret

00007984 <__libc_fini_array>:
    7984:	ff010113          	add	sp,sp,-16
    7988:	00812423          	sw	s0,8(sp)
    798c:	0000c797          	auipc	a5,0xc
    7990:	50878793          	add	a5,a5,1288 # 13e94 <__fini_array_end>
    7994:	0000c417          	auipc	s0,0xc
    7998:	50040413          	add	s0,s0,1280 # 13e94 <__fini_array_end>
    799c:	40f40433          	sub	s0,s0,a5
    79a0:	00912223          	sw	s1,4(sp)
    79a4:	00112623          	sw	ra,12(sp)
    79a8:	40245493          	sra	s1,s0,0x2
    79ac:	02048063          	beqz	s1,79cc <__libc_fini_array+0x48>
    79b0:	ffc40413          	add	s0,s0,-4
    79b4:	00f40433          	add	s0,s0,a5
    79b8:	00042783          	lw	a5,0(s0)
    79bc:	fff48493          	add	s1,s1,-1
    79c0:	ffc40413          	add	s0,s0,-4
    79c4:	000780e7          	jalr	a5
    79c8:	fe0498e3          	bnez	s1,79b8 <__libc_fini_array+0x34>
    79cc:	00c12083          	lw	ra,12(sp)
    79d0:	00812403          	lw	s0,8(sp)
    79d4:	00412483          	lw	s1,4(sp)
    79d8:	01010113          	add	sp,sp,16
    79dc:	00008067          	ret

000079e0 <memmove>:
    79e0:	02a5f663          	bgeu	a1,a0,7a0c <memmove+0x2c>
    79e4:	00c58733          	add	a4,a1,a2
    79e8:	02e57263          	bgeu	a0,a4,7a0c <memmove+0x2c>
    79ec:	00c507b3          	add	a5,a0,a2
    79f0:	04060663          	beqz	a2,7a3c <memmove+0x5c>
    79f4:	fff74683          	lbu	a3,-1(a4)
    79f8:	fff78793          	add	a5,a5,-1
    79fc:	fff70713          	add	a4,a4,-1
    7a00:	00d78023          	sb	a3,0(a5)
    7a04:	fef518e3          	bne	a0,a5,79f4 <memmove+0x14>
    7a08:	00008067          	ret
    7a0c:	00f00793          	li	a5,15
    7a10:	02c7e863          	bltu	a5,a2,7a40 <memmove+0x60>
    7a14:	00050793          	mv	a5,a0
    7a18:	fff60693          	add	a3,a2,-1
    7a1c:	0c060263          	beqz	a2,7ae0 <memmove+0x100>
    7a20:	00168693          	add	a3,a3,1
    7a24:	00d786b3          	add	a3,a5,a3
    7a28:	0005c703          	lbu	a4,0(a1)
    7a2c:	00178793          	add	a5,a5,1
    7a30:	00158593          	add	a1,a1,1
    7a34:	fee78fa3          	sb	a4,-1(a5)
    7a38:	fed798e3          	bne	a5,a3,7a28 <memmove+0x48>
    7a3c:	00008067          	ret
    7a40:	00b567b3          	or	a5,a0,a1
    7a44:	0037f793          	and	a5,a5,3
    7a48:	08079663          	bnez	a5,7ad4 <memmove+0xf4>
    7a4c:	ff060893          	add	a7,a2,-16
    7a50:	ff08f893          	and	a7,a7,-16
    7a54:	01088893          	add	a7,a7,16
    7a58:	011506b3          	add	a3,a0,a7
    7a5c:	00058713          	mv	a4,a1
    7a60:	00050793          	mv	a5,a0
    7a64:	00072803          	lw	a6,0(a4)
    7a68:	01070713          	add	a4,a4,16
    7a6c:	01078793          	add	a5,a5,16
    7a70:	ff07a823          	sw	a6,-16(a5)
    7a74:	ff472803          	lw	a6,-12(a4)
    7a78:	ff07aa23          	sw	a6,-12(a5)
    7a7c:	ff872803          	lw	a6,-8(a4)
    7a80:	ff07ac23          	sw	a6,-8(a5)
    7a84:	ffc72803          	lw	a6,-4(a4)
    7a88:	ff07ae23          	sw	a6,-4(a5)
    7a8c:	fcd79ce3          	bne	a5,a3,7a64 <memmove+0x84>
    7a90:	00c67813          	and	a6,a2,12
    7a94:	011585b3          	add	a1,a1,a7
    7a98:	00f67713          	and	a4,a2,15
    7a9c:	04080463          	beqz	a6,7ae4 <memmove+0x104>
    7aa0:	ffc70813          	add	a6,a4,-4
    7aa4:	ffc87813          	and	a6,a6,-4
    7aa8:	00480813          	add	a6,a6,4
    7aac:	010687b3          	add	a5,a3,a6
    7ab0:	00058713          	mv	a4,a1
    7ab4:	00072883          	lw	a7,0(a4)
    7ab8:	00468693          	add	a3,a3,4
    7abc:	00470713          	add	a4,a4,4
    7ac0:	ff16ae23          	sw	a7,-4(a3)
    7ac4:	fef698e3          	bne	a3,a5,7ab4 <memmove+0xd4>
    7ac8:	00367613          	and	a2,a2,3
    7acc:	010585b3          	add	a1,a1,a6
    7ad0:	f49ff06f          	j	7a18 <memmove+0x38>
    7ad4:	fff60693          	add	a3,a2,-1
    7ad8:	00050793          	mv	a5,a0
    7adc:	f45ff06f          	j	7a20 <memmove+0x40>
    7ae0:	00008067          	ret
    7ae4:	00070613          	mv	a2,a4
    7ae8:	f31ff06f          	j	7a18 <memmove+0x38>

00007aec <strlen>:
    7aec:	00357793          	and	a5,a0,3
    7af0:	00050713          	mv	a4,a0
    7af4:	04079c63          	bnez	a5,7b4c <strlen+0x60>
    7af8:	7f7f86b7          	lui	a3,0x7f7f8
    7afc:	f7f68693          	add	a3,a3,-129 # 7f7f7f7f <__alt_data_end+0x7f7d7f7f>
    7b00:	fff00593          	li	a1,-1
    7b04:	00072603          	lw	a2,0(a4)
    7b08:	00470713          	add	a4,a4,4
    7b0c:	00d677b3          	and	a5,a2,a3
    7b10:	00d787b3          	add	a5,a5,a3
    7b14:	00c7e7b3          	or	a5,a5,a2
    7b18:	00d7e7b3          	or	a5,a5,a3
    7b1c:	feb784e3          	beq	a5,a1,7b04 <strlen+0x18>
    7b20:	ffc74683          	lbu	a3,-4(a4)
    7b24:	40a707b3          	sub	a5,a4,a0
    7b28:	04068463          	beqz	a3,7b70 <strlen+0x84>
    7b2c:	ffd74683          	lbu	a3,-3(a4)
    7b30:	02068c63          	beqz	a3,7b68 <strlen+0x7c>
    7b34:	ffe74503          	lbu	a0,-2(a4)
    7b38:	00a03533          	snez	a0,a0
    7b3c:	00f50533          	add	a0,a0,a5
    7b40:	ffe50513          	add	a0,a0,-2
    7b44:	00008067          	ret
    7b48:	fa0688e3          	beqz	a3,7af8 <strlen+0xc>
    7b4c:	00074783          	lbu	a5,0(a4)
    7b50:	00170713          	add	a4,a4,1
    7b54:	00377693          	and	a3,a4,3
    7b58:	fe0798e3          	bnez	a5,7b48 <strlen+0x5c>
    7b5c:	40a70733          	sub	a4,a4,a0
    7b60:	fff70513          	add	a0,a4,-1
    7b64:	00008067          	ret
    7b68:	ffd78513          	add	a0,a5,-3
    7b6c:	00008067          	ret
    7b70:	ffc78513          	add	a0,a5,-4
    7b74:	00008067          	ret

00007b78 <frexpl>:
    7b78:	f9010113          	add	sp,sp,-112
    7b7c:	07212023          	sw	s2,96(sp)
    7b80:	00c5a903          	lw	s2,12(a1)
    7b84:	05412c23          	sw	s4,88(sp)
    7b88:	05512a23          	sw	s5,84(sp)
    7b8c:	05612823          	sw	s6,80(sp)
    7b90:	0045aa83          	lw	s5,4(a1)
    7b94:	0005ab03          	lw	s6,0(a1)
    7b98:	0085aa03          	lw	s4,8(a1)
    7b9c:	05312e23          	sw	s3,92(sp)
    7ba0:	000089b7          	lui	s3,0x8
    7ba4:	06812423          	sw	s0,104(sp)
    7ba8:	06912223          	sw	s1,100(sp)
    7bac:	06112623          	sw	ra,108(sp)
    7bb0:	01095493          	srl	s1,s2,0x10
    7bb4:	fff98993          	add	s3,s3,-1 # 7fff <_ldcheck+0x23>
    7bb8:	03612823          	sw	s6,48(sp)
    7bbc:	03512a23          	sw	s5,52(sp)
    7bc0:	03412c23          	sw	s4,56(sp)
    7bc4:	03212e23          	sw	s2,60(sp)
    7bc8:	0134f4b3          	and	s1,s1,s3
    7bcc:	00062023          	sw	zero,0(a2)
    7bd0:	00050413          	mv	s0,a0
    7bd4:	09348063          	beq	s1,s3,7c54 <frexpl+0xdc>
    7bd8:	01010593          	add	a1,sp,16
    7bdc:	02010513          	add	a0,sp,32
    7be0:	05712623          	sw	s7,76(sp)
    7be4:	03612023          	sw	s6,32(sp)
    7be8:	00060b93          	mv	s7,a2
    7bec:	03512223          	sw	s5,36(sp)
    7bf0:	03412423          	sw	s4,40(sp)
    7bf4:	03212623          	sw	s2,44(sp)
    7bf8:	00012823          	sw	zero,16(sp)
    7bfc:	00012a23          	sw	zero,20(sp)
    7c00:	00012c23          	sw	zero,24(sp)
    7c04:	00012e23          	sw	zero,28(sp)
    7c08:	7a1070ef          	jal	fba8 <__eqtf2>
    7c0c:	0e050e63          	beqz	a0,7d08 <frexpl+0x190>
    7c10:	00000693          	li	a3,0
    7c14:	06048e63          	beqz	s1,7c90 <frexpl+0x118>
    7c18:	ffffc737          	lui	a4,0xffffc
    7c1c:	00270713          	add	a4,a4,2 # ffffc002 <__alt_data_end+0xfffdc002>
    7c20:	03c12903          	lw	s2,60(sp)
    7c24:	00e484b3          	add	s1,s1,a4
    7c28:	800107b7          	lui	a5,0x80010
    7c2c:	00d484b3          	add	s1,s1,a3
    7c30:	fff78793          	add	a5,a5,-1 # 8000ffff <__alt_data_end+0x7ffeffff>
    7c34:	009ba023          	sw	s1,0(s7)
    7c38:	03012b03          	lw	s6,48(sp)
    7c3c:	03412a83          	lw	s5,52(sp)
    7c40:	03812a03          	lw	s4,56(sp)
    7c44:	04c12b83          	lw	s7,76(sp)
    7c48:	00f97933          	and	s2,s2,a5
    7c4c:	3ffe07b7          	lui	a5,0x3ffe0
    7c50:	00f96933          	or	s2,s2,a5
    7c54:	01642023          	sw	s6,0(s0)
    7c58:	01542223          	sw	s5,4(s0)
    7c5c:	01442423          	sw	s4,8(s0)
    7c60:	01242623          	sw	s2,12(s0)
    7c64:	06c12083          	lw	ra,108(sp)
    7c68:	00040513          	mv	a0,s0
    7c6c:	06812403          	lw	s0,104(sp)
    7c70:	06412483          	lw	s1,100(sp)
    7c74:	06012903          	lw	s2,96(sp)
    7c78:	05c12983          	lw	s3,92(sp)
    7c7c:	05812a03          	lw	s4,88(sp)
    7c80:	05412a83          	lw	s5,84(sp)
    7c84:	05012b03          	lw	s6,80(sp)
    7c88:	07010113          	add	sp,sp,112
    7c8c:	00008067          	ret
    7c90:	0000c797          	auipc	a5,0xc
    7c94:	60078793          	add	a5,a5,1536 # 14290 <zeroes.0+0x48>
    7c98:	0007a603          	lw	a2,0(a5)
    7c9c:	0047a683          	lw	a3,4(a5)
    7ca0:	0087a703          	lw	a4,8(a5)
    7ca4:	00c7a783          	lw	a5,12(a5)
    7ca8:	00c12023          	sw	a2,0(sp)
    7cac:	01010593          	add	a1,sp,16
    7cb0:	00010613          	mv	a2,sp
    7cb4:	02010513          	add	a0,sp,32
    7cb8:	00d12223          	sw	a3,4(sp)
    7cbc:	00e12423          	sw	a4,8(sp)
    7cc0:	00f12623          	sw	a5,12(sp)
    7cc4:	01612823          	sw	s6,16(sp)
    7cc8:	01512a23          	sw	s5,20(sp)
    7ccc:	01412c23          	sw	s4,24(sp)
    7cd0:	01212e23          	sw	s2,28(sp)
    7cd4:	264080ef          	jal	ff38 <__multf3>
    7cd8:	02012703          	lw	a4,32(sp)
    7cdc:	02c12783          	lw	a5,44(sp)
    7ce0:	f8e00693          	li	a3,-114
    7ce4:	02e12823          	sw	a4,48(sp)
    7ce8:	02412703          	lw	a4,36(sp)
    7cec:	0107d493          	srl	s1,a5,0x10
    7cf0:	02f12e23          	sw	a5,60(sp)
    7cf4:	02e12a23          	sw	a4,52(sp)
    7cf8:	02812703          	lw	a4,40(sp)
    7cfc:	0134f4b3          	and	s1,s1,s3
    7d00:	02e12c23          	sw	a4,56(sp)
    7d04:	f15ff06f          	j	7c18 <frexpl+0xa0>
    7d08:	04c12b83          	lw	s7,76(sp)
    7d0c:	f49ff06f          	j	7c54 <frexpl+0xdc>

00007d10 <_ldtoa_r>:
    7d10:	0000c897          	auipc	a7,0xc
    7d14:	5b088893          	add	a7,a7,1456 # 142c0 <zeroes.0+0x78>
    7d18:	0008af83          	lw	t6,0(a7)
    7d1c:	0048af03          	lw	t5,4(a7)
    7d20:	0088ae83          	lw	t4,8(a7)
    7d24:	00c8ae03          	lw	t3,12(a7)
    7d28:	0108a303          	lw	t1,16(a7)
    7d2c:	03852883          	lw	a7,56(a0)
    7d30:	f4010113          	add	sp,sp,-192
    7d34:	0b212823          	sw	s2,176(sp)
    7d38:	0b312623          	sw	s3,172(sp)
    7d3c:	0b412423          	sw	s4,168(sp)
    7d40:	0b612023          	sw	s6,160(sp)
    7d44:	09712e23          	sw	s7,156(sp)
    7d48:	09812c23          	sw	s8,152(sp)
    7d4c:	09912a23          	sw	s9,148(sp)
    7d50:	09a12823          	sw	s10,144(sp)
    7d54:	0a112e23          	sw	ra,188(sp)
    7d58:	0a812c23          	sw	s0,184(sp)
    7d5c:	0a912a23          	sw	s1,180(sp)
    7d60:	0b512223          	sw	s5,164(sp)
    7d64:	09b12623          	sw	s11,140(sp)
    7d68:	07f12623          	sw	t6,108(sp)
    7d6c:	07e12823          	sw	t5,112(sp)
    7d70:	07d12a23          	sw	t4,116(sp)
    7d74:	07c12c23          	sw	t3,120(sp)
    7d78:	06612e23          	sw	t1,124(sp)
    7d7c:	02c12023          	sw	a2,32(sp)
    7d80:	02d12223          	sw	a3,36(sp)
    7d84:	0005aa03          	lw	s4,0(a1)
    7d88:	0045a983          	lw	s3,4(a1)
    7d8c:	0085a903          	lw	s2,8(a1)
    7d90:	00c5ac03          	lw	s8,12(a1)
    7d94:	00050b13          	mv	s6,a0
    7d98:	00070b93          	mv	s7,a4
    7d9c:	00078c93          	mv	s9,a5
    7da0:	00080d13          	mv	s10,a6
    7da4:	00088863          	beqz	a7,7db4 <_ldtoa_r+0xa4>
    7da8:	00088593          	mv	a1,a7
    7dac:	114020ef          	jal	9ec0 <__freedtoa>
    7db0:	020b2c23          	sw	zero,56(s6)
    7db4:	07812603          	lw	a2,120(sp)
    7db8:	01fc5693          	srl	a3,s8,0x1f
    7dbc:	001c1a93          	sll	s5,s8,0x1
    7dc0:	40165713          	sra	a4,a2,0x1
    7dc4:	ffffc4b7          	lui	s1,0xffffc
    7dc8:	001c1413          	sll	s0,s8,0x1
    7dcc:	00d77733          	and	a4,a4,a3
    7dd0:	011ada93          	srl	s5,s5,0x11
    7dd4:	f9148493          	add	s1,s1,-111 # ffffbf91 <__alt_data_end+0xfffdbf91>
    7dd8:	010c1d93          	sll	s11,s8,0x10
    7ddc:	00dca023          	sw	a3,0(s9)
    7de0:	00145413          	srl	s0,s0,0x1
    7de4:	00c74733          	xor	a4,a4,a2
    7de8:	010ddd93          	srl	s11,s11,0x10
    7dec:	009a87b3          	add	a5,s5,s1
    7df0:	03010593          	add	a1,sp,48
    7df4:	04010513          	add	a0,sp,64
    7df8:	05412023          	sw	s4,64(sp)
    7dfc:	05312223          	sw	s3,68(sp)
    7e00:	05212423          	sw	s2,72(sp)
    7e04:	04812623          	sw	s0,76(sp)
    7e08:	03412823          	sw	s4,48(sp)
    7e0c:	03312a23          	sw	s3,52(sp)
    7e10:	03212c23          	sw	s2,56(sp)
    7e14:	02812e23          	sw	s0,60(sp)
    7e18:	06e12c23          	sw	a4,120(sp)
    7e1c:	00f12e23          	sw	a5,28(sp)
    7e20:	05412e23          	sw	s4,92(sp)
    7e24:	07312023          	sw	s3,96(sp)
    7e28:	07212223          	sw	s2,100(sp)
    7e2c:	07b12423          	sw	s11,104(sp)
    7e30:	2610a0ef          	jal	12890 <__unordtf2>
    7e34:	18051e63          	bnez	a0,7fd0 <_ldtoa_r+0x2c0>
    7e38:	0000c797          	auipc	a5,0xc
    7e3c:	46878793          	add	a5,a5,1128 # 142a0 <zeroes.0+0x58>
    7e40:	0007a603          	lw	a2,0(a5)
    7e44:	0047a683          	lw	a3,4(a5)
    7e48:	0087a483          	lw	s1,8(a5)
    7e4c:	00c7ac83          	lw	s9,12(a5)
    7e50:	03010593          	add	a1,sp,48
    7e54:	04010513          	add	a0,sp,64
    7e58:	05412023          	sw	s4,64(sp)
    7e5c:	05312223          	sw	s3,68(sp)
    7e60:	05212423          	sw	s2,72(sp)
    7e64:	04812623          	sw	s0,76(sp)
    7e68:	02c12823          	sw	a2,48(sp)
    7e6c:	02c12623          	sw	a2,44(sp)
    7e70:	02d12a23          	sw	a3,52(sp)
    7e74:	02d12423          	sw	a3,40(sp)
    7e78:	02912c23          	sw	s1,56(sp)
    7e7c:	03912e23          	sw	s9,60(sp)
    7e80:	2110a0ef          	jal	12890 <__unordtf2>
    7e84:	08051c63          	bnez	a0,7f1c <_ldtoa_r+0x20c>
    7e88:	03010593          	add	a1,sp,48
    7e8c:	04010513          	add	a0,sp,64
    7e90:	749070ef          	jal	fdd8 <__letf2>
    7e94:	08a05463          	blez	a0,7f1c <_ldtoa_r+0x20c>
    7e98:	00300793          	li	a5,3
    7e9c:	04f12c23          	sw	a5,88(sp)
    7ea0:	02012783          	lw	a5,32(sp)
    7ea4:	02412803          	lw	a6,36(sp)
    7ea8:	01c12603          	lw	a2,28(sp)
    7eac:	05810713          	add	a4,sp,88
    7eb0:	01a12023          	sw	s10,0(sp)
    7eb4:	000b8893          	mv	a7,s7
    7eb8:	05c10693          	add	a3,sp,92
    7ebc:	06c10593          	add	a1,sp,108
    7ec0:	000b0513          	mv	a0,s6
    7ec4:	238000ef          	jal	80fc <__gdtoa>
    7ec8:	000ba703          	lw	a4,0(s7)
    7ecc:	ffff87b7          	lui	a5,0xffff8
    7ed0:	00f71863          	bne	a4,a5,7ee0 <_ldtoa_r+0x1d0>
    7ed4:	800007b7          	lui	a5,0x80000
    7ed8:	fff78793          	add	a5,a5,-1 # 7fffffff <__alt_data_end+0x7ffdffff>
    7edc:	00fba023          	sw	a5,0(s7)
    7ee0:	0bc12083          	lw	ra,188(sp)
    7ee4:	0b812403          	lw	s0,184(sp)
    7ee8:	0b412483          	lw	s1,180(sp)
    7eec:	0b012903          	lw	s2,176(sp)
    7ef0:	0ac12983          	lw	s3,172(sp)
    7ef4:	0a812a03          	lw	s4,168(sp)
    7ef8:	0a412a83          	lw	s5,164(sp)
    7efc:	0a012b03          	lw	s6,160(sp)
    7f00:	09c12b83          	lw	s7,156(sp)
    7f04:	09812c03          	lw	s8,152(sp)
    7f08:	09412c83          	lw	s9,148(sp)
    7f0c:	09012d03          	lw	s10,144(sp)
    7f10:	08c12d83          	lw	s11,140(sp)
    7f14:	0c010113          	add	sp,sp,192
    7f18:	00008067          	ret
    7f1c:	0000c797          	auipc	a5,0xc
    7f20:	39478793          	add	a5,a5,916 # 142b0 <zeroes.0+0x68>
    7f24:	0007a603          	lw	a2,0(a5)
    7f28:	0047a683          	lw	a3,4(a5)
    7f2c:	0087a703          	lw	a4,8(a5)
    7f30:	00c7a783          	lw	a5,12(a5)
    7f34:	03010593          	add	a1,sp,48
    7f38:	04010513          	add	a0,sp,64
    7f3c:	05412023          	sw	s4,64(sp)
    7f40:	05312223          	sw	s3,68(sp)
    7f44:	05212423          	sw	s2,72(sp)
    7f48:	04812623          	sw	s0,76(sp)
    7f4c:	02c12823          	sw	a2,48(sp)
    7f50:	02d12a23          	sw	a3,52(sp)
    7f54:	02e12c23          	sw	a4,56(sp)
    7f58:	02f12e23          	sw	a5,60(sp)
    7f5c:	51d070ef          	jal	fc78 <__getf2>
    7f60:	00054e63          	bltz	a0,7f7c <_ldtoa_r+0x26c>
    7f64:	000107b7          	lui	a5,0x10
    7f68:	00fdedb3          	or	s11,s11,a5
    7f6c:	00100793          	li	a5,1
    7f70:	04f12c23          	sw	a5,88(sp)
    7f74:	07b12423          	sw	s11,104(sp)
    7f78:	f29ff06f          	j	7ea0 <_ldtoa_r+0x190>
    7f7c:	03010593          	add	a1,sp,48
    7f80:	04010513          	add	a0,sp,64
    7f84:	05412023          	sw	s4,64(sp)
    7f88:	05312223          	sw	s3,68(sp)
    7f8c:	05212423          	sw	s2,72(sp)
    7f90:	05812623          	sw	s8,76(sp)
    7f94:	02012823          	sw	zero,48(sp)
    7f98:	02012a23          	sw	zero,52(sp)
    7f9c:	02012c23          	sw	zero,56(sp)
    7fa0:	02012e23          	sw	zero,60(sp)
    7fa4:	405070ef          	jal	fba8 <__eqtf2>
    7fa8:	00051663          	bnez	a0,7fb4 <_ldtoa_r+0x2a4>
    7fac:	04012c23          	sw	zero,88(sp)
    7fb0:	ef1ff06f          	j	7ea0 <_ldtoa_r+0x190>
    7fb4:	ffffc4b7          	lui	s1,0xffffc
    7fb8:	00200793          	li	a5,2
    7fbc:	f9248493          	add	s1,s1,-110 # ffffbf92 <__alt_data_end+0xfffdbf92>
    7fc0:	04f12c23          	sw	a5,88(sp)
    7fc4:	009a87b3          	add	a5,s5,s1
    7fc8:	00f12e23          	sw	a5,28(sp)
    7fcc:	ed5ff06f          	j	7ea0 <_ldtoa_r+0x190>
    7fd0:	00400793          	li	a5,4
    7fd4:	04f12c23          	sw	a5,88(sp)
    7fd8:	ec9ff06f          	j	7ea0 <_ldtoa_r+0x190>

00007fdc <_ldcheck>:
    7fdc:	fb010113          	add	sp,sp,-80
    7fe0:	04912223          	sw	s1,68(sp)
    7fe4:	00c52483          	lw	s1,12(a0)
    7fe8:	05212023          	sw	s2,64(sp)
    7fec:	03312e23          	sw	s3,60(sp)
    7ff0:	00852903          	lw	s2,8(a0)
    7ff4:	00452983          	lw	s3,4(a0)
    7ff8:	03412c23          	sw	s4,56(sp)
    7ffc:	00052a03          	lw	s4,0(a0)
    8000:	00149493          	sll	s1,s1,0x1
    8004:	0014d493          	srl	s1,s1,0x1
    8008:	00010593          	mv	a1,sp
    800c:	01010513          	add	a0,sp,16
    8010:	04112623          	sw	ra,76(sp)
    8014:	01412823          	sw	s4,16(sp)
    8018:	01312a23          	sw	s3,20(sp)
    801c:	01212c23          	sw	s2,24(sp)
    8020:	00912e23          	sw	s1,28(sp)
    8024:	01412023          	sw	s4,0(sp)
    8028:	01312223          	sw	s3,4(sp)
    802c:	01212423          	sw	s2,8(sp)
    8030:	00912623          	sw	s1,12(sp)
    8034:	05d0a0ef          	jal	12890 <__unordtf2>
    8038:	0a051263          	bnez	a0,80dc <_ldcheck+0x100>
    803c:	0000c797          	auipc	a5,0xc
    8040:	26478793          	add	a5,a5,612 # 142a0 <zeroes.0+0x58>
    8044:	03512a23          	sw	s5,52(sp)
    8048:	03612823          	sw	s6,48(sp)
    804c:	03712623          	sw	s7,44(sp)
    8050:	03812423          	sw	s8,40(sp)
    8054:	0047ab83          	lw	s7,4(a5)
    8058:	0007ac03          	lw	s8,0(a5)
    805c:	0087ab03          	lw	s6,8(a5)
    8060:	00c7aa83          	lw	s5,12(a5)
    8064:	00010593          	mv	a1,sp
    8068:	01010513          	add	a0,sp,16
    806c:	04812423          	sw	s0,72(sp)
    8070:	01812023          	sw	s8,0(sp)
    8074:	01712223          	sw	s7,4(sp)
    8078:	01612423          	sw	s6,8(sp)
    807c:	01512623          	sw	s5,12(sp)
    8080:	00100413          	li	s0,1
    8084:	00d0a0ef          	jal	12890 <__unordtf2>
    8088:	04050063          	beqz	a0,80c8 <_ldcheck+0xec>
    808c:	04c12083          	lw	ra,76(sp)
    8090:	00144513          	xor	a0,s0,1
    8094:	04812403          	lw	s0,72(sp)
    8098:	0ff57513          	zext.b	a0,a0
    809c:	03412a83          	lw	s5,52(sp)
    80a0:	03012b03          	lw	s6,48(sp)
    80a4:	02c12b83          	lw	s7,44(sp)
    80a8:	02812c03          	lw	s8,40(sp)
    80ac:	04412483          	lw	s1,68(sp)
    80b0:	04012903          	lw	s2,64(sp)
    80b4:	03c12983          	lw	s3,60(sp)
    80b8:	03812a03          	lw	s4,56(sp)
    80bc:	00151513          	sll	a0,a0,0x1
    80c0:	05010113          	add	sp,sp,80
    80c4:	00008067          	ret
    80c8:	00010593          	mv	a1,sp
    80cc:	01010513          	add	a0,sp,16
    80d0:	509070ef          	jal	fdd8 <__letf2>
    80d4:	00152413          	slti	s0,a0,1
    80d8:	fb5ff06f          	j	808c <_ldcheck+0xb0>
    80dc:	04c12083          	lw	ra,76(sp)
    80e0:	04412483          	lw	s1,68(sp)
    80e4:	04012903          	lw	s2,64(sp)
    80e8:	03c12983          	lw	s3,60(sp)
    80ec:	03812a03          	lw	s4,56(sp)
    80f0:	00100513          	li	a0,1
    80f4:	05010113          	add	sp,sp,80
    80f8:	00008067          	ret

000080fc <__gdtoa>:
    80fc:	f4010113          	add	sp,sp,-192
    8100:	0b612023          	sw	s6,160(sp)
    8104:	00072b03          	lw	s6,0(a4)
    8108:	0b212823          	sw	s2,176(sp)
    810c:	0a112e23          	sw	ra,188(sp)
    8110:	fcfb7313          	and	t1,s6,-49
    8114:	00672023          	sw	t1,0(a4)
    8118:	00070913          	mv	s2,a4
    811c:	0c012703          	lw	a4,192(sp)
    8120:	00fb7313          	and	t1,s6,15
    8124:	00300e13          	li	t3,3
    8128:	00e12423          	sw	a4,8(sp)
    812c:	00a12023          	sw	a0,0(sp)
    8130:	00c12823          	sw	a2,16(sp)
    8134:	01012a23          	sw	a6,20(sp)
    8138:	01112223          	sw	a7,4(sp)
    813c:	7fc30663          	beq	t1,t3,8928 <__gdtoa+0x82c>
    8140:	09812c23          	sw	s8,152(sp)
    8144:	00cb7c13          	and	s8,s6,12
    8148:	720c1e63          	bnez	s8,8884 <__gdtoa+0x788>
    814c:	78030c63          	beqz	t1,88e4 <__gdtoa+0x7e8>
    8150:	0b512223          	sw	s5,164(sp)
    8154:	0005aa83          	lw	s5,0(a1)
    8158:	0b312623          	sw	s3,172(sp)
    815c:	09a12823          	sw	s10,144(sp)
    8160:	09b12623          	sw	s11,140(sp)
    8164:	00068993          	mv	s3,a3
    8168:	02000693          	li	a3,32
    816c:	00058d93          	mv	s11,a1
    8170:	00078d13          	mv	s10,a5
    8174:	00000593          	li	a1,0
    8178:	02000793          	li	a5,32
    817c:	0156d863          	bge	a3,s5,818c <__gdtoa+0x90>
    8180:	00179793          	sll	a5,a5,0x1
    8184:	00158593          	add	a1,a1,1
    8188:	ff57cce3          	blt	a5,s5,8180 <__gdtoa+0x84>
    818c:	00012503          	lw	a0,0(sp)
    8190:	088020ef          	jal	a218 <_Balloc>
    8194:	00a12623          	sw	a0,12(sp)
    8198:	3c0508e3          	beqz	a0,8d68 <__gdtoa+0xc6c>
    819c:	00c12783          	lw	a5,12(sp)
    81a0:	fffa8513          	add	a0,s5,-1
    81a4:	40555513          	sra	a0,a0,0x5
    81a8:	00251593          	sll	a1,a0,0x2
    81ac:	01478693          	add	a3,a5,20
    81b0:	0b412423          	sw	s4,168(sp)
    81b4:	09912a23          	sw	s9,148(sp)
    81b8:	00b985b3          	add	a1,s3,a1
    81bc:	00098793          	mv	a5,s3
    81c0:	0007a703          	lw	a4,0(a5)
    81c4:	00478793          	add	a5,a5,4
    81c8:	00468693          	add	a3,a3,4
    81cc:	fee6ae23          	sw	a4,-4(a3)
    81d0:	fef5f8e3          	bgeu	a1,a5,81c0 <__gdtoa+0xc4>
    81d4:	00158593          	add	a1,a1,1
    81d8:	00198793          	add	a5,s3,1
    81dc:	00400693          	li	a3,4
    81e0:	00f5e663          	bltu	a1,a5,81ec <__gdtoa+0xf0>
    81e4:	00251513          	sll	a0,a0,0x2
    81e8:	00450693          	add	a3,a0,4
    81ec:	00c12783          	lw	a5,12(sp)
    81f0:	4026dc93          	sra	s9,a3,0x2
    81f4:	00d786b3          	add	a3,a5,a3
    81f8:	00c0006f          	j	8204 <__gdtoa+0x108>
    81fc:	ffc68693          	add	a3,a3,-4
    8200:	7a0c8063          	beqz	s9,89a0 <__gdtoa+0x8a4>
    8204:	0106a783          	lw	a5,16(a3)
    8208:	000c8a13          	mv	s4,s9
    820c:	fffc8c93          	add	s9,s9,-1
    8210:	fe0786e3          	beqz	a5,81fc <__gdtoa+0x100>
    8214:	00c12703          	lw	a4,12(sp)
    8218:	004c8793          	add	a5,s9,4
    821c:	00279793          	sll	a5,a5,0x2
    8220:	00f707b3          	add	a5,a4,a5
    8224:	0047a503          	lw	a0,4(a5)
    8228:	01472823          	sw	s4,16(a4)
    822c:	005a1a13          	sll	s4,s4,0x5
    8230:	344020ef          	jal	a574 <__hi0bits>
    8234:	40aa0cb3          	sub	s9,s4,a0
    8238:	00c12503          	lw	a0,12(sp)
    823c:	779010ef          	jal	a1b4 <__trailz_D2A>
    8240:	01012783          	lw	a5,16(sp)
    8244:	06a12e23          	sw	a0,124(sp)
    8248:	02f12023          	sw	a5,32(sp)
    824c:	78051e63          	bnez	a0,89e8 <__gdtoa+0x8ec>
    8250:	00c12783          	lw	a5,12(sp)
    8254:	0107a683          	lw	a3,16(a5)
    8258:	66068463          	beqz	a3,88c0 <__gdtoa+0x7c4>
    825c:	00c12503          	lw	a0,12(sp)
    8260:	07c10593          	add	a1,sp,124
    8264:	0a812c23          	sw	s0,184(sp)
    8268:	0a912a23          	sw	s1,180(sp)
    826c:	09712e23          	sw	s7,156(sp)
    8270:	541020ef          	jal	afb0 <__b2d>
    8274:	00c59a13          	sll	s4,a1,0xc
    8278:	00ca5a13          	srl	s4,s4,0xc
    827c:	3ff006b7          	lui	a3,0x3ff00
    8280:	00da64b3          	or	s1,s4,a3
    8284:	02012703          	lw	a4,32(sp)
    8288:	0000c697          	auipc	a3,0xc
    828c:	54868693          	add	a3,a3,1352 # 147d0 <__clz_tab+0x100>
    8290:	0006a603          	lw	a2,0(a3)
    8294:	0046a683          	lw	a3,4(a3)
    8298:	01970733          	add	a4,a4,s9
    829c:	00050793          	mv	a5,a0
    82a0:	00048593          	mv	a1,s1
    82a4:	fff70a13          	add	s4,a4,-1
    82a8:	04f12423          	sw	a5,72(sp)
    82ac:	00e12e23          	sw	a4,28(sp)
    82b0:	02a12c23          	sw	a0,56(sp)
    82b4:	6b1060ef          	jal	f164 <__subdf3>
    82b8:	0000c697          	auipc	a3,0xc
    82bc:	52068693          	add	a3,a3,1312 # 147d8 <__clz_tab+0x108>
    82c0:	0006a603          	lw	a2,0(a3)
    82c4:	0046a683          	lw	a3,4(a3)
    82c8:	7c4060ef          	jal	ea8c <__muldf3>
    82cc:	0000c697          	auipc	a3,0xc
    82d0:	51468693          	add	a3,a3,1300 # 147e0 <__clz_tab+0x110>
    82d4:	0006a603          	lw	a2,0(a3)
    82d8:	0046a683          	lw	a3,4(a3)
    82dc:	4c8050ef          	jal	d7a4 <__adddf3>
    82e0:	00050b93          	mv	s7,a0
    82e4:	000a0513          	mv	a0,s4
    82e8:	00058413          	mv	s0,a1
    82ec:	005070ef          	jal	faf0 <__floatsidf>
    82f0:	0000c697          	auipc	a3,0xc
    82f4:	4f868693          	add	a3,a3,1272 # 147e8 <__clz_tab+0x118>
    82f8:	0006a603          	lw	a2,0(a3)
    82fc:	0046a683          	lw	a3,4(a3)
    8300:	78c060ef          	jal	ea8c <__muldf3>
    8304:	00050613          	mv	a2,a0
    8308:	00058693          	mv	a3,a1
    830c:	000b8513          	mv	a0,s7
    8310:	00040593          	mv	a1,s0
    8314:	490050ef          	jal	d7a4 <__adddf3>
    8318:	00050b93          	mv	s7,a0
    831c:	00058413          	mv	s0,a1
    8320:	000a0513          	mv	a0,s4
    8324:	000a5863          	bgez	s4,8334 <__gdtoa+0x238>
    8328:	01c12703          	lw	a4,28(sp)
    832c:	00100513          	li	a0,1
    8330:	40e50533          	sub	a0,a0,a4
    8334:	bcb50513          	add	a0,a0,-1077
    8338:	02a05c63          	blez	a0,8370 <__gdtoa+0x274>
    833c:	7b4070ef          	jal	faf0 <__floatsidf>
    8340:	0000c697          	auipc	a3,0xc
    8344:	4b068693          	add	a3,a3,1200 # 147f0 <__clz_tab+0x120>
    8348:	0006a603          	lw	a2,0(a3)
    834c:	0046a683          	lw	a3,4(a3)
    8350:	73c060ef          	jal	ea8c <__muldf3>
    8354:	00050613          	mv	a2,a0
    8358:	00058693          	mv	a3,a1
    835c:	000b8513          	mv	a0,s7
    8360:	00040593          	mv	a1,s0
    8364:	440050ef          	jal	d7a4 <__adddf3>
    8368:	00050b93          	mv	s7,a0
    836c:	00058413          	mv	s0,a1
    8370:	00040593          	mv	a1,s0
    8374:	000b8513          	mv	a0,s7
    8378:	6f4070ef          	jal	fa6c <__fixdfsi>
    837c:	00050813          	mv	a6,a0
    8380:	00040593          	mv	a1,s0
    8384:	000b8513          	mv	a0,s7
    8388:	00000613          	li	a2,0
    838c:	00000693          	li	a3,0
    8390:	01012c23          	sw	a6,24(sp)
    8394:	5f0060ef          	jal	e984 <__ledf2>
    8398:	02055463          	bgez	a0,83c0 <__gdtoa+0x2c4>
    839c:	01812503          	lw	a0,24(sp)
    83a0:	750070ef          	jal	faf0 <__floatsidf>
    83a4:	000b8613          	mv	a2,s7
    83a8:	00040693          	mv	a3,s0
    83ac:	44c060ef          	jal	e7f8 <__eqdf2>
    83b0:	01812783          	lw	a5,24(sp)
    83b4:	00a03533          	snez	a0,a0
    83b8:	40a787b3          	sub	a5,a5,a0
    83bc:	00f12c23          	sw	a5,24(sp)
    83c0:	014a1613          	sll	a2,s4,0x14
    83c4:	01812783          	lw	a5,24(sp)
    83c8:	00960833          	add	a6,a2,s1
    83cc:	414c8433          	sub	s0,s9,s4
    83d0:	01600693          	li	a3,22
    83d4:	05012023          	sw	a6,64(sp)
    83d8:	fff40b93          	add	s7,s0,-1
    83dc:	5cf6e863          	bltu	a3,a5,89ac <__gdtoa+0x8b0>
    83e0:	0000c317          	auipc	t1,0xc
    83e4:	f0830313          	add	t1,t1,-248 # 142e8 <__mprec_tens>
    83e8:	00379693          	sll	a3,a5,0x3
    83ec:	00d306b3          	add	a3,t1,a3
    83f0:	03812883          	lw	a7,56(sp)
    83f4:	0006a503          	lw	a0,0(a3)
    83f8:	0046a583          	lw	a1,4(a3)
    83fc:	00088613          	mv	a2,a7
    8400:	00080693          	mv	a3,a6
    8404:	480060ef          	jal	e884 <__gedf2>
    8408:	1aa044e3          	bgtz	a0,8db0 <__gdtoa+0xcb4>
    840c:	02012e23          	sw	zero,60(sp)
    8410:	02012223          	sw	zero,36(sp)
    8414:	00804a63          	bgtz	s0,8428 <__gdtoa+0x32c>
    8418:	00100693          	li	a3,1
    841c:	408687b3          	sub	a5,a3,s0
    8420:	02f12223          	sw	a5,36(sp)
    8424:	00000b93          	li	s7,0
    8428:	01812783          	lw	a5,24(sp)
    842c:	02012623          	sw	zero,44(sp)
    8430:	00fb8bb3          	add	s7,s7,a5
    8434:	02f12823          	sw	a5,48(sp)
    8438:	00900693          	li	a3,9
    843c:	5da6e863          	bltu	a3,s10,8a0c <__gdtoa+0x910>
    8440:	00500693          	li	a3,5
    8444:	19a6c0e3          	blt	a3,s10,8dc4 <__gdtoa+0xcc8>
    8448:	01c12783          	lw	a5,28(sp)
    844c:	00400613          	li	a2,4
    8450:	3fd78a13          	add	s4,a5,1021
    8454:	7f8a3a13          	sltiu	s4,s4,2040
    8458:	00cd1463          	bne	s10,a2,8460 <__gdtoa+0x364>
    845c:	0a00106f          	j	94fc <__gdtoa+0x1400>
    8460:	00dd1463          	bne	s10,a3,8468 <__gdtoa+0x36c>
    8464:	08c0106f          	j	94f0 <__gdtoa+0x13f4>
    8468:	00200693          	li	a3,2
    846c:	00dd1463          	bne	s10,a3,8474 <__gdtoa+0x378>
    8470:	0980106f          	j	9508 <__gdtoa+0x140c>
    8474:	00300693          	li	a3,3
    8478:	02012a23          	sw	zero,52(sp)
    847c:	5add1063          	bne	s10,a3,8a1c <__gdtoa+0x920>
    8480:	03012783          	lw	a5,48(sp)
    8484:	01412703          	lw	a4,20(sp)
    8488:	00e787b3          	add	a5,a5,a4
    848c:	04f12623          	sw	a5,76(sp)
    8490:	00178793          	add	a5,a5,1
    8494:	00f12e23          	sw	a5,28(sp)
    8498:	62f058e3          	blez	a5,92c8 <__gdtoa+0x11cc>
    849c:	00078693          	mv	a3,a5
    84a0:	00078593          	mv	a1,a5
    84a4:	00012503          	lw	a0,0(sp)
    84a8:	06d12e23          	sw	a3,124(sp)
    84ac:	0f1010ef          	jal	9d9c <__rv_alloc_D2A>
    84b0:	00050f13          	mv	t5,a0
    84b4:	4c050063          	beqz	a0,8974 <__gdtoa+0x878>
    84b8:	00cda783          	lw	a5,12(s11)
    84bc:	fff78793          	add	a5,a5,-1
    84c0:	02f12423          	sw	a5,40(sp)
    84c4:	5a078663          	beqz	a5,8a70 <__gdtoa+0x974>
    84c8:	0c07cee3          	bltz	a5,8da4 <__gdtoa+0xca8>
    84cc:	100b7e93          	and	t4,s6,256
    84d0:	580e9863          	bnez	t4,8a60 <__gdtoa+0x964>
    84d4:	02012783          	lw	a5,32(sp)
    84d8:	0007c863          	bltz	a5,84e8 <__gdtoa+0x3ec>
    84dc:	03012783          	lw	a5,48(sp)
    84e0:	00e00693          	li	a3,14
    84e4:	10f6d4e3          	bge	a3,a5,8dec <__gdtoa+0xcf0>
    84e8:	03412783          	lw	a5,52(sp)
    84ec:	0a0784e3          	beqz	a5,8d94 <__gdtoa+0xc98>
    84f0:	02012783          	lw	a5,32(sp)
    84f4:	419a8e33          	sub	t3,s5,s9
    84f8:	004da683          	lw	a3,4(s11)
    84fc:	001e0613          	add	a2,t3,1
    8500:	06c12e23          	sw	a2,124(sp)
    8504:	41c78e33          	sub	t3,a5,t3
    8508:	62de52e3          	bge	t3,a3,932c <__gdtoa+0x1230>
    850c:	ffdd0613          	add	a2,s10,-3
    8510:	ffd67613          	and	a2,a2,-3
    8514:	500604e3          	beqz	a2,921c <__gdtoa+0x1120>
    8518:	40d786b3          	sub	a3,a5,a3
    851c:	00168693          	add	a3,a3,1
    8520:	06d12e23          	sw	a3,124(sp)
    8524:	00100613          	li	a2,1
    8528:	01a65c63          	bge	a2,s10,8540 <__gdtoa+0x444>
    852c:	01c12783          	lw	a5,28(sp)
    8530:	00f05863          	blez	a5,8540 <__gdtoa+0x444>
    8534:	01c12783          	lw	a5,28(sp)
    8538:	00d7d463          	bge	a5,a3,8540 <__gdtoa+0x444>
    853c:	6400106f          	j	9b7c <__gdtoa+0x1a80>
    8540:	02412783          	lw	a5,36(sp)
    8544:	02c12483          	lw	s1,44(sp)
    8548:	00db8bb3          	add	s7,s7,a3
    854c:	00078a93          	mv	s5,a5
    8550:	00f687b3          	add	a5,a3,a5
    8554:	02f12223          	sw	a5,36(sp)
    8558:	00012503          	lw	a0,0(sp)
    855c:	00100593          	li	a1,1
    8560:	03e12023          	sw	t5,32(sp)
    8564:	168020ef          	jal	a6cc <__i2b>
    8568:	02012f03          	lw	t5,32(sp)
    856c:	00050a13          	mv	s4,a0
    8570:	40050263          	beqz	a0,8974 <__gdtoa+0x878>
    8574:	020a8663          	beqz	s5,85a0 <__gdtoa+0x4a4>
    8578:	03705463          	blez	s7,85a0 <__gdtoa+0x4a4>
    857c:	000a8693          	mv	a3,s5
    8580:	015bd463          	bge	s7,s5,8588 <__gdtoa+0x48c>
    8584:	000b8693          	mv	a3,s7
    8588:	02412783          	lw	a5,36(sp)
    858c:	06d12e23          	sw	a3,124(sp)
    8590:	40da8ab3          	sub	s5,s5,a3
    8594:	40d787b3          	sub	a5,a5,a3
    8598:	02f12223          	sw	a5,36(sp)
    859c:	40db8bb3          	sub	s7,s7,a3
    85a0:	02c12783          	lw	a5,44(sp)
    85a4:	02078863          	beqz	a5,85d4 <__gdtoa+0x4d8>
    85a8:	03412783          	lw	a5,52(sp)
    85ac:	00078463          	beqz	a5,85b4 <__gdtoa+0x4b8>
    85b0:	660490e3          	bnez	s1,9410 <__gdtoa+0x1314>
    85b4:	02c12603          	lw	a2,44(sp)
    85b8:	00c12583          	lw	a1,12(sp)
    85bc:	00012503          	lw	a0,0(sp)
    85c0:	03e12023          	sw	t5,32(sp)
    85c4:	3ec020ef          	jal	a9b0 <__pow5mult>
    85c8:	00a12623          	sw	a0,12(sp)
    85cc:	02012f03          	lw	t5,32(sp)
    85d0:	3a050263          	beqz	a0,8974 <__gdtoa+0x878>
    85d4:	00012503          	lw	a0,0(sp)
    85d8:	00100593          	li	a1,1
    85dc:	03e12023          	sw	t5,32(sp)
    85e0:	0ec020ef          	jal	a6cc <__i2b>
    85e4:	00050313          	mv	t1,a0
    85e8:	38050663          	beqz	a0,8974 <__gdtoa+0x878>
    85ec:	01812783          	lw	a5,24(sp)
    85f0:	02012f03          	lw	t5,32(sp)
    85f4:	4e0790e3          	bnez	a5,92d4 <__gdtoa+0x11d8>
    85f8:	00100693          	li	a3,1
    85fc:	1da6d0e3          	bge	a3,s10,8fbc <__gdtoa+0xec0>
    8600:	01f00b13          	li	s6,31
    8604:	02412783          	lw	a5,36(sp)
    8608:	417b0b33          	sub	s6,s6,s7
    860c:	ffcb0b13          	add	s6,s6,-4
    8610:	01fb7b13          	and	s6,s6,31
    8614:	00fb0633          	add	a2,s6,a5
    8618:	07612e23          	sw	s6,124(sp)
    861c:	000b0793          	mv	a5,s6
    8620:	2ac044e3          	bgtz	a2,90c8 <__gdtoa+0xfcc>
    8624:	00fb8633          	add	a2,s7,a5
    8628:	32c04863          	bgtz	a2,8958 <__gdtoa+0x85c>
    862c:	03c12783          	lw	a5,60(sp)
    8630:	2c0792e3          	bnez	a5,90f4 <__gdtoa+0xff8>
    8634:	01c12783          	lw	a5,28(sp)
    8638:	40f058e3          	blez	a5,9248 <__gdtoa+0x114c>
    863c:	03412783          	lw	a5,52(sp)
    8640:	30078ee3          	beqz	a5,915c <__gdtoa+0x1060>
    8644:	015b0633          	add	a2,s6,s5
    8648:	66c048e3          	bgtz	a2,94b8 <__gdtoa+0x13bc>
    864c:	01812783          	lw	a5,24(sp)
    8650:	000a0a93          	mv	s5,s4
    8654:	00078463          	beqz	a5,865c <__gdtoa+0x560>
    8658:	6e50006f          	j	953c <__gdtoa+0x1440>
    865c:	01212a23          	sw	s2,20(sp)
    8660:	00c12483          	lw	s1,12(sp)
    8664:	00012903          	lw	s2,0(sp)
    8668:	000f0d93          	mv	s11,t5
    866c:	00100793          	li	a5,1
    8670:	00200413          	li	s0,2
    8674:	00030c13          	mv	s8,t1
    8678:	01e12823          	sw	t5,16(sp)
    867c:	0b00006f          	j	872c <__gdtoa+0x630>
    8680:	00090513          	mv	a0,s2
    8684:	449010ef          	jal	a2cc <_Bfree>
    8688:	000b5463          	bgez	s6,8690 <__gdtoa+0x594>
    868c:	06c0106f          	j	96f8 <__gdtoa+0x15fc>
    8690:	016d6b33          	or	s6,s10,s6
    8694:	000b1a63          	bnez	s6,86a8 <__gdtoa+0x5ac>
    8698:	0009a783          	lw	a5,0(s3)
    869c:	0017f793          	and	a5,a5,1
    86a0:	00079463          	bnez	a5,86a8 <__gdtoa+0x5ac>
    86a4:	0540106f          	j	96f8 <__gdtoa+0x15fc>
    86a8:	02812783          	lw	a5,40(sp)
    86ac:	00878463          	beq	a5,s0,86b4 <__gdtoa+0x5b8>
    86b0:	3c80106f          	j	9a78 <__gdtoa+0x197c>
    86b4:	019d8023          	sb	s9,0(s11)
    86b8:	07c12783          	lw	a5,124(sp)
    86bc:	01c12703          	lw	a4,28(sp)
    86c0:	001d8d93          	add	s11,s11,1
    86c4:	00f71463          	bne	a4,a5,86cc <__gdtoa+0x5d0>
    86c8:	2d40106f          	j	999c <__gdtoa+0x18a0>
    86cc:	00048593          	mv	a1,s1
    86d0:	00000693          	li	a3,0
    86d4:	00a00613          	li	a2,10
    86d8:	00090513          	mv	a0,s2
    86dc:	415010ef          	jal	a2f0 <__multadd>
    86e0:	00050493          	mv	s1,a0
    86e4:	28050863          	beqz	a0,8974 <__gdtoa+0x878>
    86e8:	00000693          	li	a3,0
    86ec:	00a00613          	li	a2,10
    86f0:	000a0593          	mv	a1,s4
    86f4:	00090513          	mv	a0,s2
    86f8:	135a00e3          	beq	s4,s5,9018 <__gdtoa+0xf1c>
    86fc:	3f5010ef          	jal	a2f0 <__multadd>
    8700:	00050a13          	mv	s4,a0
    8704:	26050863          	beqz	a0,8974 <__gdtoa+0x878>
    8708:	000a8593          	mv	a1,s5
    870c:	00000693          	li	a3,0
    8710:	00a00613          	li	a2,10
    8714:	00090513          	mv	a0,s2
    8718:	3d9010ef          	jal	a2f0 <__multadd>
    871c:	00050a93          	mv	s5,a0
    8720:	24050a63          	beqz	a0,8974 <__gdtoa+0x878>
    8724:	07c12783          	lw	a5,124(sp)
    8728:	00178793          	add	a5,a5,1
    872c:	000c0593          	mv	a1,s8
    8730:	00048513          	mv	a0,s1
    8734:	06f12e23          	sw	a5,124(sp)
    8738:	7a0010ef          	jal	9ed8 <__quorem_D2A>
    873c:	00050b93          	mv	s7,a0
    8740:	000a0593          	mv	a1,s4
    8744:	00048513          	mv	a0,s1
    8748:	548020ef          	jal	ac90 <__mcmp>
    874c:	000c0593          	mv	a1,s8
    8750:	00050b13          	mv	s6,a0
    8754:	000a8613          	mv	a2,s5
    8758:	00090513          	mv	a0,s2
    875c:	58c020ef          	jal	ace8 <__mdiff>
    8760:	030b8c93          	add	s9,s7,48
    8764:	00050593          	mv	a1,a0
    8768:	20050663          	beqz	a0,8974 <__gdtoa+0x878>
    876c:	00c52783          	lw	a5,12(a0)
    8770:	f00798e3          	bnez	a5,8680 <__gdtoa+0x584>
    8774:	00a12623          	sw	a0,12(sp)
    8778:	00048513          	mv	a0,s1
    877c:	514020ef          	jal	ac90 <__mcmp>
    8780:	00c12583          	lw	a1,12(sp)
    8784:	00050693          	mv	a3,a0
    8788:	00090513          	mv	a0,s2
    878c:	00d12623          	sw	a3,12(sp)
    8790:	33d010ef          	jal	a2cc <_Bfree>
    8794:	00c12683          	lw	a3,12(sp)
    8798:	00dd6733          	or	a4,s10,a3
    879c:	00070463          	beqz	a4,87a4 <__gdtoa+0x6a8>
    87a0:	5680106f          	j	9d08 <__gdtoa+0x1c0c>
    87a4:	0009a783          	lw	a5,0(s3)
    87a8:	0017f793          	and	a5,a5,1
    87ac:	080790e3          	bnez	a5,902c <__gdtoa+0xf30>
    87b0:	02812783          	lw	a5,40(sp)
    87b4:	00079463          	bnez	a5,87bc <__gdtoa+0x6c0>
    87b8:	4280106f          	j	9be0 <__gdtoa+0x1ae4>
    87bc:	ef604ce3          	bgtz	s6,86b4 <__gdtoa+0x5b8>
    87c0:	0104a603          	lw	a2,16(s1)
    87c4:	00912623          	sw	s1,12(sp)
    87c8:	00100693          	li	a3,1
    87cc:	000c0313          	mv	t1,s8
    87d0:	01012f03          	lw	t5,16(sp)
    87d4:	01412903          	lw	s2,20(sp)
    87d8:	00070c13          	mv	s8,a4
    87dc:	00048793          	mv	a5,s1
    87e0:	00c6c463          	blt	a3,a2,87e8 <__gdtoa+0x6ec>
    87e4:	4ec0106f          	j	9cd0 <__gdtoa+0x1bd4>
    87e8:	02812783          	lw	a5,40(sp)
    87ec:	00200693          	li	a3,2
    87f0:	00d79463          	bne	a5,a3,87f8 <__gdtoa+0x6fc>
    87f4:	4ac0106f          	j	9ca0 <__gdtoa+0x1ba4>
    87f8:	00c12483          	lw	s1,12(sp)
    87fc:	00012b83          	lw	s7,0(sp)
    8800:	00030b13          	mv	s6,t1
    8804:	000f0c13          	mv	s8,t5
    8808:	0240006f          	j	882c <__gdtoa+0x730>
    880c:	2e5010ef          	jal	a2f0 <__multadd>
    8810:	000b0593          	mv	a1,s6
    8814:	00050493          	mv	s1,a0
    8818:	14050e63          	beqz	a0,8974 <__gdtoa+0x878>
    881c:	6bc010ef          	jal	9ed8 <__quorem_D2A>
    8820:	03050c93          	add	s9,a0,48
    8824:	00098d93          	mv	s11,s3
    8828:	00040a93          	mv	s5,s0
    882c:	000a8593          	mv	a1,s5
    8830:	000b0513          	mv	a0,s6
    8834:	45c020ef          	jal	ac90 <__mcmp>
    8838:	00050793          	mv	a5,a0
    883c:	00000693          	li	a3,0
    8840:	00a00613          	li	a2,10
    8844:	000a8593          	mv	a1,s5
    8848:	000b8513          	mv	a0,s7
    884c:	001d8993          	add	s3,s11,1
    8850:	00f04463          	bgtz	a5,8858 <__gdtoa+0x75c>
    8854:	42c0106f          	j	9c80 <__gdtoa+0x1b84>
    8858:	ff998fa3          	sb	s9,-1(s3)
    885c:	295010ef          	jal	a2f0 <__multadd>
    8860:	00050413          	mv	s0,a0
    8864:	00000693          	li	a3,0
    8868:	00a00613          	li	a2,10
    886c:	00048593          	mv	a1,s1
    8870:	000b8513          	mv	a0,s7
    8874:	10040063          	beqz	s0,8974 <__gdtoa+0x878>
    8878:	f95a1ae3          	bne	s4,s5,880c <__gdtoa+0x710>
    887c:	00040a13          	mv	s4,s0
    8880:	f8dff06f          	j	880c <__gdtoa+0x710>
    8884:	00400793          	li	a5,4
    8888:	10f31863          	bne	t1,a5,8998 <__gdtoa+0x89c>
    888c:	00412703          	lw	a4,4(sp)
    8890:	00812603          	lw	a2,8(sp)
    8894:	09812c03          	lw	s8,152(sp)
    8898:	0bc12083          	lw	ra,188(sp)
    889c:	0b012903          	lw	s2,176(sp)
    88a0:	0a012b03          	lw	s6,160(sp)
    88a4:	ffff87b7          	lui	a5,0xffff8
    88a8:	00f72023          	sw	a5,0(a4)
    88ac:	00300693          	li	a3,3
    88b0:	0000b597          	auipc	a1,0xb
    88b4:	68058593          	add	a1,a1,1664 # 13f30 <__flash_rodata_start+0x90>
    88b8:	0c010113          	add	sp,sp,192
    88bc:	54c0106f          	j	9e08 <__nrv_alloc_D2A>
    88c0:	00012503          	lw	a0,0(sp)
    88c4:	00078593          	mv	a1,a5
    88c8:	205010ef          	jal	a2cc <_Bfree>
    88cc:	0ac12983          	lw	s3,172(sp)
    88d0:	0a812a03          	lw	s4,168(sp)
    88d4:	0a412a83          	lw	s5,164(sp)
    88d8:	09412c83          	lw	s9,148(sp)
    88dc:	09012d03          	lw	s10,144(sp)
    88e0:	08c12d83          	lw	s11,140(sp)
    88e4:	00412703          	lw	a4,4(sp)
    88e8:	00812603          	lw	a2,8(sp)
    88ec:	00012503          	lw	a0,0(sp)
    88f0:	00100793          	li	a5,1
    88f4:	00f72023          	sw	a5,0(a4)
    88f8:	00100693          	li	a3,1
    88fc:	0000b597          	auipc	a1,0xb
    8900:	62458593          	add	a1,a1,1572 # 13f20 <__flash_rodata_start+0x80>
    8904:	504010ef          	jal	9e08 <__nrv_alloc_D2A>
    8908:	00050f13          	mv	t5,a0
    890c:	0bc12083          	lw	ra,188(sp)
    8910:	09812c03          	lw	s8,152(sp)
    8914:	0b012903          	lw	s2,176(sp)
    8918:	0a012b03          	lw	s6,160(sp)
    891c:	000f0513          	mv	a0,t5
    8920:	0c010113          	add	sp,sp,192
    8924:	00008067          	ret
    8928:	00412703          	lw	a4,4(sp)
    892c:	00812603          	lw	a2,8(sp)
    8930:	0bc12083          	lw	ra,188(sp)
    8934:	0b012903          	lw	s2,176(sp)
    8938:	0a012b03          	lw	s6,160(sp)
    893c:	ffff87b7          	lui	a5,0xffff8
    8940:	00f72023          	sw	a5,0(a4)
    8944:	00800693          	li	a3,8
    8948:	0000b597          	auipc	a1,0xb
    894c:	5dc58593          	add	a1,a1,1500 # 13f24 <__flash_rodata_start+0x84>
    8950:	0c010113          	add	sp,sp,192
    8954:	4b40106f          	j	9e08 <__nrv_alloc_D2A>
    8958:	00012503          	lw	a0,0(sp)
    895c:	00030593          	mv	a1,t1
    8960:	01e12823          	sw	t5,16(sp)
    8964:	19c020ef          	jal	ab00 <__lshift>
    8968:	01012f03          	lw	t5,16(sp)
    896c:	00050313          	mv	t1,a0
    8970:	ca051ee3          	bnez	a0,862c <__gdtoa+0x530>
    8974:	0b812403          	lw	s0,184(sp)
    8978:	0b412483          	lw	s1,180(sp)
    897c:	0ac12983          	lw	s3,172(sp)
    8980:	0a812a03          	lw	s4,168(sp)
    8984:	0a412a83          	lw	s5,164(sp)
    8988:	09c12b83          	lw	s7,156(sp)
    898c:	09412c83          	lw	s9,148(sp)
    8990:	09012d03          	lw	s10,144(sp)
    8994:	08c12d83          	lw	s11,140(sp)
    8998:	00000f13          	li	t5,0
    899c:	f71ff06f          	j	890c <__gdtoa+0x810>
    89a0:	00c12783          	lw	a5,12(sp)
    89a4:	0007a823          	sw	zero,16(a5) # ffff8010 <__alt_data_end+0xfffd8010>
    89a8:	891ff06f          	j	8238 <__gdtoa+0x13c>
    89ac:	00100793          	li	a5,1
    89b0:	02f12e23          	sw	a5,60(sp)
    89b4:	02012223          	sw	zero,36(sp)
    89b8:	3c0bc463          	bltz	s7,8d80 <__gdtoa+0xc84>
    89bc:	01812783          	lw	a5,24(sp)
    89c0:	a607d4e3          	bgez	a5,8428 <__gdtoa+0x32c>
    89c4:	01812783          	lw	a5,24(sp)
    89c8:	02412703          	lw	a4,36(sp)
    89cc:	00012c23          	sw	zero,24(sp)
    89d0:	02f12823          	sw	a5,48(sp)
    89d4:	40f70733          	sub	a4,a4,a5
    89d8:	02e12223          	sw	a4,36(sp)
    89dc:	40f00733          	neg	a4,a5
    89e0:	02e12623          	sw	a4,44(sp)
    89e4:	a55ff06f          	j	8438 <__gdtoa+0x33c>
    89e8:	00050593          	mv	a1,a0
    89ec:	00c12503          	lw	a0,12(sp)
    89f0:	6e0010ef          	jal	a0d0 <__rshift_D2A>
    89f4:	07c12683          	lw	a3,124(sp)
    89f8:	01012783          	lw	a5,16(sp)
    89fc:	40dc8cb3          	sub	s9,s9,a3
    8a00:	00f687b3          	add	a5,a3,a5
    8a04:	02f12023          	sw	a5,32(sp)
    8a08:	849ff06f          	j	8250 <__gdtoa+0x154>
    8a0c:	01c12783          	lw	a5,28(sp)
    8a10:	00000d13          	li	s10,0
    8a14:	3fd78793          	add	a5,a5,1021
    8a18:	7f87ba13          	sltiu	s4,a5,2040
    8a1c:	000a8513          	mv	a0,s5
    8a20:	0d0070ef          	jal	faf0 <__floatsidf>
    8a24:	0000c697          	auipc	a3,0xc
    8a28:	dd468693          	add	a3,a3,-556 # 147f8 <__clz_tab+0x128>
    8a2c:	0006a603          	lw	a2,0(a3)
    8a30:	0046a683          	lw	a3,4(a3)
    8a34:	058060ef          	jal	ea8c <__muldf3>
    8a38:	034070ef          	jal	fa6c <__fixdfsi>
    8a3c:	00100793          	li	a5,1
    8a40:	00350593          	add	a1,a0,3
    8a44:	02f12a23          	sw	a5,52(sp)
    8a48:	fff00793          	li	a5,-1
    8a4c:	00058693          	mv	a3,a1
    8a50:	00012a23          	sw	zero,20(sp)
    8a54:	04f12623          	sw	a5,76(sp)
    8a58:	00f12e23          	sw	a5,28(sp)
    8a5c:	a49ff06f          	j	84a4 <__gdtoa+0x3a8>
    8a60:	02812783          	lw	a5,40(sp)
    8a64:	00300693          	li	a3,3
    8a68:	40f687b3          	sub	a5,a3,a5
    8a6c:	02f12423          	sw	a5,40(sp)
    8a70:	01c12483          	lw	s1,28(sp)
    8a74:	00e00693          	li	a3,14
    8a78:	a496eee3          	bltu	a3,s1,84d4 <__gdtoa+0x3d8>
    8a7c:	a40a0ce3          	beqz	s4,84d4 <__gdtoa+0x3d8>
    8a80:	03012783          	lw	a5,48(sp)
    8a84:	02812703          	lw	a4,40(sp)
    8a88:	00e7e6b3          	or	a3,a5,a4
    8a8c:	a40694e3          	bnez	a3,84d4 <__gdtoa+0x3d8>
    8a90:	03812403          	lw	s0,56(sp)
    8a94:	04012a03          	lw	s4,64(sp)
    8a98:	03c12783          	lw	a5,60(sp)
    8a9c:	06012e23          	sw	zero,124(sp)
    8aa0:	02812423          	sw	s0,40(sp)
    8aa4:	03412c23          	sw	s4,56(sp)
    8aa8:	02078863          	beqz	a5,8ad8 <__gdtoa+0x9dc>
    8aac:	0000c697          	auipc	a3,0xc
    8ab0:	d5468693          	add	a3,a3,-684 # 14800 <__clz_tab+0x130>
    8ab4:	0006a603          	lw	a2,0(a3)
    8ab8:	0046a683          	lw	a3,4(a3)
    8abc:	00040513          	mv	a0,s0
    8ac0:	000a0593          	mv	a1,s4
    8ac4:	05e12823          	sw	t5,80(sp)
    8ac8:	6bd050ef          	jal	e984 <__ledf2>
    8acc:	05012f03          	lw	t5,80(sp)
    8ad0:	00055463          	bgez	a0,8ad8 <__gdtoa+0x9dc>
    8ad4:	6ed0006f          	j	99c0 <__gdtoa+0x18c4>
    8ad8:	02812783          	lw	a5,40(sp)
    8adc:	05e12823          	sw	t5,80(sp)
    8ae0:	00078613          	mv	a2,a5
    8ae4:	00078513          	mv	a0,a5
    8ae8:	03812783          	lw	a5,56(sp)
    8aec:	00078693          	mv	a3,a5
    8af0:	00078593          	mv	a1,a5
    8af4:	4b1040ef          	jal	d7a4 <__adddf3>
    8af8:	0000c697          	auipc	a3,0xc
    8afc:	d2068693          	add	a3,a3,-736 # 14818 <__clz_tab+0x148>
    8b00:	0006a603          	lw	a2,0(a3)
    8b04:	0046a683          	lw	a3,4(a3)
    8b08:	49d040ef          	jal	d7a4 <__adddf3>
    8b0c:	01c12783          	lw	a5,28(sp)
    8b10:	fcc00737          	lui	a4,0xfcc00
    8b14:	05012f03          	lw	t5,80(sp)
    8b18:	00050b13          	mv	s6,a0
    8b1c:	00b70a33          	add	s4,a4,a1
    8b20:	2a078ce3          	beqz	a5,95d8 <__gdtoa+0x14dc>
    8b24:	01c12783          	lw	a5,28(sp)
    8b28:	02812e83          	lw	t4,40(sp)
    8b2c:	03812803          	lw	a6,56(sp)
    8b30:	04012a23          	sw	zero,84(sp)
    8b34:	04f12823          	sw	a5,80(sp)
    8b38:	05012783          	lw	a5,80(sp)
    8b3c:	03412703          	lw	a4,52(sp)
    8b40:	0000b317          	auipc	t1,0xb
    8b44:	7a830313          	add	t1,t1,1960 # 142e8 <__mprec_tens>
    8b48:	fff78693          	add	a3,a5,-1
    8b4c:	00369693          	sll	a3,a3,0x3
    8b50:	00d306b3          	add	a3,t1,a3
    8b54:	05012e23          	sw	a6,92(sp)
    8b58:	05d12c23          	sw	t4,88(sp)
    8b5c:	0006a603          	lw	a2,0(a3)
    8b60:	000b0493          	mv	s1,s6
    8b64:	0046a683          	lw	a3,4(a3)
    8b68:	480704e3          	beqz	a4,97f0 <__gdtoa+0x16f4>
    8b6c:	0000c597          	auipc	a1,0xc
    8b70:	cbc58593          	add	a1,a1,-836 # 14828 <__clz_tab+0x158>
    8b74:	0005a503          	lw	a0,0(a1)
    8b78:	0045a583          	lw	a1,4(a1)
    8b7c:	06612423          	sw	t1,104(sp)
    8b80:	001f0b13          	add	s6,t5,1
    8b84:	07e12023          	sw	t5,96(sp)
    8b88:	4e4050ef          	jal	e06c <__divdf3>
    8b8c:	00048613          	mv	a2,s1
    8b90:	000a0693          	mv	a3,s4
    8b94:	5d0060ef          	jal	f164 <__subdf3>
    8b98:	05812e83          	lw	t4,88(sp)
    8b9c:	05c12803          	lw	a6,92(sp)
    8ba0:	00050613          	mv	a2,a0
    8ba4:	00058693          	mv	a3,a1
    8ba8:	000e8513          	mv	a0,t4
    8bac:	00080593          	mv	a1,a6
    8bb0:	05d12423          	sw	t4,72(sp)
    8bb4:	05012023          	sw	a6,64(sp)
    8bb8:	04c12c23          	sw	a2,88(sp)
    8bbc:	04d12e23          	sw	a3,92(sp)
    8bc0:	6ad060ef          	jal	fa6c <__fixdfsi>
    8bc4:	00050413          	mv	s0,a0
    8bc8:	729060ef          	jal	faf0 <__floatsidf>
    8bcc:	04012803          	lw	a6,64(sp)
    8bd0:	04812e83          	lw	t4,72(sp)
    8bd4:	00050613          	mv	a2,a0
    8bd8:	00058693          	mv	a3,a1
    8bdc:	000e8513          	mv	a0,t4
    8be0:	00080593          	mv	a1,a6
    8be4:	580060ef          	jal	f164 <__subdf3>
    8be8:	06012f03          	lw	t5,96(sp)
    8bec:	00050613          	mv	a2,a0
    8bf0:	00058693          	mv	a3,a1
    8bf4:	00050493          	mv	s1,a0
    8bf8:	00058a13          	mv	s4,a1
    8bfc:	05812503          	lw	a0,88(sp)
    8c00:	05c12583          	lw	a1,92(sp)
    8c04:	03040793          	add	a5,s0,48
    8c08:	00ff0023          	sb	a5,0(t5)
    8c0c:	05e12023          	sw	t5,64(sp)
    8c10:	475050ef          	jal	e884 <__gedf2>
    8c14:	04012f03          	lw	t5,64(sp)
    8c18:	00a05463          	blez	a0,8c20 <__gdtoa+0xb24>
    8c1c:	71d0006f          	j	9b38 <__gdtoa+0x1a3c>
    8c20:	0000c697          	auipc	a3,0xc
    8c24:	be068693          	add	a3,a3,-1056 # 14800 <__clz_tab+0x130>
    8c28:	0006a783          	lw	a5,0(a3)
    8c2c:	0046a803          	lw	a6,4(a3)
    8c30:	07712023          	sw	s7,96(sp)
    8c34:	07512223          	sw	s5,100(sp)
    8c38:	05012b83          	lw	s7,80(sp)
    8c3c:	05812403          	lw	s0,88(sp)
    8c40:	05c12a83          	lw	s5,92(sp)
    8c44:	04f12023          	sw	a5,64(sp)
    8c48:	05012223          	sw	a6,68(sp)
    8c4c:	05e12423          	sw	t5,72(sp)
    8c50:	05212823          	sw	s2,80(sp)
    8c54:	0940006f          	j	8ce8 <__gdtoa+0xbec>
    8c58:	07c12783          	lw	a5,124(sp)
    8c5c:	00178793          	add	a5,a5,1
    8c60:	06f12e23          	sw	a5,124(sp)
    8c64:	0177c463          	blt	a5,s7,8c6c <__gdtoa+0xb70>
    8c68:	7450006f          	j	9bac <__gdtoa+0x1ab0>
    8c6c:	0000c917          	auipc	s2,0xc
    8c70:	b9c90913          	add	s2,s2,-1124 # 14808 <__clz_tab+0x138>
    8c74:	00092603          	lw	a2,0(s2)
    8c78:	00492683          	lw	a3,4(s2)
    8c7c:	001b0b13          	add	s6,s6,1
    8c80:	60d050ef          	jal	ea8c <__muldf3>
    8c84:	00092603          	lw	a2,0(s2)
    8c88:	00492683          	lw	a3,4(s2)
    8c8c:	00050413          	mv	s0,a0
    8c90:	00058a93          	mv	s5,a1
    8c94:	00048513          	mv	a0,s1
    8c98:	000a0593          	mv	a1,s4
    8c9c:	5f1050ef          	jal	ea8c <__muldf3>
    8ca0:	00058a13          	mv	s4,a1
    8ca4:	00050913          	mv	s2,a0
    8ca8:	5c5060ef          	jal	fa6c <__fixdfsi>
    8cac:	00050493          	mv	s1,a0
    8cb0:	641060ef          	jal	faf0 <__floatsidf>
    8cb4:	00050613          	mv	a2,a0
    8cb8:	00058693          	mv	a3,a1
    8cbc:	00090513          	mv	a0,s2
    8cc0:	000a0593          	mv	a1,s4
    8cc4:	4a0060ef          	jal	f164 <__subdf3>
    8cc8:	03048793          	add	a5,s1,48
    8ccc:	00040613          	mv	a2,s0
    8cd0:	000a8693          	mv	a3,s5
    8cd4:	fefb0fa3          	sb	a5,-1(s6)
    8cd8:	00050493          	mv	s1,a0
    8cdc:	00058a13          	mv	s4,a1
    8ce0:	4a5050ef          	jal	e984 <__ledf2>
    8ce4:	640546e3          	bltz	a0,9b30 <__gdtoa+0x1a34>
    8ce8:	04012503          	lw	a0,64(sp)
    8cec:	04412583          	lw	a1,68(sp)
    8cf0:	00048613          	mv	a2,s1
    8cf4:	000a0693          	mv	a3,s4
    8cf8:	46c060ef          	jal	f164 <__subdf3>
    8cfc:	00050613          	mv	a2,a0
    8d00:	00058693          	mv	a3,a1
    8d04:	00040513          	mv	a0,s0
    8d08:	000a8593          	mv	a1,s5
    8d0c:	379050ef          	jal	e884 <__gedf2>
    8d10:	00050793          	mv	a5,a0
    8d14:	000a8593          	mv	a1,s5
    8d18:	00040513          	mv	a0,s0
    8d1c:	f2f05ee3          	blez	a5,8c58 <__gdtoa+0xb5c>
    8d20:	05412783          	lw	a5,84(sp)
    8d24:	04812f03          	lw	t5,72(sp)
    8d28:	05012903          	lw	s2,80(sp)
    8d2c:	fffb4703          	lbu	a4,-1(s6)
    8d30:	00178413          	add	s0,a5,1
    8d34:	03900693          	li	a3,57
    8d38:	0100006f          	j	8d48 <__gdtoa+0xc4c>
    8d3c:	2aff04e3          	beq	t5,a5,97e4 <__gdtoa+0x16e8>
    8d40:	fff7c703          	lbu	a4,-1(a5)
    8d44:	00078b13          	mv	s6,a5
    8d48:	fffb0793          	add	a5,s6,-1
    8d4c:	fed708e3          	beq	a4,a3,8d3c <__gdtoa+0xc40>
    8d50:	00170693          	add	a3,a4,1 # fcc00001 <__alt_data_end+0xfcbe0001>
    8d54:	0ff6f693          	zext.b	a3,a3
    8d58:	00d78023          	sb	a3,0(a5)
    8d5c:	00040493          	mv	s1,s0
    8d60:	02000c13          	li	s8,32
    8d64:	1f80006f          	j	8f5c <__gdtoa+0xe60>
    8d68:	0ac12983          	lw	s3,172(sp)
    8d6c:	0a412a83          	lw	s5,164(sp)
    8d70:	09012d03          	lw	s10,144(sp)
    8d74:	08c12d83          	lw	s11,140(sp)
    8d78:	00000f13          	li	t5,0
    8d7c:	b91ff06f          	j	890c <__gdtoa+0x810>
    8d80:	00100693          	li	a3,1
    8d84:	408687b3          	sub	a5,a3,s0
    8d88:	02f12223          	sw	a5,36(sp)
    8d8c:	00000b93          	li	s7,0
    8d90:	c2dff06f          	j	89bc <__gdtoa+0x8c0>
    8d94:	02c12483          	lw	s1,44(sp)
    8d98:	02412a83          	lw	s5,36(sp)
    8d9c:	00000a13          	li	s4,0
    8da0:	fd4ff06f          	j	8574 <__gdtoa+0x478>
    8da4:	00200793          	li	a5,2
    8da8:	02f12423          	sw	a5,40(sp)
    8dac:	f20ff06f          	j	84cc <__gdtoa+0x3d0>
    8db0:	01812783          	lw	a5,24(sp)
    8db4:	02012e23          	sw	zero,60(sp)
    8db8:	fff78793          	add	a5,a5,-1
    8dbc:	00f12c23          	sw	a5,24(sp)
    8dc0:	bf5ff06f          	j	89b4 <__gdtoa+0x8b8>
    8dc4:	ffcd0d13          	add	s10,s10,-4
    8dc8:	00400613          	li	a2,4
    8dcc:	22cd0063          	beq	s10,a2,8fec <__gdtoa+0xef0>
    8dd0:	70dd0863          	beq	s10,a3,94e0 <__gdtoa+0x13e4>
    8dd4:	00200693          	li	a3,2
    8dd8:	02012a23          	sw	zero,52(sp)
    8ddc:	00000a13          	li	s4,0
    8de0:	20dd0c63          	beq	s10,a3,8ff8 <__gdtoa+0xefc>
    8de4:	00300d13          	li	s10,3
    8de8:	e98ff06f          	j	8480 <__gdtoa+0x384>
    8dec:	00379693          	sll	a3,a5,0x3
    8df0:	0000b797          	auipc	a5,0xb
    8df4:	4f878793          	add	a5,a5,1272 # 142e8 <__mprec_tens>
    8df8:	00d787b3          	add	a5,a5,a3
    8dfc:	0007ad03          	lw	s10,0(a5)
    8e00:	0047ad83          	lw	s11,4(a5)
    8e04:	01412783          	lw	a5,20(sp)
    8e08:	5607c463          	bltz	a5,9370 <__gdtoa+0x1274>
    8e0c:	04812403          	lw	s0,72(sp)
    8e10:	04012a03          	lw	s4,64(sp)
    8e14:	00100793          	li	a5,1
    8e18:	000d0613          	mv	a2,s10
    8e1c:	000d8693          	mv	a3,s11
    8e20:	00040513          	mv	a0,s0
    8e24:	000a0593          	mv	a1,s4
    8e28:	01e12823          	sw	t5,16(sp)
    8e2c:	06f12e23          	sw	a5,124(sp)
    8e30:	23c050ef          	jal	e06c <__divdf3>
    8e34:	439060ef          	jal	fa6c <__fixdfsi>
    8e38:	00050993          	mv	s3,a0
    8e3c:	4b5060ef          	jal	faf0 <__floatsidf>
    8e40:	000d0613          	mv	a2,s10
    8e44:	000d8693          	mv	a3,s11
    8e48:	445050ef          	jal	ea8c <__muldf3>
    8e4c:	00050613          	mv	a2,a0
    8e50:	00058693          	mv	a3,a1
    8e54:	00040513          	mv	a0,s0
    8e58:	000a0593          	mv	a1,s4
    8e5c:	308060ef          	jal	f164 <__subdf3>
    8e60:	01012f03          	lw	t5,16(sp)
    8e64:	03012703          	lw	a4,48(sp)
    8e68:	03098793          	add	a5,s3,48
    8e6c:	00ff0023          	sb	a5,0(t5)
    8e70:	00000613          	li	a2,0
    8e74:	00000693          	li	a3,0
    8e78:	00170413          	add	s0,a4,1
    8e7c:	001f0b13          	add	s6,t5,1
    8e80:	00050a93          	mv	s5,a0
    8e84:	00058a13          	mv	s4,a1
    8e88:	171050ef          	jal	e7f8 <__eqdf2>
    8e8c:	01012f03          	lw	t5,16(sp)
    8e90:	00040493          	mv	s1,s0
    8e94:	0c050463          	beqz	a0,8f5c <__gdtoa+0xe60>
    8e98:	01812823          	sw	s8,16(sp)
    8e9c:	01c12c83          	lw	s9,28(sp)
    8ea0:	000a0c13          	mv	s8,s4
    8ea4:	0000cb97          	auipc	s7,0xc
    8ea8:	964b8b93          	add	s7,s7,-1692 # 14808 <__clz_tab+0x138>
    8eac:	00040a13          	mv	s4,s0
    8eb0:	000f0413          	mv	s0,t5
    8eb4:	0780006f          	j	8f2c <__gdtoa+0xe30>
    8eb8:	000ba603          	lw	a2,0(s7)
    8ebc:	004ba683          	lw	a3,4(s7)
    8ec0:	07012e23          	sw	a6,124(sp)
    8ec4:	001b0b13          	add	s6,s6,1
    8ec8:	3c5050ef          	jal	ea8c <__muldf3>
    8ecc:	000d0613          	mv	a2,s10
    8ed0:	000d8693          	mv	a3,s11
    8ed4:	00050c13          	mv	s8,a0
    8ed8:	00058a93          	mv	s5,a1
    8edc:	190050ef          	jal	e06c <__divdf3>
    8ee0:	38d060ef          	jal	fa6c <__fixdfsi>
    8ee4:	00050993          	mv	s3,a0
    8ee8:	409060ef          	jal	faf0 <__floatsidf>
    8eec:	000d0613          	mv	a2,s10
    8ef0:	000d8693          	mv	a3,s11
    8ef4:	399050ef          	jal	ea8c <__muldf3>
    8ef8:	00050613          	mv	a2,a0
    8efc:	00058693          	mv	a3,a1
    8f00:	000c0513          	mv	a0,s8
    8f04:	000a8593          	mv	a1,s5
    8f08:	25c060ef          	jal	f164 <__subdf3>
    8f0c:	03098793          	add	a5,s3,48
    8f10:	fefb0fa3          	sb	a5,-1(s6)
    8f14:	00000613          	li	a2,0
    8f18:	00000693          	li	a3,0
    8f1c:	00050a93          	mv	s5,a0
    8f20:	00058c13          	mv	s8,a1
    8f24:	0d5050ef          	jal	e7f8 <__eqdf2>
    8f28:	42050e63          	beqz	a0,9364 <__gdtoa+0x1268>
    8f2c:	07c12703          	lw	a4,124(sp)
    8f30:	000a8513          	mv	a0,s5
    8f34:	000c0593          	mv	a1,s8
    8f38:	00170813          	add	a6,a4,1
    8f3c:	f7971ee3          	bne	a4,s9,8eb8 <__gdtoa+0xdbc>
    8f40:	02812703          	lw	a4,40(sp)
    8f44:	00040f13          	mv	t5,s0
    8f48:	000a0413          	mv	s0,s4
    8f4c:	02070ae3          	beqz	a4,9780 <__gdtoa+0x1684>
    8f50:	00100793          	li	a5,1
    8f54:	01000c13          	li	s8,16
    8f58:	26f700e3          	beq	a4,a5,99b8 <__gdtoa+0x18bc>
    8f5c:	00c12583          	lw	a1,12(sp)
    8f60:	00012503          	lw	a0,0(sp)
    8f64:	01e12823          	sw	t5,16(sp)
    8f68:	364010ef          	jal	a2cc <_Bfree>
    8f6c:	00412783          	lw	a5,4(sp)
    8f70:	000b0023          	sb	zero,0(s6)
    8f74:	01012f03          	lw	t5,16(sp)
    8f78:	0097a023          	sw	s1,0(a5)
    8f7c:	00812783          	lw	a5,8(sp)
    8f80:	00078463          	beqz	a5,8f88 <__gdtoa+0xe8c>
    8f84:	0167a023          	sw	s6,0(a5)
    8f88:	00092783          	lw	a5,0(s2)
    8f8c:	0b812403          	lw	s0,184(sp)
    8f90:	0b412483          	lw	s1,180(sp)
    8f94:	0187e7b3          	or	a5,a5,s8
    8f98:	0ac12983          	lw	s3,172(sp)
    8f9c:	0a812a03          	lw	s4,168(sp)
    8fa0:	0a412a83          	lw	s5,164(sp)
    8fa4:	09c12b83          	lw	s7,156(sp)
    8fa8:	09412c83          	lw	s9,148(sp)
    8fac:	09012d03          	lw	s10,144(sp)
    8fb0:	08c12d83          	lw	s11,140(sp)
    8fb4:	00f92023          	sw	a5,0(s2)
    8fb8:	955ff06f          	j	890c <__gdtoa+0x810>
    8fbc:	e4dc9263          	bne	s9,a3,8600 <__gdtoa+0x504>
    8fc0:	004da783          	lw	a5,4(s11)
    8fc4:	01012703          	lw	a4,16(sp)
    8fc8:	00178793          	add	a5,a5,1
    8fcc:	e2e7da63          	bge	a5,a4,8600 <__gdtoa+0x504>
    8fd0:	02412783          	lw	a5,36(sp)
    8fd4:	001b8b93          	add	s7,s7,1
    8fd8:	00178793          	add	a5,a5,1
    8fdc:	02f12223          	sw	a5,36(sp)
    8fe0:	00100793          	li	a5,1
    8fe4:	00f12c23          	sw	a5,24(sp)
    8fe8:	e18ff06f          	j	8600 <__gdtoa+0x504>
    8fec:	00100793          	li	a5,1
    8ff0:	00000a13          	li	s4,0
    8ff4:	02f12a23          	sw	a5,52(sp)
    8ff8:	01412583          	lw	a1,20(sp)
    8ffc:	00b04463          	bgtz	a1,9004 <__gdtoa+0xf08>
    9000:	00100593          	li	a1,1
    9004:	00058693          	mv	a3,a1
    9008:	04b12623          	sw	a1,76(sp)
    900c:	00b12e23          	sw	a1,28(sp)
    9010:	00b12a23          	sw	a1,20(sp)
    9014:	c90ff06f          	j	84a4 <__gdtoa+0x3a8>
    9018:	2d8010ef          	jal	a2f0 <__multadd>
    901c:	00050a13          	mv	s4,a0
    9020:	94050ae3          	beqz	a0,8974 <__gdtoa+0x878>
    9024:	00050a93          	mv	s5,a0
    9028:	efcff06f          	j	8724 <__gdtoa+0x628>
    902c:	e80b5463          	bgez	s6,86b4 <__gdtoa+0x5b8>
    9030:	02812783          	lw	a5,40(sp)
    9034:	00912623          	sw	s1,12(sp)
    9038:	000c0313          	mv	t1,s8
    903c:	01012f03          	lw	t5,16(sp)
    9040:	01412903          	lw	s2,20(sp)
    9044:	00070c13          	mv	s8,a4
    9048:	46079ae3          	bnez	a5,9cbc <__gdtoa+0x1bc0>
    904c:	00c12783          	lw	a5,12(sp)
    9050:	00100693          	li	a3,1
    9054:	01000c13          	li	s8,16
    9058:	0107a603          	lw	a2,16(a5)
    905c:	001d8993          	add	s3,s11,1
    9060:	3ec6d6e3          	bge	a3,a2,9c4c <__gdtoa+0x1b50>
    9064:	000a0413          	mv	s0,s4
    9068:	00098b13          	mv	s6,s3
    906c:	019d8023          	sb	s9,0(s11)
    9070:	000a8a13          	mv	s4,s5
    9074:	00012983          	lw	s3,0(sp)
    9078:	00030593          	mv	a1,t1
    907c:	01e12823          	sw	t5,16(sp)
    9080:	00098513          	mv	a0,s3
    9084:	248010ef          	jal	a2cc <_Bfree>
    9088:	03012783          	lw	a5,48(sp)
    908c:	01012f03          	lw	t5,16(sp)
    9090:	00178493          	add	s1,a5,1
    9094:	ec0a04e3          	beqz	s4,8f5c <__gdtoa+0xe60>
    9098:	00040c63          	beqz	s0,90b0 <__gdtoa+0xfb4>
    909c:	01440a63          	beq	s0,s4,90b0 <__gdtoa+0xfb4>
    90a0:	00040593          	mv	a1,s0
    90a4:	00098513          	mv	a0,s3
    90a8:	224010ef          	jal	a2cc <_Bfree>
    90ac:	01012f03          	lw	t5,16(sp)
    90b0:	00012503          	lw	a0,0(sp)
    90b4:	000a0593          	mv	a1,s4
    90b8:	01e12823          	sw	t5,16(sp)
    90bc:	210010ef          	jal	a2cc <_Bfree>
    90c0:	01012f03          	lw	t5,16(sp)
    90c4:	e99ff06f          	j	8f5c <__gdtoa+0xe60>
    90c8:	00c12583          	lw	a1,12(sp)
    90cc:	00012503          	lw	a0,0(sp)
    90d0:	03e12023          	sw	t5,32(sp)
    90d4:	00612823          	sw	t1,16(sp)
    90d8:	229010ef          	jal	ab00 <__lshift>
    90dc:	00a12623          	sw	a0,12(sp)
    90e0:	88050ae3          	beqz	a0,8974 <__gdtoa+0x878>
    90e4:	07c12783          	lw	a5,124(sp)
    90e8:	02012f03          	lw	t5,32(sp)
    90ec:	01012303          	lw	t1,16(sp)
    90f0:	d34ff06f          	j	8624 <__gdtoa+0x528>
    90f4:	00c12503          	lw	a0,12(sp)
    90f8:	00030593          	mv	a1,t1
    90fc:	03e12023          	sw	t5,32(sp)
    9100:	00612823          	sw	t1,16(sp)
    9104:	38d010ef          	jal	ac90 <__mcmp>
    9108:	01012303          	lw	t1,16(sp)
    910c:	02012f03          	lw	t5,32(sp)
    9110:	d2055263          	bgez	a0,8634 <__gdtoa+0x538>
    9114:	03012783          	lw	a5,48(sp)
    9118:	00c12583          	lw	a1,12(sp)
    911c:	00012503          	lw	a0,0(sp)
    9120:	fff78793          	add	a5,a5,-1
    9124:	00000693          	li	a3,0
    9128:	00a00613          	li	a2,10
    912c:	01e12e23          	sw	t5,28(sp)
    9130:	02f12823          	sw	a5,48(sp)
    9134:	1bc010ef          	jal	a2f0 <__multadd>
    9138:	00a12623          	sw	a0,12(sp)
    913c:	82050ce3          	beqz	a0,8974 <__gdtoa+0x878>
    9140:	03412783          	lw	a5,52(sp)
    9144:	01012303          	lw	t1,16(sp)
    9148:	01c12f03          	lw	t5,28(sp)
    914c:	18079ce3          	bnez	a5,9ae4 <__gdtoa+0x19e8>
    9150:	04c12783          	lw	a5,76(sp)
    9154:	1ef05e63          	blez	a5,9350 <__gdtoa+0x1254>
    9158:	00f12e23          	sw	a5,28(sp)
    915c:	01c12483          	lw	s1,28(sp)
    9160:	00c12403          	lw	s0,12(sp)
    9164:	00012a83          	lw	s5,0(sp)
    9168:	000f0d93          	mv	s11,t5
    916c:	00100793          	li	a5,1
    9170:	00030993          	mv	s3,t1
    9174:	000f0b13          	mv	s6,t5
    9178:	0180006f          	j	9190 <__gdtoa+0x1094>
    917c:	174010ef          	jal	a2f0 <__multadd>
    9180:	00050413          	mv	s0,a0
    9184:	fe050863          	beqz	a0,8974 <__gdtoa+0x878>
    9188:	07c12783          	lw	a5,124(sp)
    918c:	00178793          	add	a5,a5,1
    9190:	00098593          	mv	a1,s3
    9194:	00040513          	mv	a0,s0
    9198:	06f12e23          	sw	a5,124(sp)
    919c:	53d000ef          	jal	9ed8 <__quorem_D2A>
    91a0:	03050c93          	add	s9,a0,48
    91a4:	019d8023          	sb	s9,0(s11)
    91a8:	07c12783          	lw	a5,124(sp)
    91ac:	00000693          	li	a3,0
    91b0:	00a00613          	li	a2,10
    91b4:	00040593          	mv	a1,s0
    91b8:	000a8513          	mv	a0,s5
    91bc:	001d8d93          	add	s11,s11,1
    91c0:	fa97cee3          	blt	a5,s1,917c <__gdtoa+0x1080>
    91c4:	00812623          	sw	s0,12(sp)
    91c8:	00098313          	mv	t1,s3
    91cc:	000b0f13          	mv	t5,s6
    91d0:	00000413          	li	s0,0
    91d4:	02812703          	lw	a4,40(sp)
    91d8:	4a070063          	beqz	a4,9678 <__gdtoa+0x157c>
    91dc:	00c12603          	lw	a2,12(sp)
    91e0:	00200793          	li	a5,2
    91e4:	01062683          	lw	a3,16(a2)
    91e8:	4cf70a63          	beq	a4,a5,96bc <__gdtoa+0x15c0>
    91ec:	00100793          	li	a5,1
    91f0:	28d7ce63          	blt	a5,a3,948c <__gdtoa+0x1390>
    91f4:	01462783          	lw	a5,20(a2)
    91f8:	28079a63          	bnez	a5,948c <__gdtoa+0x1390>
    91fc:	00f037b3          	snez	a5,a5
    9200:	00479c13          	sll	s8,a5,0x4
    9204:	03000693          	li	a3,48
    9208:	fffdc783          	lbu	a5,-1(s11)
    920c:	000d8b13          	mv	s6,s11
    9210:	fffd8d93          	add	s11,s11,-1
    9214:	fed78ae3          	beq	a5,a3,9208 <__gdtoa+0x110c>
    9218:	e5dff06f          	j	9074 <__gdtoa+0xf78>
    921c:	01c12783          	lw	a5,28(sp)
    9220:	02c12703          	lw	a4,44(sp)
    9224:	fff78693          	add	a3,a5,-1
    9228:	1ad74663          	blt	a4,a3,93d4 <__gdtoa+0x12d8>
    922c:	40d704b3          	sub	s1,a4,a3
    9230:	0007dee3          	bgez	a5,9a4c <__gdtoa+0x1950>
    9234:	02412783          	lw	a5,36(sp)
    9238:	01c12703          	lw	a4,28(sp)
    923c:	06012e23          	sw	zero,124(sp)
    9240:	40e78ab3          	sub	s5,a5,a4
    9244:	b14ff06f          	j	8558 <__gdtoa+0x45c>
    9248:	00200793          	li	a5,2
    924c:	bfa7d863          	bge	a5,s10,863c <__gdtoa+0x540>
    9250:	00012503          	lw	a0,0(sp)
    9254:	00030593          	mv	a1,t1
    9258:	00000693          	li	a3,0
    925c:	00500613          	li	a2,5
    9260:	01e12823          	sw	t5,16(sp)
    9264:	08c010ef          	jal	a2f0 <__multadd>
    9268:	00050593          	mv	a1,a0
    926c:	f0050463          	beqz	a0,8974 <__gdtoa+0x878>
    9270:	01c12783          	lw	a5,28(sp)
    9274:	01012f03          	lw	t5,16(sp)
    9278:	14079463          	bnez	a5,93c0 <__gdtoa+0x12c4>
    927c:	00a12823          	sw	a0,16(sp)
    9280:	00c12503          	lw	a0,12(sp)
    9284:	01e12c23          	sw	t5,24(sp)
    9288:	209010ef          	jal	ac90 <__mcmp>
    928c:	01012583          	lw	a1,16(sp)
    9290:	01812f03          	lw	t5,24(sp)
    9294:	12a05663          	blez	a0,93c0 <__gdtoa+0x12c4>
    9298:	03012783          	lw	a5,48(sp)
    929c:	00278493          	add	s1,a5,2
    92a0:	03100793          	li	a5,49
    92a4:	001f0b13          	add	s6,t5,1
    92a8:	00ff0023          	sb	a5,0(t5)
    92ac:	02000c13          	li	s8,32
    92b0:	00012503          	lw	a0,0(sp)
    92b4:	01e12823          	sw	t5,16(sp)
    92b8:	014010ef          	jal	a2cc <_Bfree>
    92bc:	01012f03          	lw	t5,16(sp)
    92c0:	c80a0ee3          	beqz	s4,8f5c <__gdtoa+0xe60>
    92c4:	dedff06f          	j	90b0 <__gdtoa+0xfb4>
    92c8:	00100693          	li	a3,1
    92cc:	00100593          	li	a1,1
    92d0:	9d4ff06f          	j	84a4 <__gdtoa+0x3a8>
    92d4:	00050593          	mv	a1,a0
    92d8:	00012503          	lw	a0,0(sp)
    92dc:	00078613          	mv	a2,a5
    92e0:	6d0010ef          	jal	a9b0 <__pow5mult>
    92e4:	00050313          	mv	t1,a0
    92e8:	e8050663          	beqz	a0,8974 <__gdtoa+0x878>
    92ec:	00100693          	li	a3,1
    92f0:	02012f03          	lw	t5,32(sp)
    92f4:	21a6de63          	bge	a3,s10,9510 <__gdtoa+0x1414>
    92f8:	01032783          	lw	a5,16(t1)
    92fc:	03e12023          	sw	t5,32(sp)
    9300:	00612823          	sw	t1,16(sp)
    9304:	00378793          	add	a5,a5,3
    9308:	00279793          	sll	a5,a5,0x2
    930c:	00f307b3          	add	a5,t1,a5
    9310:	0047a503          	lw	a0,4(a5)
    9314:	260010ef          	jal	a574 <__hi0bits>
    9318:	02012f03          	lw	t5,32(sp)
    931c:	01012303          	lw	t1,16(sp)
    9320:	00050b13          	mv	s6,a0
    9324:	01812c23          	sw	s8,24(sp)
    9328:	adcff06f          	j	8604 <__gdtoa+0x508>
    932c:	00100693          	li	a3,1
    9330:	efa6c6e3          	blt	a3,s10,921c <__gdtoa+0x1120>
    9334:	02412783          	lw	a5,36(sp)
    9338:	02c12483          	lw	s1,44(sp)
    933c:	00cb8bb3          	add	s7,s7,a2
    9340:	00078a93          	mv	s5,a5
    9344:	00f607b3          	add	a5,a2,a5
    9348:	02f12223          	sw	a5,36(sp)
    934c:	a0cff06f          	j	8558 <__gdtoa+0x45c>
    9350:	00200793          	li	a5,2
    9354:	13a7c0e3          	blt	a5,s10,9c74 <__gdtoa+0x1b78>
    9358:	04c12783          	lw	a5,76(sp)
    935c:	00f12e23          	sw	a5,28(sp)
    9360:	dfdff06f          	j	915c <__gdtoa+0x1060>
    9364:	01012c03          	lw	s8,16(sp)
    9368:	00040f13          	mv	t5,s0
    936c:	bf1ff06f          	j	8f5c <__gdtoa+0xe60>
    9370:	01c12783          	lw	a5,28(sp)
    9374:	a8f04ce3          	bgtz	a5,8e0c <__gdtoa+0xd10>
    9378:	04079063          	bnez	a5,93b8 <__gdtoa+0x12bc>
    937c:	0000b797          	auipc	a5,0xb
    9380:	4a478793          	add	a5,a5,1188 # 14820 <__clz_tab+0x150>
    9384:	0007a603          	lw	a2,0(a5)
    9388:	0047a683          	lw	a3,4(a5)
    938c:	000d0513          	mv	a0,s10
    9390:	000d8593          	mv	a1,s11
    9394:	01e12823          	sw	t5,16(sp)
    9398:	6f4050ef          	jal	ea8c <__muldf3>
    939c:	04812883          	lw	a7,72(sp)
    93a0:	04012783          	lw	a5,64(sp)
    93a4:	00088613          	mv	a2,a7
    93a8:	00078693          	mv	a3,a5
    93ac:	4d8050ef          	jal	e884 <__gedf2>
    93b0:	01012f03          	lw	t5,16(sp)
    93b4:	6e054c63          	bltz	a0,9aac <__gdtoa+0x19b0>
    93b8:	00000593          	li	a1,0
    93bc:	00000a13          	li	s4,0
    93c0:	01412783          	lw	a5,20(sp)
    93c4:	000f0b13          	mv	s6,t5
    93c8:	01000c13          	li	s8,16
    93cc:	40f004b3          	neg	s1,a5
    93d0:	ee1ff06f          	j	92b0 <__gdtoa+0x11b4>
    93d4:	02c12783          	lw	a5,44(sp)
    93d8:	02412703          	lw	a4,36(sp)
    93dc:	00000493          	li	s1,0
    93e0:	40f68633          	sub	a2,a3,a5
    93e4:	01812783          	lw	a5,24(sp)
    93e8:	00070a93          	mv	s5,a4
    93ec:	02d12623          	sw	a3,44(sp)
    93f0:	00c787b3          	add	a5,a5,a2
    93f4:	00f12c23          	sw	a5,24(sp)
    93f8:	01c12783          	lw	a5,28(sp)
    93fc:	06f12e23          	sw	a5,124(sp)
    9400:	00fb8bb3          	add	s7,s7,a5
    9404:	00f707b3          	add	a5,a4,a5
    9408:	02f12223          	sw	a5,36(sp)
    940c:	94cff06f          	j	8558 <__gdtoa+0x45c>
    9410:	00012b03          	lw	s6,0(sp)
    9414:	000a0593          	mv	a1,s4
    9418:	00048613          	mv	a2,s1
    941c:	000b0513          	mv	a0,s6
    9420:	03e12023          	sw	t5,32(sp)
    9424:	58c010ef          	jal	a9b0 <__pow5mult>
    9428:	00050a13          	mv	s4,a0
    942c:	d4050463          	beqz	a0,8974 <__gdtoa+0x878>
    9430:	00c12603          	lw	a2,12(sp)
    9434:	00050593          	mv	a1,a0
    9438:	000b0513          	mv	a0,s6
    943c:	340010ef          	jal	a77c <__multiply>
    9440:	00050413          	mv	s0,a0
    9444:	d2050863          	beqz	a0,8974 <__gdtoa+0x878>
    9448:	00c12583          	lw	a1,12(sp)
    944c:	000b0513          	mv	a0,s6
    9450:	67d000ef          	jal	a2cc <_Bfree>
    9454:	02c12783          	lw	a5,44(sp)
    9458:	00812623          	sw	s0,12(sp)
    945c:	02012f03          	lw	t5,32(sp)
    9460:	409787b3          	sub	a5,a5,s1
    9464:	02f12623          	sw	a5,44(sp)
    9468:	96078663          	beqz	a5,85d4 <__gdtoa+0x4d8>
    946c:	948ff06f          	j	85b4 <__gdtoa+0x4b8>
    9470:	000a0413          	mv	s0,s4
    9474:	000d8793          	mv	a5,s11
    9478:	001d8993          	add	s3,s11,1
    947c:	000a8a13          	mv	s4,s5
    9480:	03900693          	li	a3,57
    9484:	00098d93          	mv	s11,s3
    9488:	00d78023          	sb	a3,0(a5)
    948c:	03900693          	li	a3,57
    9490:	0080006f          	j	9498 <__gdtoa+0x139c>
    9494:	25bf0463          	beq	t5,s11,96dc <__gdtoa+0x15e0>
    9498:	fffdc783          	lbu	a5,-1(s11)
    949c:	000d8b13          	mv	s6,s11
    94a0:	fffd8d93          	add	s11,s11,-1
    94a4:	fed788e3          	beq	a5,a3,9494 <__gdtoa+0x1398>
    94a8:	00178793          	add	a5,a5,1
    94ac:	00fd8023          	sb	a5,0(s11)
    94b0:	02000c13          	li	s8,32
    94b4:	bc1ff06f          	j	9074 <__gdtoa+0xf78>
    94b8:	00012503          	lw	a0,0(sp)
    94bc:	000a0593          	mv	a1,s4
    94c0:	01e12a23          	sw	t5,20(sp)
    94c4:	00612823          	sw	t1,16(sp)
    94c8:	638010ef          	jal	ab00 <__lshift>
    94cc:	01012303          	lw	t1,16(sp)
    94d0:	01412f03          	lw	t5,20(sp)
    94d4:	00050a13          	mv	s4,a0
    94d8:	96051a63          	bnez	a0,864c <__gdtoa+0x550>
    94dc:	c98ff06f          	j	8974 <__gdtoa+0x878>
    94e0:	00100793          	li	a5,1
    94e4:	00000a13          	li	s4,0
    94e8:	02f12a23          	sw	a5,52(sp)
    94ec:	f95fe06f          	j	8480 <__gdtoa+0x384>
    94f0:	00100793          	li	a5,1
    94f4:	02f12a23          	sw	a5,52(sp)
    94f8:	f89fe06f          	j	8480 <__gdtoa+0x384>
    94fc:	00100793          	li	a5,1
    9500:	02f12a23          	sw	a5,52(sp)
    9504:	af5ff06f          	j	8ff8 <__gdtoa+0xefc>
    9508:	02012a23          	sw	zero,52(sp)
    950c:	aedff06f          	j	8ff8 <__gdtoa+0xefc>
    9510:	dedc94e3          	bne	s9,a3,92f8 <__gdtoa+0x11fc>
    9514:	004da783          	lw	a5,4(s11)
    9518:	01012703          	lw	a4,16(sp)
    951c:	00178793          	add	a5,a5,1
    9520:	dce7dce3          	bge	a5,a4,92f8 <__gdtoa+0x11fc>
    9524:	02412783          	lw	a5,36(sp)
    9528:	001b8b93          	add	s7,s7,1
    952c:	00100c13          	li	s8,1
    9530:	00178793          	add	a5,a5,1
    9534:	02f12223          	sw	a5,36(sp)
    9538:	dc1ff06f          	j	92f8 <__gdtoa+0x11fc>
    953c:	00012403          	lw	s0,0(sp)
    9540:	004a2583          	lw	a1,4(s4)
    9544:	01e12a23          	sw	t5,20(sp)
    9548:	00040513          	mv	a0,s0
    954c:	00612823          	sw	t1,16(sp)
    9550:	4c9000ef          	jal	a218 <_Balloc>
    9554:	00050a93          	mv	s5,a0
    9558:	c0050e63          	beqz	a0,8974 <__gdtoa+0x878>
    955c:	010a2603          	lw	a2,16(s4)
    9560:	00ca0593          	add	a1,s4,12
    9564:	00c50513          	add	a0,a0,12
    9568:	00260613          	add	a2,a2,2
    956c:	00261613          	sll	a2,a2,0x2
    9570:	f6cf90ef          	jal	2cdc <memcpy>
    9574:	000a8593          	mv	a1,s5
    9578:	00100613          	li	a2,1
    957c:	00040513          	mv	a0,s0
    9580:	580010ef          	jal	ab00 <__lshift>
    9584:	01012303          	lw	t1,16(sp)
    9588:	01412f03          	lw	t5,20(sp)
    958c:	00050a93          	mv	s5,a0
    9590:	00050463          	beqz	a0,9598 <__gdtoa+0x149c>
    9594:	8c8ff06f          	j	865c <__gdtoa+0x560>
    9598:	bdcff06f          	j	8974 <__gdtoa+0x878>
    959c:	000a0693          	mv	a3,s4
    95a0:	00040613          	mv	a2,s0
    95a4:	000a0593          	mv	a1,s4
    95a8:	00040513          	mv	a0,s0
    95ac:	05e12023          	sw	t5,64(sp)
    95b0:	1f4040ef          	jal	d7a4 <__adddf3>
    95b4:	0000b697          	auipc	a3,0xb
    95b8:	26468693          	add	a3,a3,612 # 14818 <__clz_tab+0x148>
    95bc:	0006a603          	lw	a2,0(a3)
    95c0:	0046a683          	lw	a3,4(a3)
    95c4:	1e0040ef          	jal	d7a4 <__adddf3>
    95c8:	04012f03          	lw	t5,64(sp)
    95cc:	fcc00737          	lui	a4,0xfcc00
    95d0:	00050b13          	mv	s6,a0
    95d4:	00b70a33          	add	s4,a4,a1
    95d8:	0000b697          	auipc	a3,0xb
    95dc:	24868693          	add	a3,a3,584 # 14820 <__clz_tab+0x150>
    95e0:	0006a603          	lw	a2,0(a3)
    95e4:	02812503          	lw	a0,40(sp)
    95e8:	0046a683          	lw	a3,4(a3)
    95ec:	03812583          	lw	a1,56(sp)
    95f0:	05e12023          	sw	t5,64(sp)
    95f4:	371050ef          	jal	f164 <__subdf3>
    95f8:	000b0613          	mv	a2,s6
    95fc:	000a0693          	mv	a3,s4
    9600:	00050493          	mv	s1,a0
    9604:	00058413          	mv	s0,a1
    9608:	27c050ef          	jal	e884 <__gedf2>
    960c:	04012f03          	lw	t5,64(sp)
    9610:	44a04c63          	bgtz	a0,9a68 <__gdtoa+0x196c>
    9614:	800008b7          	lui	a7,0x80000
    9618:	0148c8b3          	xor	a7,a7,s4
    961c:	000b0613          	mv	a2,s6
    9620:	00048513          	mv	a0,s1
    9624:	00088693          	mv	a3,a7
    9628:	00040593          	mv	a1,s0
    962c:	358050ef          	jal	e984 <__ledf2>
    9630:	04012f03          	lw	t5,64(sp)
    9634:	d80542e3          	bltz	a0,93b8 <__gdtoa+0x12bc>
    9638:	02812783          	lw	a5,40(sp)
    963c:	0000b317          	auipc	t1,0xb
    9640:	cac30313          	add	t1,t1,-852 # 142e8 <__mprec_tens>
    9644:	04f12423          	sw	a5,72(sp)
    9648:	03812783          	lw	a5,56(sp)
    964c:	04f12023          	sw	a5,64(sp)
    9650:	02012783          	lw	a5,32(sp)
    9654:	5207c063          	bltz	a5,9b74 <__gdtoa+0x1a78>
    9658:	01412783          	lw	a5,20(sp)
    965c:	02012423          	sw	zero,40(sp)
    9660:	00032d03          	lw	s10,0(t1)
    9664:	00432d83          	lw	s11,4(t1)
    9668:	fa07d263          	bgez	a5,8e0c <__gdtoa+0xd10>
    966c:	01c12783          	lw	a5,28(sp)
    9670:	f8079e63          	bnez	a5,8e0c <__gdtoa+0xd10>
    9674:	d09ff06f          	j	937c <__gdtoa+0x1280>
    9678:	00c12583          	lw	a1,12(sp)
    967c:	00012503          	lw	a0,0(sp)
    9680:	00100613          	li	a2,1
    9684:	01e12a23          	sw	t5,20(sp)
    9688:	00612823          	sw	t1,16(sp)
    968c:	474010ef          	jal	ab00 <__lshift>
    9690:	00a12623          	sw	a0,12(sp)
    9694:	ae050063          	beqz	a0,8974 <__gdtoa+0x878>
    9698:	01012303          	lw	t1,16(sp)
    969c:	00030593          	mv	a1,t1
    96a0:	5f0010ef          	jal	ac90 <__mcmp>
    96a4:	01012303          	lw	t1,16(sp)
    96a8:	01412f03          	lw	t5,20(sp)
    96ac:	dea040e3          	bgtz	a0,948c <__gdtoa+0x1390>
    96b0:	00051663          	bnez	a0,96bc <__gdtoa+0x15c0>
    96b4:	001cf793          	and	a5,s9,1
    96b8:	dc079ae3          	bnez	a5,948c <__gdtoa+0x1390>
    96bc:	00c12783          	lw	a5,12(sp)
    96c0:	01000c13          	li	s8,16
    96c4:	0107a683          	lw	a3,16(a5)
    96c8:	00100793          	li	a5,1
    96cc:	b2d7cce3          	blt	a5,a3,9204 <__gdtoa+0x1108>
    96d0:	00c12783          	lw	a5,12(sp)
    96d4:	0147a783          	lw	a5,20(a5)
    96d8:	b25ff06f          	j	91fc <__gdtoa+0x1100>
    96dc:	03012783          	lw	a5,48(sp)
    96e0:	02000c13          	li	s8,32
    96e4:	00178793          	add	a5,a5,1
    96e8:	02f12823          	sw	a5,48(sp)
    96ec:	03100793          	li	a5,49
    96f0:	00ff0023          	sb	a5,0(t5)
    96f4:	981ff06f          	j	9074 <__gdtoa+0xf78>
    96f8:	02812783          	lw	a5,40(sp)
    96fc:	00912623          	sw	s1,12(sp)
    9700:	01012f03          	lw	t5,16(sp)
    9704:	01412903          	lw	s2,20(sp)
    9708:	000c0313          	mv	t1,s8
    970c:	02078263          	beqz	a5,9730 <__gdtoa+0x1634>
    9710:	00c12783          	lw	a5,12(sp)
    9714:	00100693          	li	a3,1
    9718:	0107a603          	lw	a2,16(a5)
    971c:	00c6d463          	bge	a3,a2,9724 <__gdtoa+0x1628>
    9720:	8c8ff06f          	j	87e8 <__gdtoa+0x6ec>
    9724:	0147a683          	lw	a3,20(a5)
    9728:	00068463          	beqz	a3,9730 <__gdtoa+0x1634>
    972c:	8bcff06f          	j	87e8 <__gdtoa+0x6ec>
    9730:	00c12583          	lw	a1,12(sp)
    9734:	00012503          	lw	a0,0(sp)
    9738:	00100613          	li	a2,1
    973c:	01e12a23          	sw	t5,20(sp)
    9740:	00612823          	sw	t1,16(sp)
    9744:	3bc010ef          	jal	ab00 <__lshift>
    9748:	00a12623          	sw	a0,12(sp)
    974c:	a2050463          	beqz	a0,8974 <__gdtoa+0x878>
    9750:	01012303          	lw	t1,16(sp)
    9754:	00030593          	mv	a1,t1
    9758:	538010ef          	jal	ac90 <__mcmp>
    975c:	01012303          	lw	t1,16(sp)
    9760:	01412f03          	lw	t5,20(sp)
    9764:	4ea05c63          	blez	a0,9c5c <__gdtoa+0x1b60>
    9768:	03900693          	li	a3,57
    976c:	d0dc82e3          	beq	s9,a3,9470 <__gdtoa+0x1374>
    9770:	02000793          	li	a5,32
    9774:	031b8c93          	add	s9,s7,49
    9778:	02f12423          	sw	a5,40(sp)
    977c:	8d1ff06f          	j	904c <__gdtoa+0xf50>
    9780:	000a8613          	mv	a2,s5
    9784:	000c0693          	mv	a3,s8
    9788:	01e12a23          	sw	t5,20(sp)
    978c:	018040ef          	jal	d7a4 <__adddf3>
    9790:	fffb4703          	lbu	a4,-1(s6)
    9794:	000d0613          	mv	a2,s10
    9798:	000d8693          	mv	a3,s11
    979c:	00e12823          	sw	a4,16(sp)
    97a0:	00050a93          	mv	s5,a0
    97a4:	00058a13          	mv	s4,a1
    97a8:	0dc050ef          	jal	e884 <__gedf2>
    97ac:	01012703          	lw	a4,16(sp)
    97b0:	01412f03          	lw	t5,20(sp)
    97b4:	d8a04063          	bgtz	a0,8d34 <__gdtoa+0xc38>
    97b8:	000a8513          	mv	a0,s5
    97bc:	000a0593          	mv	a1,s4
    97c0:	000d0613          	mv	a2,s10
    97c4:	000d8693          	mv	a3,s11
    97c8:	030050ef          	jal	e7f8 <__eqdf2>
    97cc:	01412f03          	lw	t5,20(sp)
    97d0:	2e051863          	bnez	a0,9ac0 <__gdtoa+0x19c4>
    97d4:	0019f993          	and	s3,s3,1
    97d8:	2e098463          	beqz	s3,9ac0 <__gdtoa+0x19c4>
    97dc:	01012703          	lw	a4,16(sp)
    97e0:	d54ff06f          	j	8d34 <__gdtoa+0xc38>
    97e4:	03100693          	li	a3,49
    97e8:	00140413          	add	s0,s0,1
    97ec:	d6cff06f          	j	8d58 <__gdtoa+0xc5c>
    97f0:	000b0513          	mv	a0,s6
    97f4:	000a0593          	mv	a1,s4
    97f8:	06612623          	sw	t1,108(sp)
    97fc:	07e12023          	sw	t5,96(sp)
    9800:	28c050ef          	jal	ea8c <__muldf3>
    9804:	04812603          	lw	a2,72(sp)
    9808:	04012683          	lw	a3,64(sp)
    980c:	06012f03          	lw	t5,96(sp)
    9810:	06c12303          	lw	t1,108(sp)
    9814:	00060a93          	mv	s5,a2
    9818:	04b12e23          	sw	a1,92(sp)
    981c:	04c12023          	sw	a2,64(sp)
    9820:	00100593          	li	a1,1
    9824:	00000613          	li	a2,0
    9828:	07312223          	sw	s3,100(sp)
    982c:	07212423          	sw	s2,104(sp)
    9830:	04a12c23          	sw	a0,88(sp)
    9834:	05012903          	lw	s2,80(sp)
    9838:	06b12e23          	sw	a1,124(sp)
    983c:	04d12423          	sw	a3,72(sp)
    9840:	00068a13          	mv	s4,a3
    9844:	000f0b13          	mv	s6,t5
    9848:	0000b497          	auipc	s1,0xb
    984c:	fc048493          	add	s1,s1,-64 # 14808 <__clz_tab+0x138>
    9850:	00060413          	mv	s0,a2
    9854:	04612823          	sw	t1,80(sp)
    9858:	000a8993          	mv	s3,s5
    985c:	0200006f          	j	987c <__gdtoa+0x1780>
    9860:	0004a603          	lw	a2,0(s1)
    9864:	0044a683          	lw	a3,4(s1)
    9868:	06612e23          	sw	t1,124(sp)
    986c:	00100413          	li	s0,1
    9870:	21c050ef          	jal	ea8c <__muldf3>
    9874:	00050993          	mv	s3,a0
    9878:	00058a13          	mv	s4,a1
    987c:	00098513          	mv	a0,s3
    9880:	000a0593          	mv	a1,s4
    9884:	1e8060ef          	jal	fa6c <__fixdfsi>
    9888:	00050a93          	mv	s5,a0
    988c:	02050463          	beqz	a0,98b4 <__gdtoa+0x17b8>
    9890:	260060ef          	jal	faf0 <__floatsidf>
    9894:	00050613          	mv	a2,a0
    9898:	00058693          	mv	a3,a1
    989c:	00098513          	mv	a0,s3
    98a0:	000a0593          	mv	a1,s4
    98a4:	0c1050ef          	jal	f164 <__subdf3>
    98a8:	00050993          	mv	s3,a0
    98ac:	00058a13          	mv	s4,a1
    98b0:	00100413          	li	s0,1
    98b4:	030a8793          	add	a5,s5,48
    98b8:	0ff7f713          	zext.b	a4,a5
    98bc:	00eb0023          	sb	a4,0(s6)
    98c0:	07c12783          	lw	a5,124(sp)
    98c4:	001b0b13          	add	s6,s6,1
    98c8:	00098513          	mv	a0,s3
    98cc:	000a0593          	mv	a1,s4
    98d0:	00178313          	add	t1,a5,1
    98d4:	f92796e3          	bne	a5,s2,9860 <__gdtoa+0x1764>
    98d8:	06012f03          	lw	t5,96(sp)
    98dc:	06812903          	lw	s2,104(sp)
    98e0:	05012303          	lw	t1,80(sp)
    98e4:	06412983          	lw	s3,100(sp)
    98e8:	00040663          	beqz	s0,98f4 <__gdtoa+0x17f8>
    98ec:	04a12023          	sw	a0,64(sp)
    98f0:	05412423          	sw	s4,72(sp)
    98f4:	0000ba17          	auipc	s4,0xb
    98f8:	f34a0a13          	add	s4,s4,-204 # 14828 <__clz_tab+0x158>
    98fc:	05c12a83          	lw	s5,92(sp)
    9900:	000a2603          	lw	a2,0(s4)
    9904:	004a2683          	lw	a3,4(s4)
    9908:	05812503          	lw	a0,88(sp)
    990c:	000a8593          	mv	a1,s5
    9910:	07e12023          	sw	t5,96(sp)
    9914:	04e12823          	sw	a4,80(sp)
    9918:	06612223          	sw	t1,100(sp)
    991c:	689030ef          	jal	d7a4 <__adddf3>
    9920:	04012483          	lw	s1,64(sp)
    9924:	04812403          	lw	s0,72(sp)
    9928:	00048613          	mv	a2,s1
    992c:	00040693          	mv	a3,s0
    9930:	054050ef          	jal	e984 <__ledf2>
    9934:	05012703          	lw	a4,80(sp)
    9938:	06012f03          	lw	t5,96(sp)
    993c:	22054663          	bltz	a0,9b68 <__gdtoa+0x1a6c>
    9940:	05812603          	lw	a2,88(sp)
    9944:	000a2503          	lw	a0,0(s4)
    9948:	004a2583          	lw	a1,4(s4)
    994c:	000a8693          	mv	a3,s5
    9950:	05e12823          	sw	t5,80(sp)
    9954:	011050ef          	jal	f164 <__subdf3>
    9958:	00048613          	mv	a2,s1
    995c:	00040693          	mv	a3,s0
    9960:	725040ef          	jal	e884 <__gedf2>
    9964:	05012f03          	lw	t5,80(sp)
    9968:	06412303          	lw	t1,100(sp)
    996c:	2aa04663          	bgtz	a0,9c18 <__gdtoa+0x1b1c>
    9970:	02812783          	lw	a5,40(sp)
    9974:	04f12423          	sw	a5,72(sp)
    9978:	03812783          	lw	a5,56(sp)
    997c:	04f12023          	sw	a5,64(sp)
    9980:	02012783          	lw	a5,32(sp)
    9984:	cc07dae3          	bgez	a5,9658 <__gdtoa+0x155c>
    9988:	02c12483          	lw	s1,44(sp)
    998c:	02412a83          	lw	s5,36(sp)
    9990:	02012423          	sw	zero,40(sp)
    9994:	00000a13          	li	s4,0
    9998:	bddfe06f          	j	8574 <__gdtoa+0x478>
    999c:	000a0413          	mv	s0,s4
    99a0:	01012f03          	lw	t5,16(sp)
    99a4:	01412903          	lw	s2,20(sp)
    99a8:	00912623          	sw	s1,12(sp)
    99ac:	000c0313          	mv	t1,s8
    99b0:	000a8a13          	mv	s4,s5
    99b4:	821ff06f          	j	91d4 <__gdtoa+0x10d8>
    99b8:	fffb4703          	lbu	a4,-1(s6)
    99bc:	b78ff06f          	j	8d34 <__gdtoa+0xc38>
    99c0:	bc048ee3          	beqz	s1,959c <__gdtoa+0x14a0>
    99c4:	04c12483          	lw	s1,76(sp)
    99c8:	c69058e3          	blez	s1,9638 <__gdtoa+0x153c>
    99cc:	0000b697          	auipc	a3,0xb
    99d0:	e3c68693          	add	a3,a3,-452 # 14808 <__clz_tab+0x138>
    99d4:	0006a603          	lw	a2,0(a3)
    99d8:	0046a683          	lw	a3,4(a3)
    99dc:	000a0593          	mv	a1,s4
    99e0:	00040513          	mv	a0,s0
    99e4:	07e12023          	sw	t5,96(sp)
    99e8:	0a4050ef          	jal	ea8c <__muldf3>
    99ec:	0000b697          	auipc	a3,0xb
    99f0:	e2468693          	add	a3,a3,-476 # 14810 <__clz_tab+0x140>
    99f4:	0006a603          	lw	a2,0(a3)
    99f8:	0046a683          	lw	a3,4(a3)
    99fc:	04a12423          	sw	a0,72(sp)
    9a00:	04a12e23          	sw	a0,92(sp)
    9a04:	04b12023          	sw	a1,64(sp)
    9a08:	04b12c23          	sw	a1,88(sp)
    9a0c:	080050ef          	jal	ea8c <__muldf3>
    9a10:	0000b697          	auipc	a3,0xb
    9a14:	e0868693          	add	a3,a3,-504 # 14818 <__clz_tab+0x148>
    9a18:	0006a603          	lw	a2,0(a3)
    9a1c:	0046a683          	lw	a3,4(a3)
    9a20:	585030ef          	jal	d7a4 <__adddf3>
    9a24:	fcc00737          	lui	a4,0xfcc00
    9a28:	fff00793          	li	a5,-1
    9a2c:	05812803          	lw	a6,88(sp)
    9a30:	05c12e83          	lw	t4,92(sp)
    9a34:	06012f03          	lw	t5,96(sp)
    9a38:	00050b13          	mv	s6,a0
    9a3c:	00b70a33          	add	s4,a4,a1
    9a40:	04912823          	sw	s1,80(sp)
    9a44:	04f12a23          	sw	a5,84(sp)
    9a48:	8f0ff06f          	j	8b38 <__gdtoa+0xa3c>
    9a4c:	02412703          	lw	a4,36(sp)
    9a50:	06f12e23          	sw	a5,124(sp)
    9a54:	00fb8bb3          	add	s7,s7,a5
    9a58:	00f707b3          	add	a5,a4,a5
    9a5c:	00070a93          	mv	s5,a4
    9a60:	02f12223          	sw	a5,36(sp)
    9a64:	af5fe06f          	j	8558 <__gdtoa+0x45c>
    9a68:	00200493          	li	s1,2
    9a6c:	00000593          	li	a1,0
    9a70:	00000a13          	li	s4,0
    9a74:	82dff06f          	j	92a0 <__gdtoa+0x11a4>
    9a78:	00912623          	sw	s1,12(sp)
    9a7c:	03900693          	li	a3,57
    9a80:	01012f03          	lw	t5,16(sp)
    9a84:	01412903          	lw	s2,20(sp)
    9a88:	000c0313          	mv	t1,s8
    9a8c:	9edc82e3          	beq	s9,a3,9470 <__gdtoa+0x1374>
    9a90:	001c8793          	add	a5,s9,1
    9a94:	000a0413          	mv	s0,s4
    9a98:	001d8b13          	add	s6,s11,1
    9a9c:	00fd8023          	sb	a5,0(s11)
    9aa0:	000a8a13          	mv	s4,s5
    9aa4:	02000c13          	li	s8,32
    9aa8:	dccff06f          	j	9074 <__gdtoa+0xf78>
    9aac:	03012783          	lw	a5,48(sp)
    9ab0:	00000593          	li	a1,0
    9ab4:	00000a13          	li	s4,0
    9ab8:	00278493          	add	s1,a5,2
    9abc:	fe4ff06f          	j	92a0 <__gdtoa+0x11a4>
    9ac0:	000b0793          	mv	a5,s6
    9ac4:	01000c13          	li	s8,16
    9ac8:	03000613          	li	a2,48
    9acc:	fff7c703          	lbu	a4,-1(a5)
    9ad0:	00078b13          	mv	s6,a5
    9ad4:	fff78793          	add	a5,a5,-1
    9ad8:	fec70ae3          	beq	a4,a2,9acc <__gdtoa+0x19d0>
    9adc:	00040493          	mv	s1,s0
    9ae0:	c7cff06f          	j	8f5c <__gdtoa+0xe60>
    9ae4:	00012503          	lw	a0,0(sp)
    9ae8:	000a0593          	mv	a1,s4
    9aec:	00000693          	li	a3,0
    9af0:	00a00613          	li	a2,10
    9af4:	7fc000ef          	jal	a2f0 <__multadd>
    9af8:	00050a13          	mv	s4,a0
    9afc:	00051463          	bnez	a0,9b04 <__gdtoa+0x1a08>
    9b00:	e75fe06f          	j	8974 <__gdtoa+0x878>
    9b04:	04c12783          	lw	a5,76(sp)
    9b08:	01012303          	lw	t1,16(sp)
    9b0c:	01c12f03          	lw	t5,28(sp)
    9b10:	00f05663          	blez	a5,9b1c <__gdtoa+0x1a20>
    9b14:	00f12e23          	sw	a5,28(sp)
    9b18:	b2dfe06f          	j	8644 <__gdtoa+0x548>
    9b1c:	00200793          	li	a5,2
    9b20:	15a7ca63          	blt	a5,s10,9c74 <__gdtoa+0x1b78>
    9b24:	04c12783          	lw	a5,76(sp)
    9b28:	00f12e23          	sw	a5,28(sp)
    9b2c:	b19fe06f          	j	8644 <__gdtoa+0x548>
    9b30:	04812f03          	lw	t5,72(sp)
    9b34:	05012903          	lw	s2,80(sp)
    9b38:	00048513          	mv	a0,s1
    9b3c:	000a0593          	mv	a1,s4
    9b40:	00000613          	li	a2,0
    9b44:	00000693          	li	a3,0
    9b48:	01e12823          	sw	t5,16(sp)
    9b4c:	4ad040ef          	jal	e7f8 <__eqdf2>
    9b50:	00a037b3          	snez	a5,a0
    9b54:	00479c13          	sll	s8,a5,0x4
    9b58:	05412783          	lw	a5,84(sp)
    9b5c:	01012f03          	lw	t5,16(sp)
    9b60:	00178493          	add	s1,a5,1
    9b64:	bf8ff06f          	j	8f5c <__gdtoa+0xe60>
    9b68:	05412783          	lw	a5,84(sp)
    9b6c:	00178413          	add	s0,a5,1
    9b70:	9c4ff06f          	j	8d34 <__gdtoa+0xc38>
    9b74:	02012423          	sw	zero,40(sp)
    9b78:	971fe06f          	j	84e8 <__gdtoa+0x3ec>
    9b7c:	01c12783          	lw	a5,28(sp)
    9b80:	02c12703          	lw	a4,44(sp)
    9b84:	fff78693          	add	a3,a5,-1
    9b88:	84d746e3          	blt	a4,a3,93d4 <__gdtoa+0x12d8>
    9b8c:	02412603          	lw	a2,36(sp)
    9b90:	00fb8bb3          	add	s7,s7,a5
    9b94:	06f12e23          	sw	a5,124(sp)
    9b98:	00f607b3          	add	a5,a2,a5
    9b9c:	00060a93          	mv	s5,a2
    9ba0:	40d704b3          	sub	s1,a4,a3
    9ba4:	02f12223          	sw	a5,36(sp)
    9ba8:	9b1fe06f          	j	8558 <__gdtoa+0x45c>
    9bac:	02812783          	lw	a5,40(sp)
    9bb0:	04812f03          	lw	t5,72(sp)
    9bb4:	06012b83          	lw	s7,96(sp)
    9bb8:	04f12423          	sw	a5,72(sp)
    9bbc:	03812783          	lw	a5,56(sp)
    9bc0:	06412a83          	lw	s5,100(sp)
    9bc4:	05012903          	lw	s2,80(sp)
    9bc8:	04f12023          	sw	a5,64(sp)
    9bcc:	02012783          	lw	a5,32(sp)
    9bd0:	06812303          	lw	t1,104(sp)
    9bd4:	a807d2e3          	bgez	a5,9658 <__gdtoa+0x155c>
    9bd8:	02012423          	sw	zero,40(sp)
    9bdc:	915fe06f          	j	84f0 <__gdtoa+0x3f4>
    9be0:	00912623          	sw	s1,12(sp)
    9be4:	03900693          	li	a3,57
    9be8:	01012f03          	lw	t5,16(sp)
    9bec:	01412903          	lw	s2,20(sp)
    9bf0:	000c0313          	mv	t1,s8
    9bf4:	86dc8ee3          	beq	s9,a3,9470 <__gdtoa+0x1374>
    9bf8:	0f605663          	blez	s6,9ce4 <__gdtoa+0x1be8>
    9bfc:	031b8c93          	add	s9,s7,49
    9c00:	02000c13          	li	s8,32
    9c04:	000a0413          	mv	s0,s4
    9c08:	001d8b13          	add	s6,s11,1
    9c0c:	019d8023          	sb	s9,0(s11)
    9c10:	000a8a13          	mv	s4,s5
    9c14:	c60ff06f          	j	9074 <__gdtoa+0xf78>
    9c18:	00040593          	mv	a1,s0
    9c1c:	00048513          	mv	a0,s1
    9c20:	00000613          	li	a2,0
    9c24:	00000693          	li	a3,0
    9c28:	01e12823          	sw	t5,16(sp)
    9c2c:	3cd040ef          	jal	e7f8 <__eqdf2>
    9c30:	05412703          	lw	a4,84(sp)
    9c34:	00a037b3          	snez	a5,a0
    9c38:	00479c13          	sll	s8,a5,0x4
    9c3c:	01012f03          	lw	t5,16(sp)
    9c40:	000b0793          	mv	a5,s6
    9c44:	00170413          	add	s0,a4,1 # fcc00001 <__alt_data_end+0xfcbe0001>
    9c48:	e81ff06f          	j	9ac8 <__gdtoa+0x19cc>
    9c4c:	0147a683          	lw	a3,20(a5)
    9c50:	c0069a63          	bnez	a3,9064 <__gdtoa+0xf68>
    9c54:	02812c03          	lw	s8,40(sp)
    9c58:	c0cff06f          	j	9064 <__gdtoa+0xf68>
    9c5c:	00051663          	bnez	a0,9c68 <__gdtoa+0x1b6c>
    9c60:	001cf693          	and	a3,s9,1
    9c64:	b00692e3          	bnez	a3,9768 <__gdtoa+0x166c>
    9c68:	02000793          	li	a5,32
    9c6c:	02f12423          	sw	a5,40(sp)
    9c70:	bdcff06f          	j	904c <__gdtoa+0xf50>
    9c74:	04c12783          	lw	a5,76(sp)
    9c78:	00f12e23          	sw	a5,28(sp)
    9c7c:	dd4ff06f          	j	9250 <__gdtoa+0x1154>
    9c80:	00912623          	sw	s1,12(sp)
    9c84:	03900693          	li	a3,57
    9c88:	000b0313          	mv	t1,s6
    9c8c:	000c0f13          	mv	t5,s8
    9c90:	00dc8e63          	beq	s9,a3,9cac <__gdtoa+0x1bb0>
    9c94:	001c8c93          	add	s9,s9,1
    9c98:	02000c13          	li	s8,32
    9c9c:	bc8ff06f          	j	9064 <__gdtoa+0xf68>
    9ca0:	01000c13          	li	s8,16
    9ca4:	001d8993          	add	s3,s11,1
    9ca8:	bbcff06f          	j	9064 <__gdtoa+0xf68>
    9cac:	000a0413          	mv	s0,s4
    9cb0:	000d8793          	mv	a5,s11
    9cb4:	000a8a13          	mv	s4,s5
    9cb8:	fc8ff06f          	j	9480 <__gdtoa+0x1384>
    9cbc:	0104a603          	lw	a2,16(s1)
    9cc0:	00100693          	li	a3,1
    9cc4:	00048793          	mv	a5,s1
    9cc8:	00c6d463          	bge	a3,a2,9cd0 <__gdtoa+0x1bd4>
    9ccc:	b1dfe06f          	j	87e8 <__gdtoa+0x6ec>
    9cd0:	0147a683          	lw	a3,20(a5)
    9cd4:	00068463          	beqz	a3,9cdc <__gdtoa+0x1be0>
    9cd8:	b11fe06f          	j	87e8 <__gdtoa+0x6ec>
    9cdc:	001d8993          	add	s3,s11,1
    9ce0:	b84ff06f          	j	9064 <__gdtoa+0xf68>
    9ce4:	00c12783          	lw	a5,12(sp)
    9ce8:	00100693          	li	a3,1
    9cec:	01000c13          	li	s8,16
    9cf0:	0107a603          	lw	a2,16(a5)
    9cf4:	f0c6c8e3          	blt	a3,a2,9c04 <__gdtoa+0x1b08>
    9cf8:	0147a683          	lw	a3,20(a5)
    9cfc:	00d036b3          	snez	a3,a3
    9d00:	00469c13          	sll	s8,a3,0x4
    9d04:	f01ff06f          	j	9c04 <__gdtoa+0x1b08>
    9d08:	020b4263          	bltz	s6,9d2c <__gdtoa+0x1c30>
    9d0c:	016d6b33          	or	s6,s10,s6
    9d10:	000b1863          	bnez	s6,9d20 <__gdtoa+0x1c24>
    9d14:	0009a783          	lw	a5,0(s3)
    9d18:	0017f793          	and	a5,a5,1
    9d1c:	00078863          	beqz	a5,9d2c <__gdtoa+0x1c30>
    9d20:	00d04463          	bgtz	a3,9d28 <__gdtoa+0x1c2c>
    9d24:	991fe06f          	j	86b4 <__gdtoa+0x5b8>
    9d28:	981fe06f          	j	86a8 <__gdtoa+0x5ac>
    9d2c:	02812703          	lw	a4,40(sp)
    9d30:	00912623          	sw	s1,12(sp)
    9d34:	01012f03          	lw	t5,16(sp)
    9d38:	01412903          	lw	s2,20(sp)
    9d3c:	000c0313          	mv	t1,s8
    9d40:	02070863          	beqz	a4,9d70 <__gdtoa+0x1c74>
    9d44:	0104a583          	lw	a1,16(s1)
    9d48:	00100613          	li	a2,1
    9d4c:	00b65463          	bge	a2,a1,9d54 <__gdtoa+0x1c58>
    9d50:	a99fe06f          	j	87e8 <__gdtoa+0x6ec>
    9d54:	0144a603          	lw	a2,20(s1)
    9d58:	00060463          	beqz	a2,9d60 <__gdtoa+0x1c64>
    9d5c:	a8dfe06f          	j	87e8 <__gdtoa+0x6ec>
    9d60:	9cd048e3          	bgtz	a3,9730 <__gdtoa+0x1634>
    9d64:	00000c13          	li	s8,0
    9d68:	001d8993          	add	s3,s11,1
    9d6c:	af8ff06f          	j	9064 <__gdtoa+0xf68>
    9d70:	acd05e63          	blez	a3,904c <__gdtoa+0xf50>
    9d74:	9bdff06f          	j	9730 <__gdtoa+0x1634>

00009d78 <__rv_alloc_D2A.part.0>:
    9d78:	ff010113          	add	sp,sp,-16
    9d7c:	0000a697          	auipc	a3,0xa
    9d80:	1b868693          	add	a3,a3,440 # 13f34 <__flash_rodata_start+0x94>
    9d84:	00000613          	li	a2,0
    9d88:	03900593          	li	a1,57
    9d8c:	0000a517          	auipc	a0,0xa
    9d90:	1bc50513          	add	a0,a0,444 # 13f48 <__flash_rodata_start+0xa8>
    9d94:	00112623          	sw	ra,12(sp)
    9d98:	695010ef          	jal	bc2c <__assert_func>

00009d9c <__rv_alloc_D2A>:
    9d9c:	ff010113          	add	sp,sp,-16
    9da0:	00812423          	sw	s0,8(sp)
    9da4:	00112623          	sw	ra,12(sp)
    9da8:	01700693          	li	a3,23
    9dac:	00050413          	mv	s0,a0
    9db0:	00100713          	li	a4,1
    9db4:	00400793          	li	a5,4
    9db8:	04b6f063          	bgeu	a3,a1,9df8 <__rv_alloc_D2A+0x5c>
    9dbc:	00179793          	sll	a5,a5,0x1
    9dc0:	01478693          	add	a3,a5,20
    9dc4:	00070613          	mv	a2,a4
    9dc8:	00170713          	add	a4,a4,1
    9dcc:	fed5f8e3          	bgeu	a1,a3,9dbc <__rv_alloc_D2A+0x20>
    9dd0:	00060593          	mv	a1,a2
    9dd4:	02c42e23          	sw	a2,60(s0)
    9dd8:	00040513          	mv	a0,s0
    9ddc:	43c000ef          	jal	a218 <_Balloc>
    9de0:	02050263          	beqz	a0,9e04 <__rv_alloc_D2A+0x68>
    9de4:	00c12083          	lw	ra,12(sp)
    9de8:	02a42c23          	sw	a0,56(s0)
    9dec:	00812403          	lw	s0,8(sp)
    9df0:	01010113          	add	sp,sp,16
    9df4:	00008067          	ret
    9df8:	02052e23          	sw	zero,60(a0)
    9dfc:	00000593          	li	a1,0
    9e00:	fd9ff06f          	j	9dd8 <__rv_alloc_D2A+0x3c>
    9e04:	f75ff0ef          	jal	9d78 <__rv_alloc_D2A.part.0>

00009e08 <__nrv_alloc_D2A>:
    9e08:	ff010113          	add	sp,sp,-16
    9e0c:	00812423          	sw	s0,8(sp)
    9e10:	00912223          	sw	s1,4(sp)
    9e14:	01212023          	sw	s2,0(sp)
    9e18:	00112623          	sw	ra,12(sp)
    9e1c:	01700813          	li	a6,23
    9e20:	00050493          	mv	s1,a0
    9e24:	00058413          	mv	s0,a1
    9e28:	00060913          	mv	s2,a2
    9e2c:	00100713          	li	a4,1
    9e30:	00400793          	li	a5,4
    9e34:	06d87a63          	bgeu	a6,a3,9ea8 <__nrv_alloc_D2A+0xa0>
    9e38:	00179793          	sll	a5,a5,0x1
    9e3c:	01478813          	add	a6,a5,20
    9e40:	00070593          	mv	a1,a4
    9e44:	00170713          	add	a4,a4,1
    9e48:	ff06f8e3          	bgeu	a3,a6,9e38 <__nrv_alloc_D2A+0x30>
    9e4c:	02b4ae23          	sw	a1,60(s1)
    9e50:	00048513          	mv	a0,s1
    9e54:	3c4000ef          	jal	a218 <_Balloc>
    9e58:	06050263          	beqz	a0,9ebc <__nrv_alloc_D2A+0xb4>
    9e5c:	02a4ac23          	sw	a0,56(s1)
    9e60:	00044783          	lbu	a5,0(s0)
    9e64:	00140593          	add	a1,s0,1
    9e68:	00f50023          	sb	a5,0(a0)
    9e6c:	04078463          	beqz	a5,9eb4 <__nrv_alloc_D2A+0xac>
    9e70:	00050793          	mv	a5,a0
    9e74:	0005c703          	lbu	a4,0(a1)
    9e78:	00178793          	add	a5,a5,1
    9e7c:	00158593          	add	a1,a1,1
    9e80:	00e78023          	sb	a4,0(a5)
    9e84:	fe0718e3          	bnez	a4,9e74 <__nrv_alloc_D2A+0x6c>
    9e88:	00090463          	beqz	s2,9e90 <__nrv_alloc_D2A+0x88>
    9e8c:	00f92023          	sw	a5,0(s2)
    9e90:	00c12083          	lw	ra,12(sp)
    9e94:	00812403          	lw	s0,8(sp)
    9e98:	00412483          	lw	s1,4(sp)
    9e9c:	00012903          	lw	s2,0(sp)
    9ea0:	01010113          	add	sp,sp,16
    9ea4:	00008067          	ret
    9ea8:	02052e23          	sw	zero,60(a0)
    9eac:	00000593          	li	a1,0
    9eb0:	fa1ff06f          	j	9e50 <__nrv_alloc_D2A+0x48>
    9eb4:	00050793          	mv	a5,a0
    9eb8:	fd1ff06f          	j	9e88 <__nrv_alloc_D2A+0x80>
    9ebc:	ebdff0ef          	jal	9d78 <__rv_alloc_D2A.part.0>

00009ec0 <__freedtoa>:
    9ec0:	03c52683          	lw	a3,60(a0)
    9ec4:	00100713          	li	a4,1
    9ec8:	00d71733          	sll	a4,a4,a3
    9ecc:	00d5a223          	sw	a3,4(a1)
    9ed0:	00e5a423          	sw	a4,8(a1)
    9ed4:	3f80006f          	j	a2cc <_Bfree>

00009ed8 <__quorem_D2A>:
    9ed8:	fe010113          	add	sp,sp,-32
    9edc:	00912a23          	sw	s1,20(sp)
    9ee0:	01052783          	lw	a5,16(a0)
    9ee4:	0105a483          	lw	s1,16(a1)
    9ee8:	00112e23          	sw	ra,28(sp)
    9eec:	1c97c863          	blt	a5,s1,a0bc <__quorem_D2A+0x1e4>
    9ef0:	fff48493          	add	s1,s1,-1
    9ef4:	00249313          	sll	t1,s1,0x2
    9ef8:	00812c23          	sw	s0,24(sp)
    9efc:	01458413          	add	s0,a1,20
    9f00:	01312623          	sw	s3,12(sp)
    9f04:	01412423          	sw	s4,8(sp)
    9f08:	006409b3          	add	s3,s0,t1
    9f0c:	01450a13          	add	s4,a0,20
    9f10:	0009a783          	lw	a5,0(s3)
    9f14:	006a0333          	add	t1,s4,t1
    9f18:	00032703          	lw	a4,0(t1)
    9f1c:	01212823          	sw	s2,16(sp)
    9f20:	01512223          	sw	s5,4(sp)
    9f24:	00178793          	add	a5,a5,1
    9f28:	02f75933          	divu	s2,a4,a5
    9f2c:	00050a93          	mv	s5,a0
    9f30:	0af76e63          	bltu	a4,a5,9fec <__quorem_D2A+0x114>
    9f34:	00010537          	lui	a0,0x10
    9f38:	00040893          	mv	a7,s0
    9f3c:	000a0813          	mv	a6,s4
    9f40:	00000f13          	li	t5,0
    9f44:	00000e93          	li	t4,0
    9f48:	fff50513          	add	a0,a0,-1 # ffff <__multf3+0xc7>
    9f4c:	0008a783          	lw	a5,0(a7) # 80000000 <__alt_data_end+0x7ffe0000>
    9f50:	00082603          	lw	a2,0(a6)
    9f54:	00480813          	add	a6,a6,4
    9f58:	00a7f6b3          	and	a3,a5,a0
    9f5c:	0107d793          	srl	a5,a5,0x10
    9f60:	00a67733          	and	a4,a2,a0
    9f64:	01065e13          	srl	t3,a2,0x10
    9f68:	00488893          	add	a7,a7,4
    9f6c:	032686b3          	mul	a3,a3,s2
    9f70:	032787b3          	mul	a5,a5,s2
    9f74:	01e686b3          	add	a3,a3,t5
    9f78:	00a6f633          	and	a2,a3,a0
    9f7c:	40c70733          	sub	a4,a4,a2
    9f80:	41d70733          	sub	a4,a4,t4
    9f84:	0106d693          	srl	a3,a3,0x10
    9f88:	01075613          	srl	a2,a4,0x10
    9f8c:	00167613          	and	a2,a2,1
    9f90:	00a77733          	and	a4,a4,a0
    9f94:	00d787b3          	add	a5,a5,a3
    9f98:	00a7f6b3          	and	a3,a5,a0
    9f9c:	00d60633          	add	a2,a2,a3
    9fa0:	40ce06b3          	sub	a3,t3,a2
    9fa4:	01069613          	sll	a2,a3,0x10
    9fa8:	00e66733          	or	a4,a2,a4
    9fac:	0106d693          	srl	a3,a3,0x10
    9fb0:	fee82e23          	sw	a4,-4(a6)
    9fb4:	0107df13          	srl	t5,a5,0x10
    9fb8:	0016fe93          	and	t4,a3,1
    9fbc:	f919f8e3          	bgeu	s3,a7,9f4c <__quorem_D2A+0x74>
    9fc0:	00032783          	lw	a5,0(t1)
    9fc4:	02079463          	bnez	a5,9fec <__quorem_D2A+0x114>
    9fc8:	ffc30313          	add	t1,t1,-4
    9fcc:	006a6863          	bltu	s4,t1,9fdc <__quorem_D2A+0x104>
    9fd0:	0180006f          	j	9fe8 <__quorem_D2A+0x110>
    9fd4:	fff48493          	add	s1,s1,-1
    9fd8:	006a7863          	bgeu	s4,t1,9fe8 <__quorem_D2A+0x110>
    9fdc:	00032783          	lw	a5,0(t1)
    9fe0:	ffc30313          	add	t1,t1,-4
    9fe4:	fe0788e3          	beqz	a5,9fd4 <__quorem_D2A+0xfc>
    9fe8:	009aa823          	sw	s1,16(s5)
    9fec:	000a8513          	mv	a0,s5
    9ff0:	4a1000ef          	jal	ac90 <__mcmp>
    9ff4:	0a054063          	bltz	a0,a094 <__quorem_D2A+0x1bc>
    9ff8:	00010537          	lui	a0,0x10
    9ffc:	000a0593          	mv	a1,s4
    a000:	00000693          	li	a3,0
    a004:	fff50513          	add	a0,a0,-1 # ffff <__multf3+0xc7>
    a008:	0005a783          	lw	a5,0(a1)
    a00c:	00042603          	lw	a2,0(s0)
    a010:	00458593          	add	a1,a1,4
    a014:	00a7f733          	and	a4,a5,a0
    a018:	00a67833          	and	a6,a2,a0
    a01c:	41070733          	sub	a4,a4,a6
    a020:	40d70733          	sub	a4,a4,a3
    a024:	01075693          	srl	a3,a4,0x10
    a028:	0016f693          	and	a3,a3,1
    a02c:	01065613          	srl	a2,a2,0x10
    a030:	00c686b3          	add	a3,a3,a2
    a034:	0107d793          	srl	a5,a5,0x10
    a038:	40d787b3          	sub	a5,a5,a3
    a03c:	01079693          	sll	a3,a5,0x10
    a040:	00a77733          	and	a4,a4,a0
    a044:	00e6e733          	or	a4,a3,a4
    a048:	0107d793          	srl	a5,a5,0x10
    a04c:	00440413          	add	s0,s0,4
    a050:	fee5ae23          	sw	a4,-4(a1)
    a054:	0017f693          	and	a3,a5,1
    a058:	fa89f8e3          	bgeu	s3,s0,a008 <__quorem_D2A+0x130>
    a05c:	00249793          	sll	a5,s1,0x2
    a060:	00fa07b3          	add	a5,s4,a5
    a064:	0007a703          	lw	a4,0(a5)
    a068:	02071463          	bnez	a4,a090 <__quorem_D2A+0x1b8>
    a06c:	ffc78793          	add	a5,a5,-4
    a070:	00fa6863          	bltu	s4,a5,a080 <__quorem_D2A+0x1a8>
    a074:	0180006f          	j	a08c <__quorem_D2A+0x1b4>
    a078:	fff48493          	add	s1,s1,-1
    a07c:	00fa7863          	bgeu	s4,a5,a08c <__quorem_D2A+0x1b4>
    a080:	0007a703          	lw	a4,0(a5)
    a084:	ffc78793          	add	a5,a5,-4
    a088:	fe0708e3          	beqz	a4,a078 <__quorem_D2A+0x1a0>
    a08c:	009aa823          	sw	s1,16(s5)
    a090:	00190913          	add	s2,s2,1
    a094:	01812403          	lw	s0,24(sp)
    a098:	01c12083          	lw	ra,28(sp)
    a09c:	00c12983          	lw	s3,12(sp)
    a0a0:	00812a03          	lw	s4,8(sp)
    a0a4:	00412a83          	lw	s5,4(sp)
    a0a8:	01412483          	lw	s1,20(sp)
    a0ac:	00090513          	mv	a0,s2
    a0b0:	01012903          	lw	s2,16(sp)
    a0b4:	02010113          	add	sp,sp,32
    a0b8:	00008067          	ret
    a0bc:	01c12083          	lw	ra,28(sp)
    a0c0:	01412483          	lw	s1,20(sp)
    a0c4:	00000513          	li	a0,0
    a0c8:	02010113          	add	sp,sp,32
    a0cc:	00008067          	ret

0000a0d0 <__rshift_D2A>:
    a0d0:	01052803          	lw	a6,16(a0)
    a0d4:	4055de13          	sra	t3,a1,0x5
    a0d8:	010e4863          	blt	t3,a6,a0e8 <__rshift_D2A+0x18>
    a0dc:	00052823          	sw	zero,16(a0)
    a0e0:	00052a23          	sw	zero,20(a0)
    a0e4:	00008067          	ret
    a0e8:	01450313          	add	t1,a0,20
    a0ec:	00281613          	sll	a2,a6,0x2
    a0f0:	002e1793          	sll	a5,t3,0x2
    a0f4:	01f5f593          	and	a1,a1,31
    a0f8:	00c30633          	add	a2,t1,a2
    a0fc:	00f307b3          	add	a5,t1,a5
    a100:	06058263          	beqz	a1,a164 <__rshift_D2A+0x94>
    a104:	0007a683          	lw	a3,0(a5)
    a108:	02000e93          	li	t4,32
    a10c:	00478793          	add	a5,a5,4
    a110:	40be8eb3          	sub	t4,t4,a1
    a114:	00b6d6b3          	srl	a3,a3,a1
    a118:	08c7f463          	bgeu	a5,a2,a1a0 <__rshift_D2A+0xd0>
    a11c:	00030893          	mv	a7,t1
    a120:	0007a703          	lw	a4,0(a5)
    a124:	00488893          	add	a7,a7,4
    a128:	00478793          	add	a5,a5,4
    a12c:	01d71733          	sll	a4,a4,t4
    a130:	00d76733          	or	a4,a4,a3
    a134:	fee8ae23          	sw	a4,-4(a7)
    a138:	ffc7a683          	lw	a3,-4(a5)
    a13c:	00b6d6b3          	srl	a3,a3,a1
    a140:	fec7e0e3          	bltu	a5,a2,a120 <__rshift_D2A+0x50>
    a144:	41c80833          	sub	a6,a6,t3
    a148:	00281813          	sll	a6,a6,0x2
    a14c:	ffc80813          	add	a6,a6,-4
    a150:	01030833          	add	a6,t1,a6
    a154:	00d82023          	sw	a3,0(a6)
    a158:	02068a63          	beqz	a3,a18c <__rshift_D2A+0xbc>
    a15c:	00480813          	add	a6,a6,4
    a160:	02c0006f          	j	a18c <__rshift_D2A+0xbc>
    a164:	00030713          	mv	a4,t1
    a168:	f6c7fae3          	bgeu	a5,a2,a0dc <__rshift_D2A+0xc>
    a16c:	0007a683          	lw	a3,0(a5)
    a170:	00478793          	add	a5,a5,4
    a174:	00470713          	add	a4,a4,4
    a178:	fed72e23          	sw	a3,-4(a4)
    a17c:	fec7e8e3          	bltu	a5,a2,a16c <__rshift_D2A+0x9c>
    a180:	41c80833          	sub	a6,a6,t3
    a184:	00281813          	sll	a6,a6,0x2
    a188:	01030833          	add	a6,t1,a6
    a18c:	406807b3          	sub	a5,a6,t1
    a190:	4027d793          	sra	a5,a5,0x2
    a194:	00f52823          	sw	a5,16(a0)
    a198:	f46804e3          	beq	a6,t1,a0e0 <__rshift_D2A+0x10>
    a19c:	00008067          	ret
    a1a0:	00d52a23          	sw	a3,20(a0)
    a1a4:	f2068ce3          	beqz	a3,a0dc <__rshift_D2A+0xc>
    a1a8:	00030813          	mv	a6,t1
    a1ac:	00480813          	add	a6,a6,4
    a1b0:	fddff06f          	j	a18c <__rshift_D2A+0xbc>

0000a1b4 <__trailz_D2A>:
    a1b4:	01052703          	lw	a4,16(a0)
    a1b8:	fe010113          	add	sp,sp,-32
    a1bc:	01450513          	add	a0,a0,20
    a1c0:	00271713          	sll	a4,a4,0x2
    a1c4:	00812c23          	sw	s0,24(sp)
    a1c8:	00112e23          	sw	ra,28(sp)
    a1cc:	00e50733          	add	a4,a0,a4
    a1d0:	00000413          	li	s0,0
    a1d4:	00e56a63          	bltu	a0,a4,a1e8 <__trailz_D2A+0x34>
    a1d8:	02c0006f          	j	a204 <__trailz_D2A+0x50>
    a1dc:	00450513          	add	a0,a0,4
    a1e0:	02040413          	add	s0,s0,32
    a1e4:	02e57063          	bgeu	a0,a4,a204 <__trailz_D2A+0x50>
    a1e8:	00052783          	lw	a5,0(a0)
    a1ec:	fe0788e3          	beqz	a5,a1dc <__trailz_D2A+0x28>
    a1f0:	00e57a63          	bgeu	a0,a4,a204 <__trailz_D2A+0x50>
    a1f4:	00c10513          	add	a0,sp,12
    a1f8:	00f12623          	sw	a5,12(sp)
    a1fc:	3f0000ef          	jal	a5ec <__lo0bits>
    a200:	00a40433          	add	s0,s0,a0
    a204:	01c12083          	lw	ra,28(sp)
    a208:	00040513          	mv	a0,s0
    a20c:	01812403          	lw	s0,24(sp)
    a210:	02010113          	add	sp,sp,32
    a214:	00008067          	ret

0000a218 <_Balloc>:
    a218:	04452783          	lw	a5,68(a0)
    a21c:	ff010113          	add	sp,sp,-16
    a220:	00812423          	sw	s0,8(sp)
    a224:	00912223          	sw	s1,4(sp)
    a228:	00112623          	sw	ra,12(sp)
    a22c:	00050413          	mv	s0,a0
    a230:	00058493          	mv	s1,a1
    a234:	02078c63          	beqz	a5,a26c <_Balloc+0x54>
    a238:	00249713          	sll	a4,s1,0x2
    a23c:	00e787b3          	add	a5,a5,a4
    a240:	0007a503          	lw	a0,0(a5)
    a244:	04050463          	beqz	a0,a28c <_Balloc+0x74>
    a248:	00052703          	lw	a4,0(a0)
    a24c:	00e7a023          	sw	a4,0(a5)
    a250:	00052823          	sw	zero,16(a0)
    a254:	00052623          	sw	zero,12(a0)
    a258:	00c12083          	lw	ra,12(sp)
    a25c:	00812403          	lw	s0,8(sp)
    a260:	00412483          	lw	s1,4(sp)
    a264:	01010113          	add	sp,sp,16
    a268:	00008067          	ret
    a26c:	02100613          	li	a2,33
    a270:	00400593          	li	a1,4
    a274:	221010ef          	jal	bc94 <_calloc_r>
    a278:	04a42223          	sw	a0,68(s0)
    a27c:	00050793          	mv	a5,a0
    a280:	fa051ce3          	bnez	a0,a238 <_Balloc+0x20>
    a284:	00000513          	li	a0,0
    a288:	fd1ff06f          	j	a258 <_Balloc+0x40>
    a28c:	01212023          	sw	s2,0(sp)
    a290:	00100913          	li	s2,1
    a294:	00991933          	sll	s2,s2,s1
    a298:	00590613          	add	a2,s2,5
    a29c:	00261613          	sll	a2,a2,0x2
    a2a0:	00100593          	li	a1,1
    a2a4:	00040513          	mv	a0,s0
    a2a8:	1ed010ef          	jal	bc94 <_calloc_r>
    a2ac:	00050a63          	beqz	a0,a2c0 <_Balloc+0xa8>
    a2b0:	01252423          	sw	s2,8(a0)
    a2b4:	00952223          	sw	s1,4(a0)
    a2b8:	00012903          	lw	s2,0(sp)
    a2bc:	f95ff06f          	j	a250 <_Balloc+0x38>
    a2c0:	00012903          	lw	s2,0(sp)
    a2c4:	00000513          	li	a0,0
    a2c8:	f91ff06f          	j	a258 <_Balloc+0x40>

0000a2cc <_Bfree>:
    a2cc:	02058063          	beqz	a1,a2ec <_Bfree+0x20>
    a2d0:	0045a703          	lw	a4,4(a1)
    a2d4:	04452783          	lw	a5,68(a0)
    a2d8:	00271713          	sll	a4,a4,0x2
    a2dc:	00e787b3          	add	a5,a5,a4
    a2e0:	0007a703          	lw	a4,0(a5)
    a2e4:	00e5a023          	sw	a4,0(a1)
    a2e8:	00b7a023          	sw	a1,0(a5)
    a2ec:	00008067          	ret

0000a2f0 <__multadd>:
    a2f0:	fe010113          	add	sp,sp,-32
    a2f4:	00912a23          	sw	s1,20(sp)
    a2f8:	0105a483          	lw	s1,16(a1)
    a2fc:	00010337          	lui	t1,0x10
    a300:	00812c23          	sw	s0,24(sp)
    a304:	01212823          	sw	s2,16(sp)
    a308:	01312623          	sw	s3,12(sp)
    a30c:	00112e23          	sw	ra,28(sp)
    a310:	00058913          	mv	s2,a1
    a314:	00050993          	mv	s3,a0
    a318:	00068413          	mv	s0,a3
    a31c:	01458813          	add	a6,a1,20
    a320:	00000893          	li	a7,0
    a324:	fff30313          	add	t1,t1,-1 # ffff <__multf3+0xc7>
    a328:	00082783          	lw	a5,0(a6)
    a32c:	00480813          	add	a6,a6,4
    a330:	00188893          	add	a7,a7,1
    a334:	0067f733          	and	a4,a5,t1
    a338:	02c70733          	mul	a4,a4,a2
    a33c:	0107d693          	srl	a3,a5,0x10
    a340:	02c686b3          	mul	a3,a3,a2
    a344:	008707b3          	add	a5,a4,s0
    a348:	0107d713          	srl	a4,a5,0x10
    a34c:	0067f7b3          	and	a5,a5,t1
    a350:	00e686b3          	add	a3,a3,a4
    a354:	01069713          	sll	a4,a3,0x10
    a358:	00f707b3          	add	a5,a4,a5
    a35c:	fef82e23          	sw	a5,-4(a6)
    a360:	0106d413          	srl	s0,a3,0x10
    a364:	fc98c2e3          	blt	a7,s1,a328 <__multadd+0x38>
    a368:	02040263          	beqz	s0,a38c <__multadd+0x9c>
    a36c:	00892783          	lw	a5,8(s2)
    a370:	02f4de63          	bge	s1,a5,a3ac <__multadd+0xbc>
    a374:	00448793          	add	a5,s1,4
    a378:	00279793          	sll	a5,a5,0x2
    a37c:	00f907b3          	add	a5,s2,a5
    a380:	0087a223          	sw	s0,4(a5)
    a384:	00148493          	add	s1,s1,1
    a388:	00992823          	sw	s1,16(s2)
    a38c:	01c12083          	lw	ra,28(sp)
    a390:	01812403          	lw	s0,24(sp)
    a394:	01412483          	lw	s1,20(sp)
    a398:	00c12983          	lw	s3,12(sp)
    a39c:	00090513          	mv	a0,s2
    a3a0:	01012903          	lw	s2,16(sp)
    a3a4:	02010113          	add	sp,sp,32
    a3a8:	00008067          	ret
    a3ac:	00492583          	lw	a1,4(s2)
    a3b0:	00098513          	mv	a0,s3
    a3b4:	01412423          	sw	s4,8(sp)
    a3b8:	00158593          	add	a1,a1,1
    a3bc:	e5dff0ef          	jal	a218 <_Balloc>
    a3c0:	00050a13          	mv	s4,a0
    a3c4:	04050e63          	beqz	a0,a420 <__multadd+0x130>
    a3c8:	01092603          	lw	a2,16(s2)
    a3cc:	00c90593          	add	a1,s2,12
    a3d0:	00c50513          	add	a0,a0,12
    a3d4:	00260613          	add	a2,a2,2
    a3d8:	00261613          	sll	a2,a2,0x2
    a3dc:	901f80ef          	jal	2cdc <memcpy>
    a3e0:	00492703          	lw	a4,4(s2)
    a3e4:	0449a783          	lw	a5,68(s3)
    a3e8:	00271713          	sll	a4,a4,0x2
    a3ec:	00e787b3          	add	a5,a5,a4
    a3f0:	0007a703          	lw	a4,0(a5)
    a3f4:	00e92023          	sw	a4,0(s2)
    a3f8:	0127a023          	sw	s2,0(a5)
    a3fc:	00448793          	add	a5,s1,4
    a400:	000a0913          	mv	s2,s4
    a404:	00279793          	sll	a5,a5,0x2
    a408:	00f907b3          	add	a5,s2,a5
    a40c:	00812a03          	lw	s4,8(sp)
    a410:	00148493          	add	s1,s1,1
    a414:	0087a223          	sw	s0,4(a5)
    a418:	00992823          	sw	s1,16(s2)
    a41c:	f71ff06f          	j	a38c <__multadd+0x9c>
    a420:	0000a697          	auipc	a3,0xa
    a424:	b1468693          	add	a3,a3,-1260 # 13f34 <__flash_rodata_start+0x94>
    a428:	00000613          	li	a2,0
    a42c:	0ba00593          	li	a1,186
    a430:	0000a517          	auipc	a0,0xa
    a434:	b5050513          	add	a0,a0,-1200 # 13f80 <__flash_rodata_start+0xe0>
    a438:	7f4010ef          	jal	bc2c <__assert_func>

0000a43c <__s2b>:
    a43c:	fe010113          	add	sp,sp,-32
    a440:	00812c23          	sw	s0,24(sp)
    a444:	00912a23          	sw	s1,20(sp)
    a448:	01212823          	sw	s2,16(sp)
    a44c:	01312623          	sw	s3,12(sp)
    a450:	01412423          	sw	s4,8(sp)
    a454:	00068993          	mv	s3,a3
    a458:	00900793          	li	a5,9
    a45c:	00868693          	add	a3,a3,8
    a460:	00112e23          	sw	ra,28(sp)
    a464:	02f6c6b3          	div	a3,a3,a5
    a468:	00050913          	mv	s2,a0
    a46c:	00058413          	mv	s0,a1
    a470:	00060a13          	mv	s4,a2
    a474:	00070493          	mv	s1,a4
    a478:	0d37da63          	bge	a5,s3,a54c <__s2b+0x110>
    a47c:	00100793          	li	a5,1
    a480:	00000593          	li	a1,0
    a484:	00179793          	sll	a5,a5,0x1
    a488:	00158593          	add	a1,a1,1
    a48c:	fed7cce3          	blt	a5,a3,a484 <__s2b+0x48>
    a490:	00090513          	mv	a0,s2
    a494:	d85ff0ef          	jal	a218 <_Balloc>
    a498:	00050593          	mv	a1,a0
    a49c:	0a050c63          	beqz	a0,a554 <__s2b+0x118>
    a4a0:	00100793          	li	a5,1
    a4a4:	00f52823          	sw	a5,16(a0)
    a4a8:	00952a23          	sw	s1,20(a0)
    a4ac:	00900793          	li	a5,9
    a4b0:	0947d863          	bge	a5,s4,a540 <__s2b+0x104>
    a4b4:	01512223          	sw	s5,4(sp)
    a4b8:	00940a93          	add	s5,s0,9
    a4bc:	000a8493          	mv	s1,s5
    a4c0:	01440433          	add	s0,s0,s4
    a4c4:	0004c683          	lbu	a3,0(s1)
    a4c8:	00a00613          	li	a2,10
    a4cc:	00090513          	mv	a0,s2
    a4d0:	fd068693          	add	a3,a3,-48
    a4d4:	e1dff0ef          	jal	a2f0 <__multadd>
    a4d8:	00148493          	add	s1,s1,1
    a4dc:	00050593          	mv	a1,a0
    a4e0:	fe8492e3          	bne	s1,s0,a4c4 <__s2b+0x88>
    a4e4:	ff8a0413          	add	s0,s4,-8
    a4e8:	008a8433          	add	s0,s5,s0
    a4ec:	00412a83          	lw	s5,4(sp)
    a4f0:	033a5663          	bge	s4,s3,a51c <__s2b+0xe0>
    a4f4:	414989b3          	sub	s3,s3,s4
    a4f8:	013409b3          	add	s3,s0,s3
    a4fc:	00044683          	lbu	a3,0(s0)
    a500:	00a00613          	li	a2,10
    a504:	00090513          	mv	a0,s2
    a508:	fd068693          	add	a3,a3,-48
    a50c:	de5ff0ef          	jal	a2f0 <__multadd>
    a510:	00140413          	add	s0,s0,1
    a514:	00050593          	mv	a1,a0
    a518:	ff3412e3          	bne	s0,s3,a4fc <__s2b+0xc0>
    a51c:	01c12083          	lw	ra,28(sp)
    a520:	01812403          	lw	s0,24(sp)
    a524:	01412483          	lw	s1,20(sp)
    a528:	01012903          	lw	s2,16(sp)
    a52c:	00c12983          	lw	s3,12(sp)
    a530:	00812a03          	lw	s4,8(sp)
    a534:	00058513          	mv	a0,a1
    a538:	02010113          	add	sp,sp,32
    a53c:	00008067          	ret
    a540:	00a40413          	add	s0,s0,10
    a544:	00900a13          	li	s4,9
    a548:	fa9ff06f          	j	a4f0 <__s2b+0xb4>
    a54c:	00000593          	li	a1,0
    a550:	f41ff06f          	j	a490 <__s2b+0x54>
    a554:	0000a697          	auipc	a3,0xa
    a558:	9e068693          	add	a3,a3,-1568 # 13f34 <__flash_rodata_start+0x94>
    a55c:	00000613          	li	a2,0
    a560:	0d300593          	li	a1,211
    a564:	0000a517          	auipc	a0,0xa
    a568:	a1c50513          	add	a0,a0,-1508 # 13f80 <__flash_rodata_start+0xe0>
    a56c:	01512223          	sw	s5,4(sp)
    a570:	6bc010ef          	jal	bc2c <__assert_func>

0000a574 <__hi0bits>:
    a574:	00050793          	mv	a5,a0
    a578:	00010737          	lui	a4,0x10
    a57c:	00000513          	li	a0,0
    a580:	00e7f663          	bgeu	a5,a4,a58c <__hi0bits+0x18>
    a584:	01079793          	sll	a5,a5,0x10
    a588:	01000513          	li	a0,16
    a58c:	01000737          	lui	a4,0x1000
    a590:	00e7f663          	bgeu	a5,a4,a59c <__hi0bits+0x28>
    a594:	00850513          	add	a0,a0,8
    a598:	00879793          	sll	a5,a5,0x8
    a59c:	10000737          	lui	a4,0x10000
    a5a0:	00e7f663          	bgeu	a5,a4,a5ac <__hi0bits+0x38>
    a5a4:	00450513          	add	a0,a0,4
    a5a8:	00479793          	sll	a5,a5,0x4
    a5ac:	40000737          	lui	a4,0x40000
    a5b0:	00e7ea63          	bltu	a5,a4,a5c4 <__hi0bits+0x50>
    a5b4:	fff7c793          	not	a5,a5
    a5b8:	01f7d793          	srl	a5,a5,0x1f
    a5bc:	00f50533          	add	a0,a0,a5
    a5c0:	00008067          	ret
    a5c4:	00279793          	sll	a5,a5,0x2
    a5c8:	0007ca63          	bltz	a5,a5dc <__hi0bits+0x68>
    a5cc:	00179713          	sll	a4,a5,0x1
    a5d0:	00074a63          	bltz	a4,a5e4 <__hi0bits+0x70>
    a5d4:	02000513          	li	a0,32
    a5d8:	00008067          	ret
    a5dc:	00250513          	add	a0,a0,2
    a5e0:	00008067          	ret
    a5e4:	00350513          	add	a0,a0,3
    a5e8:	00008067          	ret

0000a5ec <__lo0bits>:
    a5ec:	00052783          	lw	a5,0(a0)
    a5f0:	00050713          	mv	a4,a0
    a5f4:	0077f693          	and	a3,a5,7
    a5f8:	02068463          	beqz	a3,a620 <__lo0bits+0x34>
    a5fc:	0017f693          	and	a3,a5,1
    a600:	00000513          	li	a0,0
    a604:	04069e63          	bnez	a3,a660 <__lo0bits+0x74>
    a608:	0027f693          	and	a3,a5,2
    a60c:	0a068863          	beqz	a3,a6bc <__lo0bits+0xd0>
    a610:	0017d793          	srl	a5,a5,0x1
    a614:	00f72023          	sw	a5,0(a4) # 40000000 <__alt_data_end+0x3ffe0000>
    a618:	00100513          	li	a0,1
    a61c:	00008067          	ret
    a620:	01079693          	sll	a3,a5,0x10
    a624:	0106d693          	srl	a3,a3,0x10
    a628:	00000513          	li	a0,0
    a62c:	06068e63          	beqz	a3,a6a8 <__lo0bits+0xbc>
    a630:	0ff7f693          	zext.b	a3,a5
    a634:	06068063          	beqz	a3,a694 <__lo0bits+0xa8>
    a638:	00f7f693          	and	a3,a5,15
    a63c:	04068263          	beqz	a3,a680 <__lo0bits+0x94>
    a640:	0037f693          	and	a3,a5,3
    a644:	02068463          	beqz	a3,a66c <__lo0bits+0x80>
    a648:	0017f693          	and	a3,a5,1
    a64c:	00069c63          	bnez	a3,a664 <__lo0bits+0x78>
    a650:	0017d793          	srl	a5,a5,0x1
    a654:	00150513          	add	a0,a0,1
    a658:	00079663          	bnez	a5,a664 <__lo0bits+0x78>
    a65c:	02000513          	li	a0,32
    a660:	00008067          	ret
    a664:	00f72023          	sw	a5,0(a4)
    a668:	00008067          	ret
    a66c:	0027d793          	srl	a5,a5,0x2
    a670:	0017f693          	and	a3,a5,1
    a674:	00250513          	add	a0,a0,2
    a678:	fe0696e3          	bnez	a3,a664 <__lo0bits+0x78>
    a67c:	fd5ff06f          	j	a650 <__lo0bits+0x64>
    a680:	0047d793          	srl	a5,a5,0x4
    a684:	0037f693          	and	a3,a5,3
    a688:	00450513          	add	a0,a0,4
    a68c:	fa069ee3          	bnez	a3,a648 <__lo0bits+0x5c>
    a690:	fddff06f          	j	a66c <__lo0bits+0x80>
    a694:	0087d793          	srl	a5,a5,0x8
    a698:	00f7f693          	and	a3,a5,15
    a69c:	00850513          	add	a0,a0,8
    a6a0:	fa0690e3          	bnez	a3,a640 <__lo0bits+0x54>
    a6a4:	fddff06f          	j	a680 <__lo0bits+0x94>
    a6a8:	0107d793          	srl	a5,a5,0x10
    a6ac:	0ff7f693          	zext.b	a3,a5
    a6b0:	01000513          	li	a0,16
    a6b4:	f80692e3          	bnez	a3,a638 <__lo0bits+0x4c>
    a6b8:	fddff06f          	j	a694 <__lo0bits+0xa8>
    a6bc:	0027d793          	srl	a5,a5,0x2
    a6c0:	00f72023          	sw	a5,0(a4)
    a6c4:	00200513          	li	a0,2
    a6c8:	00008067          	ret

0000a6cc <__i2b>:
    a6cc:	04452783          	lw	a5,68(a0)
    a6d0:	ff010113          	add	sp,sp,-16
    a6d4:	00812423          	sw	s0,8(sp)
    a6d8:	00912223          	sw	s1,4(sp)
    a6dc:	00112623          	sw	ra,12(sp)
    a6e0:	00050413          	mv	s0,a0
    a6e4:	00058493          	mv	s1,a1
    a6e8:	02078c63          	beqz	a5,a720 <__i2b+0x54>
    a6ec:	0047a503          	lw	a0,4(a5)
    a6f0:	06050263          	beqz	a0,a754 <__i2b+0x88>
    a6f4:	00052703          	lw	a4,0(a0)
    a6f8:	00e7a223          	sw	a4,4(a5)
    a6fc:	00c12083          	lw	ra,12(sp)
    a700:	00812403          	lw	s0,8(sp)
    a704:	00100793          	li	a5,1
    a708:	00952a23          	sw	s1,20(a0)
    a70c:	00052623          	sw	zero,12(a0)
    a710:	00f52823          	sw	a5,16(a0)
    a714:	00412483          	lw	s1,4(sp)
    a718:	01010113          	add	sp,sp,16
    a71c:	00008067          	ret
    a720:	02100613          	li	a2,33
    a724:	00400593          	li	a1,4
    a728:	56c010ef          	jal	bc94 <_calloc_r>
    a72c:	04a42223          	sw	a0,68(s0)
    a730:	00050793          	mv	a5,a0
    a734:	fa051ce3          	bnez	a0,a6ec <__i2b+0x20>
    a738:	00009697          	auipc	a3,0x9
    a73c:	7fc68693          	add	a3,a3,2044 # 13f34 <__flash_rodata_start+0x94>
    a740:	00000613          	li	a2,0
    a744:	14500593          	li	a1,325
    a748:	0000a517          	auipc	a0,0xa
    a74c:	83850513          	add	a0,a0,-1992 # 13f80 <__flash_rodata_start+0xe0>
    a750:	4dc010ef          	jal	bc2c <__assert_func>
    a754:	01c00613          	li	a2,28
    a758:	00100593          	li	a1,1
    a75c:	00040513          	mv	a0,s0
    a760:	534010ef          	jal	bc94 <_calloc_r>
    a764:	fc050ae3          	beqz	a0,a738 <__i2b+0x6c>
    a768:	00100793          	li	a5,1
    a76c:	00f52223          	sw	a5,4(a0)
    a770:	00200793          	li	a5,2
    a774:	00f52423          	sw	a5,8(a0)
    a778:	f85ff06f          	j	a6fc <__i2b+0x30>

0000a77c <__multiply>:
    a77c:	fe010113          	add	sp,sp,-32
    a780:	01212823          	sw	s2,16(sp)
    a784:	01312623          	sw	s3,12(sp)
    a788:	0105a903          	lw	s2,16(a1)
    a78c:	01062983          	lw	s3,16(a2)
    a790:	00912a23          	sw	s1,20(sp)
    a794:	01412423          	sw	s4,8(sp)
    a798:	00112e23          	sw	ra,28(sp)
    a79c:	00812c23          	sw	s0,24(sp)
    a7a0:	00058a13          	mv	s4,a1
    a7a4:	00060493          	mv	s1,a2
    a7a8:	01394c63          	blt	s2,s3,a7c0 <__multiply+0x44>
    a7ac:	00098713          	mv	a4,s3
    a7b0:	00058493          	mv	s1,a1
    a7b4:	00090993          	mv	s3,s2
    a7b8:	00060a13          	mv	s4,a2
    a7bc:	00070913          	mv	s2,a4
    a7c0:	0084a783          	lw	a5,8(s1)
    a7c4:	0044a583          	lw	a1,4(s1)
    a7c8:	01298433          	add	s0,s3,s2
    a7cc:	0087a7b3          	slt	a5,a5,s0
    a7d0:	00f585b3          	add	a1,a1,a5
    a7d4:	a45ff0ef          	jal	a218 <_Balloc>
    a7d8:	1a050e63          	beqz	a0,a994 <__multiply+0x218>
    a7dc:	01450313          	add	t1,a0,20
    a7e0:	00241893          	sll	a7,s0,0x2
    a7e4:	011308b3          	add	a7,t1,a7
    a7e8:	00030793          	mv	a5,t1
    a7ec:	01137863          	bgeu	t1,a7,a7fc <__multiply+0x80>
    a7f0:	0007a023          	sw	zero,0(a5)
    a7f4:	00478793          	add	a5,a5,4
    a7f8:	ff17ece3          	bltu	a5,a7,a7f0 <__multiply+0x74>
    a7fc:	014a0813          	add	a6,s4,20
    a800:	00291e13          	sll	t3,s2,0x2
    a804:	01448e93          	add	t4,s1,20
    a808:	00299593          	sll	a1,s3,0x2
    a80c:	01c80e33          	add	t3,a6,t3
    a810:	00be85b3          	add	a1,t4,a1
    a814:	13c87663          	bgeu	a6,t3,a940 <__multiply+0x1c4>
    a818:	01548793          	add	a5,s1,21
    a81c:	00400f13          	li	t5,4
    a820:	16f5f063          	bgeu	a1,a5,a980 <__multiply+0x204>
    a824:	000106b7          	lui	a3,0x10
    a828:	fff68693          	add	a3,a3,-1 # ffff <__multf3+0xc7>
    a82c:	0180006f          	j	a844 <__multiply+0xc8>
    a830:	010fdf93          	srl	t6,t6,0x10
    a834:	080f9863          	bnez	t6,a8c4 <__multiply+0x148>
    a838:	00480813          	add	a6,a6,4
    a83c:	00430313          	add	t1,t1,4
    a840:	11c87063          	bgeu	a6,t3,a940 <__multiply+0x1c4>
    a844:	00082f83          	lw	t6,0(a6)
    a848:	00dff3b3          	and	t2,t6,a3
    a84c:	fe0382e3          	beqz	t2,a830 <__multiply+0xb4>
    a850:	00030293          	mv	t0,t1
    a854:	000e8f93          	mv	t6,t4
    a858:	00000493          	li	s1,0
    a85c:	000fa783          	lw	a5,0(t6)
    a860:	0002a603          	lw	a2,0(t0) # 2cb4 <memset+0xb4>
    a864:	00428293          	add	t0,t0,4
    a868:	00d7f733          	and	a4,a5,a3
    a86c:	02770733          	mul	a4,a4,t2
    a870:	0107d793          	srl	a5,a5,0x10
    a874:	00d67933          	and	s2,a2,a3
    a878:	01065613          	srl	a2,a2,0x10
    a87c:	004f8f93          	add	t6,t6,4
    a880:	027787b3          	mul	a5,a5,t2
    a884:	01270733          	add	a4,a4,s2
    a888:	00970733          	add	a4,a4,s1
    a88c:	01075493          	srl	s1,a4,0x10
    a890:	00d77733          	and	a4,a4,a3
    a894:	00c787b3          	add	a5,a5,a2
    a898:	009787b3          	add	a5,a5,s1
    a89c:	01079613          	sll	a2,a5,0x10
    a8a0:	00e66733          	or	a4,a2,a4
    a8a4:	fee2ae23          	sw	a4,-4(t0)
    a8a8:	0107d493          	srl	s1,a5,0x10
    a8ac:	fabfe8e3          	bltu	t6,a1,a85c <__multiply+0xe0>
    a8b0:	01e307b3          	add	a5,t1,t5
    a8b4:	0097a023          	sw	s1,0(a5)
    a8b8:	00082f83          	lw	t6,0(a6)
    a8bc:	010fdf93          	srl	t6,t6,0x10
    a8c0:	f60f8ce3          	beqz	t6,a838 <__multiply+0xbc>
    a8c4:	00032703          	lw	a4,0(t1)
    a8c8:	00030293          	mv	t0,t1
    a8cc:	000e8613          	mv	a2,t4
    a8d0:	00070493          	mv	s1,a4
    a8d4:	00000393          	li	t2,0
    a8d8:	00062783          	lw	a5,0(a2)
    a8dc:	0104d993          	srl	s3,s1,0x10
    a8e0:	00d77733          	and	a4,a4,a3
    a8e4:	00d7f7b3          	and	a5,a5,a3
    a8e8:	03f787b3          	mul	a5,a5,t6
    a8ec:	0042a483          	lw	s1,4(t0)
    a8f0:	00428293          	add	t0,t0,4
    a8f4:	00460613          	add	a2,a2,4
    a8f8:	00d4f933          	and	s2,s1,a3
    a8fc:	007787b3          	add	a5,a5,t2
    a900:	013787b3          	add	a5,a5,s3
    a904:	01079393          	sll	t2,a5,0x10
    a908:	00e3e733          	or	a4,t2,a4
    a90c:	fee2ae23          	sw	a4,-4(t0)
    a910:	ffe65703          	lhu	a4,-2(a2)
    a914:	0107d793          	srl	a5,a5,0x10
    a918:	03f70733          	mul	a4,a4,t6
    a91c:	01270733          	add	a4,a4,s2
    a920:	00f70733          	add	a4,a4,a5
    a924:	01075393          	srl	t2,a4,0x10
    a928:	fab668e3          	bltu	a2,a1,a8d8 <__multiply+0x15c>
    a92c:	01e307b3          	add	a5,t1,t5
    a930:	00e7a023          	sw	a4,0(a5)
    a934:	00480813          	add	a6,a6,4
    a938:	00430313          	add	t1,t1,4
    a93c:	f1c864e3          	bltu	a6,t3,a844 <__multiply+0xc8>
    a940:	00804863          	bgtz	s0,a950 <__multiply+0x1d4>
    a944:	0180006f          	j	a95c <__multiply+0x1e0>
    a948:	fff40413          	add	s0,s0,-1
    a94c:	00040863          	beqz	s0,a95c <__multiply+0x1e0>
    a950:	ffc8a783          	lw	a5,-4(a7)
    a954:	ffc88893          	add	a7,a7,-4
    a958:	fe0788e3          	beqz	a5,a948 <__multiply+0x1cc>
    a95c:	01c12083          	lw	ra,28(sp)
    a960:	00852823          	sw	s0,16(a0)
    a964:	01812403          	lw	s0,24(sp)
    a968:	01412483          	lw	s1,20(sp)
    a96c:	01012903          	lw	s2,16(sp)
    a970:	00c12983          	lw	s3,12(sp)
    a974:	00812a03          	lw	s4,8(sp)
    a978:	02010113          	add	sp,sp,32
    a97c:	00008067          	ret
    a980:	409587b3          	sub	a5,a1,s1
    a984:	feb78793          	add	a5,a5,-21
    a988:	ffc7f793          	and	a5,a5,-4
    a98c:	00478f13          	add	t5,a5,4
    a990:	e95ff06f          	j	a824 <__multiply+0xa8>
    a994:	00009697          	auipc	a3,0x9
    a998:	5a068693          	add	a3,a3,1440 # 13f34 <__flash_rodata_start+0x94>
    a99c:	00000613          	li	a2,0
    a9a0:	16200593          	li	a1,354
    a9a4:	00009517          	auipc	a0,0x9
    a9a8:	5dc50513          	add	a0,a0,1500 # 13f80 <__flash_rodata_start+0xe0>
    a9ac:	280010ef          	jal	bc2c <__assert_func>

0000a9b0 <__pow5mult>:
    a9b0:	fe010113          	add	sp,sp,-32
    a9b4:	00812c23          	sw	s0,24(sp)
    a9b8:	01212823          	sw	s2,16(sp)
    a9bc:	01312623          	sw	s3,12(sp)
    a9c0:	00112e23          	sw	ra,28(sp)
    a9c4:	00367793          	and	a5,a2,3
    a9c8:	00060413          	mv	s0,a2
    a9cc:	00050993          	mv	s3,a0
    a9d0:	00058913          	mv	s2,a1
    a9d4:	0a079c63          	bnez	a5,aa8c <__pow5mult+0xdc>
    a9d8:	40245413          	sra	s0,s0,0x2
    a9dc:	06040a63          	beqz	s0,aa50 <__pow5mult+0xa0>
    a9e0:	00912a23          	sw	s1,20(sp)
    a9e4:	0409a483          	lw	s1,64(s3)
    a9e8:	0c048663          	beqz	s1,aab4 <__pow5mult+0x104>
    a9ec:	00147793          	and	a5,s0,1
    a9f0:	02079063          	bnez	a5,aa10 <__pow5mult+0x60>
    a9f4:	40145413          	sra	s0,s0,0x1
    a9f8:	04040a63          	beqz	s0,aa4c <__pow5mult+0x9c>
    a9fc:	0004a503          	lw	a0,0(s1)
    aa00:	06050663          	beqz	a0,aa6c <__pow5mult+0xbc>
    aa04:	00050493          	mv	s1,a0
    aa08:	00147793          	and	a5,s0,1
    aa0c:	fe0784e3          	beqz	a5,a9f4 <__pow5mult+0x44>
    aa10:	00048613          	mv	a2,s1
    aa14:	00090593          	mv	a1,s2
    aa18:	00098513          	mv	a0,s3
    aa1c:	d61ff0ef          	jal	a77c <__multiply>
    aa20:	02090063          	beqz	s2,aa40 <__pow5mult+0x90>
    aa24:	00492703          	lw	a4,4(s2)
    aa28:	0449a783          	lw	a5,68(s3)
    aa2c:	00271713          	sll	a4,a4,0x2
    aa30:	00e787b3          	add	a5,a5,a4
    aa34:	0007a703          	lw	a4,0(a5)
    aa38:	00e92023          	sw	a4,0(s2)
    aa3c:	0127a023          	sw	s2,0(a5)
    aa40:	40145413          	sra	s0,s0,0x1
    aa44:	00050913          	mv	s2,a0
    aa48:	fa041ae3          	bnez	s0,a9fc <__pow5mult+0x4c>
    aa4c:	01412483          	lw	s1,20(sp)
    aa50:	01c12083          	lw	ra,28(sp)
    aa54:	01812403          	lw	s0,24(sp)
    aa58:	00c12983          	lw	s3,12(sp)
    aa5c:	00090513          	mv	a0,s2
    aa60:	01012903          	lw	s2,16(sp)
    aa64:	02010113          	add	sp,sp,32
    aa68:	00008067          	ret
    aa6c:	00048613          	mv	a2,s1
    aa70:	00048593          	mv	a1,s1
    aa74:	00098513          	mv	a0,s3
    aa78:	d05ff0ef          	jal	a77c <__multiply>
    aa7c:	00a4a023          	sw	a0,0(s1)
    aa80:	00052023          	sw	zero,0(a0)
    aa84:	00050493          	mv	s1,a0
    aa88:	f81ff06f          	j	aa08 <__pow5mult+0x58>
    aa8c:	fff78793          	add	a5,a5,-1
    aa90:	0000a717          	auipc	a4,0xa
    aa94:	84870713          	add	a4,a4,-1976 # 142d8 <p05.0>
    aa98:	00279793          	sll	a5,a5,0x2
    aa9c:	00f707b3          	add	a5,a4,a5
    aaa0:	0007a603          	lw	a2,0(a5)
    aaa4:	00000693          	li	a3,0
    aaa8:	849ff0ef          	jal	a2f0 <__multadd>
    aaac:	00050913          	mv	s2,a0
    aab0:	f29ff06f          	j	a9d8 <__pow5mult+0x28>
    aab4:	00100593          	li	a1,1
    aab8:	00098513          	mv	a0,s3
    aabc:	f5cff0ef          	jal	a218 <_Balloc>
    aac0:	00050493          	mv	s1,a0
    aac4:	02050063          	beqz	a0,aae4 <__pow5mult+0x134>
    aac8:	27100793          	li	a5,625
    aacc:	00f52a23          	sw	a5,20(a0)
    aad0:	00100793          	li	a5,1
    aad4:	00f52823          	sw	a5,16(a0)
    aad8:	04a9a023          	sw	a0,64(s3)
    aadc:	00052023          	sw	zero,0(a0)
    aae0:	f0dff06f          	j	a9ec <__pow5mult+0x3c>
    aae4:	00009697          	auipc	a3,0x9
    aae8:	45068693          	add	a3,a3,1104 # 13f34 <__flash_rodata_start+0x94>
    aaec:	00000613          	li	a2,0
    aaf0:	14500593          	li	a1,325
    aaf4:	00009517          	auipc	a0,0x9
    aaf8:	48c50513          	add	a0,a0,1164 # 13f80 <__flash_rodata_start+0xe0>
    aafc:	130010ef          	jal	bc2c <__assert_func>

0000ab00 <__lshift>:
    ab00:	fe010113          	add	sp,sp,-32
    ab04:	01512223          	sw	s5,4(sp)
    ab08:	0105aa83          	lw	s5,16(a1)
    ab0c:	0085a783          	lw	a5,8(a1)
    ab10:	01312623          	sw	s3,12(sp)
    ab14:	40565993          	sra	s3,a2,0x5
    ab18:	01598ab3          	add	s5,s3,s5
    ab1c:	00812c23          	sw	s0,24(sp)
    ab20:	00912a23          	sw	s1,20(sp)
    ab24:	01212823          	sw	s2,16(sp)
    ab28:	01412423          	sw	s4,8(sp)
    ab2c:	00112e23          	sw	ra,28(sp)
    ab30:	001a8913          	add	s2,s5,1
    ab34:	00058493          	mv	s1,a1
    ab38:	00060413          	mv	s0,a2
    ab3c:	0045a583          	lw	a1,4(a1)
    ab40:	00050a13          	mv	s4,a0
    ab44:	0127d863          	bge	a5,s2,ab54 <__lshift+0x54>
    ab48:	00179793          	sll	a5,a5,0x1
    ab4c:	00158593          	add	a1,a1,1
    ab50:	ff27cce3          	blt	a5,s2,ab48 <__lshift+0x48>
    ab54:	000a0513          	mv	a0,s4
    ab58:	ec0ff0ef          	jal	a218 <_Balloc>
    ab5c:	10050c63          	beqz	a0,ac74 <__lshift+0x174>
    ab60:	01450813          	add	a6,a0,20
    ab64:	03305463          	blez	s3,ab8c <__lshift+0x8c>
    ab68:	00598993          	add	s3,s3,5
    ab6c:	00299993          	sll	s3,s3,0x2
    ab70:	01350733          	add	a4,a0,s3
    ab74:	00080793          	mv	a5,a6
    ab78:	00478793          	add	a5,a5,4
    ab7c:	fe07ae23          	sw	zero,-4(a5)
    ab80:	fee79ce3          	bne	a5,a4,ab78 <__lshift+0x78>
    ab84:	fec98993          	add	s3,s3,-20
    ab88:	01380833          	add	a6,a6,s3
    ab8c:	0104a883          	lw	a7,16(s1)
    ab90:	01448793          	add	a5,s1,20
    ab94:	01f47613          	and	a2,s0,31
    ab98:	00289893          	sll	a7,a7,0x2
    ab9c:	011788b3          	add	a7,a5,a7
    aba0:	0a060463          	beqz	a2,ac48 <__lshift+0x148>
    aba4:	02000593          	li	a1,32
    aba8:	40c585b3          	sub	a1,a1,a2
    abac:	00080313          	mv	t1,a6
    abb0:	00000693          	li	a3,0
    abb4:	0007a703          	lw	a4,0(a5)
    abb8:	00430313          	add	t1,t1,4
    abbc:	00478793          	add	a5,a5,4
    abc0:	00c71733          	sll	a4,a4,a2
    abc4:	00d76733          	or	a4,a4,a3
    abc8:	fee32e23          	sw	a4,-4(t1)
    abcc:	ffc7a683          	lw	a3,-4(a5)
    abd0:	00b6d6b3          	srl	a3,a3,a1
    abd4:	ff17e0e3          	bltu	a5,a7,abb4 <__lshift+0xb4>
    abd8:	01548793          	add	a5,s1,21
    abdc:	00400713          	li	a4,4
    abe0:	00f8ea63          	bltu	a7,a5,abf4 <__lshift+0xf4>
    abe4:	409887b3          	sub	a5,a7,s1
    abe8:	feb78793          	add	a5,a5,-21
    abec:	ffc7f793          	and	a5,a5,-4
    abf0:	00478713          	add	a4,a5,4
    abf4:	00e80833          	add	a6,a6,a4
    abf8:	00d82023          	sw	a3,0(a6)
    abfc:	00069463          	bnez	a3,ac04 <__lshift+0x104>
    ac00:	000a8913          	mv	s2,s5
    ac04:	0044a703          	lw	a4,4(s1)
    ac08:	044a2783          	lw	a5,68(s4)
    ac0c:	01c12083          	lw	ra,28(sp)
    ac10:	00271713          	sll	a4,a4,0x2
    ac14:	00e787b3          	add	a5,a5,a4
    ac18:	0007a703          	lw	a4,0(a5)
    ac1c:	01252823          	sw	s2,16(a0)
    ac20:	01812403          	lw	s0,24(sp)
    ac24:	00e4a023          	sw	a4,0(s1)
    ac28:	0097a023          	sw	s1,0(a5)
    ac2c:	01012903          	lw	s2,16(sp)
    ac30:	01412483          	lw	s1,20(sp)
    ac34:	00c12983          	lw	s3,12(sp)
    ac38:	00812a03          	lw	s4,8(sp)
    ac3c:	00412a83          	lw	s5,4(sp)
    ac40:	02010113          	add	sp,sp,32
    ac44:	00008067          	ret
    ac48:	0007a703          	lw	a4,0(a5)
    ac4c:	00478793          	add	a5,a5,4
    ac50:	00480813          	add	a6,a6,4
    ac54:	fee82e23          	sw	a4,-4(a6)
    ac58:	fb17f4e3          	bgeu	a5,a7,ac00 <__lshift+0x100>
    ac5c:	0007a703          	lw	a4,0(a5)
    ac60:	00478793          	add	a5,a5,4
    ac64:	00480813          	add	a6,a6,4
    ac68:	fee82e23          	sw	a4,-4(a6)
    ac6c:	fd17eee3          	bltu	a5,a7,ac48 <__lshift+0x148>
    ac70:	f91ff06f          	j	ac00 <__lshift+0x100>
    ac74:	00009697          	auipc	a3,0x9
    ac78:	2c068693          	add	a3,a3,704 # 13f34 <__flash_rodata_start+0x94>
    ac7c:	00000613          	li	a2,0
    ac80:	1de00593          	li	a1,478
    ac84:	00009517          	auipc	a0,0x9
    ac88:	2fc50513          	add	a0,a0,764 # 13f80 <__flash_rodata_start+0xe0>
    ac8c:	7a1000ef          	jal	bc2c <__assert_func>

0000ac90 <__mcmp>:
    ac90:	01052703          	lw	a4,16(a0)
    ac94:	0105a783          	lw	a5,16(a1)
    ac98:	00050813          	mv	a6,a0
    ac9c:	40f70533          	sub	a0,a4,a5
    aca0:	04f71263          	bne	a4,a5,ace4 <__mcmp+0x54>
    aca4:	00279793          	sll	a5,a5,0x2
    aca8:	01480813          	add	a6,a6,20
    acac:	01458593          	add	a1,a1,20
    acb0:	00f80733          	add	a4,a6,a5
    acb4:	00f587b3          	add	a5,a1,a5
    acb8:	0080006f          	j	acc0 <__mcmp+0x30>
    acbc:	02e87463          	bgeu	a6,a4,ace4 <__mcmp+0x54>
    acc0:	ffc72603          	lw	a2,-4(a4)
    acc4:	ffc7a683          	lw	a3,-4(a5)
    acc8:	ffc70713          	add	a4,a4,-4
    accc:	ffc78793          	add	a5,a5,-4
    acd0:	fed606e3          	beq	a2,a3,acbc <__mcmp+0x2c>
    acd4:	00100513          	li	a0,1
    acd8:	00d67663          	bgeu	a2,a3,ace4 <__mcmp+0x54>
    acdc:	fff00513          	li	a0,-1
    ace0:	00008067          	ret
    ace4:	00008067          	ret

0000ace8 <__mdiff>:
    ace8:	0105a703          	lw	a4,16(a1)
    acec:	01062783          	lw	a5,16(a2)
    acf0:	ff010113          	add	sp,sp,-16
    acf4:	00812423          	sw	s0,8(sp)
    acf8:	00912223          	sw	s1,4(sp)
    acfc:	00112623          	sw	ra,12(sp)
    ad00:	01212023          	sw	s2,0(sp)
    ad04:	00058413          	mv	s0,a1
    ad08:	00060493          	mv	s1,a2
    ad0c:	40f706b3          	sub	a3,a4,a5
    ad10:	18f71e63          	bne	a4,a5,aeac <__mdiff+0x1c4>
    ad14:	00279693          	sll	a3,a5,0x2
    ad18:	01458613          	add	a2,a1,20
    ad1c:	01448713          	add	a4,s1,20
    ad20:	00d607b3          	add	a5,a2,a3
    ad24:	00d70733          	add	a4,a4,a3
    ad28:	0080006f          	j	ad30 <__mdiff+0x48>
    ad2c:	18f67c63          	bgeu	a2,a5,aec4 <__mdiff+0x1dc>
    ad30:	ffc7a583          	lw	a1,-4(a5)
    ad34:	ffc72683          	lw	a3,-4(a4)
    ad38:	ffc78793          	add	a5,a5,-4
    ad3c:	ffc70713          	add	a4,a4,-4
    ad40:	fed586e3          	beq	a1,a3,ad2c <__mdiff+0x44>
    ad44:	00100913          	li	s2,1
    ad48:	00d5ea63          	bltu	a1,a3,ad5c <__mdiff+0x74>
    ad4c:	00048793          	mv	a5,s1
    ad50:	00000913          	li	s2,0
    ad54:	00040493          	mv	s1,s0
    ad58:	00078413          	mv	s0,a5
    ad5c:	0044a583          	lw	a1,4(s1)
    ad60:	cb8ff0ef          	jal	a218 <_Balloc>
    ad64:	1a050663          	beqz	a0,af10 <__mdiff+0x228>
    ad68:	0104a883          	lw	a7,16(s1)
    ad6c:	01042283          	lw	t0,16(s0)
    ad70:	01448f93          	add	t6,s1,20
    ad74:	00289313          	sll	t1,a7,0x2
    ad78:	01440813          	add	a6,s0,20
    ad7c:	00229293          	sll	t0,t0,0x2
    ad80:	01450593          	add	a1,a0,20
    ad84:	00010e37          	lui	t3,0x10
    ad88:	01252623          	sw	s2,12(a0)
    ad8c:	006f8333          	add	t1,t6,t1
    ad90:	005802b3          	add	t0,a6,t0
    ad94:	00058f13          	mv	t5,a1
    ad98:	000f8e93          	mv	t4,t6
    ad9c:	00000693          	li	a3,0
    ada0:	fffe0e13          	add	t3,t3,-1 # ffff <__multf3+0xc7>
    ada4:	000ea703          	lw	a4,0(t4)
    ada8:	00082603          	lw	a2,0(a6)
    adac:	004f0f13          	add	t5,t5,4
    adb0:	01c777b3          	and	a5,a4,t3
    adb4:	01c673b3          	and	t2,a2,t3
    adb8:	407787b3          	sub	a5,a5,t2
    adbc:	00d787b3          	add	a5,a5,a3
    adc0:	01075713          	srl	a4,a4,0x10
    adc4:	01065613          	srl	a2,a2,0x10
    adc8:	4107d693          	sra	a3,a5,0x10
    adcc:	40c70733          	sub	a4,a4,a2
    add0:	00d70733          	add	a4,a4,a3
    add4:	01071693          	sll	a3,a4,0x10
    add8:	01c7f7b3          	and	a5,a5,t3
    addc:	00d7e7b3          	or	a5,a5,a3
    ade0:	00480813          	add	a6,a6,4
    ade4:	feff2e23          	sw	a5,-4(t5)
    ade8:	004e8e93          	add	t4,t4,4
    adec:	41075693          	sra	a3,a4,0x10
    adf0:	fa586ae3          	bltu	a6,t0,ada4 <__mdiff+0xbc>
    adf4:	01540713          	add	a4,s0,21
    adf8:	40828433          	sub	s0,t0,s0
    adfc:	feb40413          	add	s0,s0,-21
    ae00:	00e2b2b3          	sltu	t0,t0,a4
    ae04:	0012cf13          	xor	t5,t0,1
    ae08:	00245413          	srl	s0,s0,0x2
    ae0c:	00400713          	li	a4,4
    ae10:	0a028463          	beqz	t0,aeb8 <__mdiff+0x1d0>
    ae14:	00ef8fb3          	add	t6,t6,a4
    ae18:	00e58833          	add	a6,a1,a4
    ae1c:	00010eb7          	lui	t4,0x10
    ae20:	00080e13          	mv	t3,a6
    ae24:	000f8613          	mv	a2,t6
    ae28:	fffe8e93          	add	t4,t4,-1 # ffff <__multf3+0xc7>
    ae2c:	0c6ff463          	bgeu	t6,t1,aef4 <__mdiff+0x20c>
    ae30:	00062783          	lw	a5,0(a2)
    ae34:	004e0e13          	add	t3,t3,4
    ae38:	00460613          	add	a2,a2,4
    ae3c:	01d7f733          	and	a4,a5,t4
    ae40:	00d70733          	add	a4,a4,a3
    ae44:	0107d593          	srl	a1,a5,0x10
    ae48:	41075713          	sra	a4,a4,0x10
    ae4c:	00b70733          	add	a4,a4,a1
    ae50:	00d787b3          	add	a5,a5,a3
    ae54:	01d7f7b3          	and	a5,a5,t4
    ae58:	01071693          	sll	a3,a4,0x10
    ae5c:	00d7e7b3          	or	a5,a5,a3
    ae60:	fefe2e23          	sw	a5,-4(t3)
    ae64:	41075693          	sra	a3,a4,0x10
    ae68:	fc6664e3          	bltu	a2,t1,ae30 <__mdiff+0x148>
    ae6c:	fff30313          	add	t1,t1,-1
    ae70:	41f30333          	sub	t1,t1,t6
    ae74:	ffc37313          	and	t1,t1,-4
    ae78:	00680733          	add	a4,a6,t1
    ae7c:	00079a63          	bnez	a5,ae90 <__mdiff+0x1a8>
    ae80:	ffc72783          	lw	a5,-4(a4)
    ae84:	fff88893          	add	a7,a7,-1
    ae88:	ffc70713          	add	a4,a4,-4
    ae8c:	fe078ae3          	beqz	a5,ae80 <__mdiff+0x198>
    ae90:	00c12083          	lw	ra,12(sp)
    ae94:	00812403          	lw	s0,8(sp)
    ae98:	01152823          	sw	a7,16(a0)
    ae9c:	00412483          	lw	s1,4(sp)
    aea0:	00012903          	lw	s2,0(sp)
    aea4:	01010113          	add	sp,sp,16
    aea8:	00008067          	ret
    aeac:	00100913          	li	s2,1
    aeb0:	e806dee3          	bgez	a3,ad4c <__mdiff+0x64>
    aeb4:	ea9ff06f          	j	ad5c <__mdiff+0x74>
    aeb8:	00140713          	add	a4,s0,1
    aebc:	00271713          	sll	a4,a4,0x2
    aec0:	f55ff06f          	j	ae14 <__mdiff+0x12c>
    aec4:	00000593          	li	a1,0
    aec8:	b50ff0ef          	jal	a218 <_Balloc>
    aecc:	06050063          	beqz	a0,af2c <__mdiff+0x244>
    aed0:	00c12083          	lw	ra,12(sp)
    aed4:	00812403          	lw	s0,8(sp)
    aed8:	00100793          	li	a5,1
    aedc:	00f52823          	sw	a5,16(a0)
    aee0:	00052a23          	sw	zero,20(a0)
    aee4:	00412483          	lw	s1,4(sp)
    aee8:	00012903          	lw	s2,0(sp)
    aeec:	01010113          	add	sp,sp,16
    aef0:	00008067          	ret
    aef4:	00000713          	li	a4,0
    aef8:	000f1663          	bnez	t5,af04 <__mdiff+0x21c>
    aefc:	00e58733          	add	a4,a1,a4
    af00:	f7dff06f          	j	ae7c <__mdiff+0x194>
    af04:	00241713          	sll	a4,s0,0x2
    af08:	00e58733          	add	a4,a1,a4
    af0c:	f71ff06f          	j	ae7c <__mdiff+0x194>
    af10:	00009697          	auipc	a3,0x9
    af14:	02468693          	add	a3,a3,36 # 13f34 <__flash_rodata_start+0x94>
    af18:	00000613          	li	a2,0
    af1c:	24500593          	li	a1,581
    af20:	00009517          	auipc	a0,0x9
    af24:	06050513          	add	a0,a0,96 # 13f80 <__flash_rodata_start+0xe0>
    af28:	505000ef          	jal	bc2c <__assert_func>
    af2c:	00009697          	auipc	a3,0x9
    af30:	00868693          	add	a3,a3,8 # 13f34 <__flash_rodata_start+0x94>
    af34:	00000613          	li	a2,0
    af38:	23700593          	li	a1,567
    af3c:	00009517          	auipc	a0,0x9
    af40:	04450513          	add	a0,a0,68 # 13f80 <__flash_rodata_start+0xe0>
    af44:	4e9000ef          	jal	bc2c <__assert_func>

0000af48 <__ulp>:
    af48:	7ff007b7          	lui	a5,0x7ff00
    af4c:	00b7f5b3          	and	a1,a5,a1
    af50:	fcc007b7          	lui	a5,0xfcc00
    af54:	00f585b3          	add	a1,a1,a5
    af58:	00000793          	li	a5,0
    af5c:	00b05663          	blez	a1,af68 <__ulp+0x20>
    af60:	00078513          	mv	a0,a5
    af64:	00008067          	ret
    af68:	40b005b3          	neg	a1,a1
    af6c:	4145d593          	sra	a1,a1,0x14
    af70:	01300793          	li	a5,19
    af74:	00b7cc63          	blt	a5,a1,af8c <__ulp+0x44>
    af78:	000807b7          	lui	a5,0x80
    af7c:	40b7d5b3          	sra	a1,a5,a1
    af80:	00000793          	li	a5,0
    af84:	00078513          	mv	a0,a5
    af88:	00008067          	ret
    af8c:	fec58593          	add	a1,a1,-20
    af90:	01e00713          	li	a4,30
    af94:	00100793          	li	a5,1
    af98:	00b74663          	blt	a4,a1,afa4 <__ulp+0x5c>
    af9c:	800007b7          	lui	a5,0x80000
    afa0:	00b7d7b3          	srl	a5,a5,a1
    afa4:	00000593          	li	a1,0
    afa8:	00078513          	mv	a0,a5
    afac:	00008067          	ret

0000afb0 <__b2d>:
    afb0:	fe010113          	add	sp,sp,-32
    afb4:	00912a23          	sw	s1,20(sp)
    afb8:	01052483          	lw	s1,16(a0)
    afbc:	00812c23          	sw	s0,24(sp)
    afc0:	01450413          	add	s0,a0,20
    afc4:	00249493          	sll	s1,s1,0x2
    afc8:	009404b3          	add	s1,s0,s1
    afcc:	01212823          	sw	s2,16(sp)
    afd0:	ffc4a903          	lw	s2,-4(s1)
    afd4:	01312623          	sw	s3,12(sp)
    afd8:	01412423          	sw	s4,8(sp)
    afdc:	00090513          	mv	a0,s2
    afe0:	00058993          	mv	s3,a1
    afe4:	00112e23          	sw	ra,28(sp)
    afe8:	d8cff0ef          	jal	a574 <__hi0bits>
    afec:	02000713          	li	a4,32
    aff0:	40a707b3          	sub	a5,a4,a0
    aff4:	00f9a023          	sw	a5,0(s3)
    aff8:	00a00793          	li	a5,10
    affc:	ffc48a13          	add	s4,s1,-4
    b000:	08a7dc63          	bge	a5,a0,b098 <__b2d+0xe8>
    b004:	ff550613          	add	a2,a0,-11
    b008:	05447063          	bgeu	s0,s4,b048 <__b2d+0x98>
    b00c:	ff84a783          	lw	a5,-8(s1)
    b010:	04060c63          	beqz	a2,b068 <__b2d+0xb8>
    b014:	40c706b3          	sub	a3,a4,a2
    b018:	00d7d733          	srl	a4,a5,a3
    b01c:	00c91933          	sll	s2,s2,a2
    b020:	00e96933          	or	s2,s2,a4
    b024:	ff848593          	add	a1,s1,-8
    b028:	3ff00737          	lui	a4,0x3ff00
    b02c:	00e96733          	or	a4,s2,a4
    b030:	00c797b3          	sll	a5,a5,a2
    b034:	02b47e63          	bgeu	s0,a1,b070 <__b2d+0xc0>
    b038:	ff44a603          	lw	a2,-12(s1)
    b03c:	00d656b3          	srl	a3,a2,a3
    b040:	00d7e7b3          	or	a5,a5,a3
    b044:	02c0006f          	j	b070 <__b2d+0xc0>
    b048:	00b00793          	li	a5,11
    b04c:	00f50c63          	beq	a0,a5,b064 <__b2d+0xb4>
    b050:	00c91933          	sll	s2,s2,a2
    b054:	3ff00737          	lui	a4,0x3ff00
    b058:	00e96733          	or	a4,s2,a4
    b05c:	00000793          	li	a5,0
    b060:	0100006f          	j	b070 <__b2d+0xc0>
    b064:	00000793          	li	a5,0
    b068:	3ff00737          	lui	a4,0x3ff00
    b06c:	00e96733          	or	a4,s2,a4
    b070:	01c12083          	lw	ra,28(sp)
    b074:	01812403          	lw	s0,24(sp)
    b078:	01412483          	lw	s1,20(sp)
    b07c:	01012903          	lw	s2,16(sp)
    b080:	00c12983          	lw	s3,12(sp)
    b084:	00812a03          	lw	s4,8(sp)
    b088:	00078513          	mv	a0,a5
    b08c:	00070593          	mv	a1,a4
    b090:	02010113          	add	sp,sp,32
    b094:	00008067          	ret
    b098:	00b00693          	li	a3,11
    b09c:	40a686b3          	sub	a3,a3,a0
    b0a0:	3ff007b7          	lui	a5,0x3ff00
    b0a4:	00d95733          	srl	a4,s2,a3
    b0a8:	00f76733          	or	a4,a4,a5
    b0ac:	00000793          	li	a5,0
    b0b0:	01447663          	bgeu	s0,s4,b0bc <__b2d+0x10c>
    b0b4:	ff84a783          	lw	a5,-8(s1)
    b0b8:	00d7d7b3          	srl	a5,a5,a3
    b0bc:	01550513          	add	a0,a0,21
    b0c0:	00a91933          	sll	s2,s2,a0
    b0c4:	00f967b3          	or	a5,s2,a5
    b0c8:	fa9ff06f          	j	b070 <__b2d+0xc0>

0000b0cc <__d2b>:
    b0cc:	fd010113          	add	sp,sp,-48
    b0d0:	01512a23          	sw	s5,20(sp)
    b0d4:	00058a93          	mv	s5,a1
    b0d8:	00100593          	li	a1,1
    b0dc:	02912223          	sw	s1,36(sp)
    b0e0:	01312e23          	sw	s3,28(sp)
    b0e4:	01412c23          	sw	s4,24(sp)
    b0e8:	02112623          	sw	ra,44(sp)
    b0ec:	02812423          	sw	s0,40(sp)
    b0f0:	03212023          	sw	s2,32(sp)
    b0f4:	00060493          	mv	s1,a2
    b0f8:	00068a13          	mv	s4,a3
    b0fc:	00070993          	mv	s3,a4
    b100:	918ff0ef          	jal	a218 <_Balloc>
    b104:	10050263          	beqz	a0,b208 <__d2b+0x13c>
    b108:	00100737          	lui	a4,0x100
    b10c:	0144d913          	srl	s2,s1,0x14
    b110:	fff70793          	add	a5,a4,-1 # fffff <__alt_data_end+0xdffff>
    b114:	7ff97913          	and	s2,s2,2047
    b118:	00050413          	mv	s0,a0
    b11c:	0097f7b3          	and	a5,a5,s1
    b120:	00090463          	beqz	s2,b128 <__d2b+0x5c>
    b124:	00e7e7b3          	or	a5,a5,a4
    b128:	00f12623          	sw	a5,12(sp)
    b12c:	060a9263          	bnez	s5,b190 <__d2b+0xc4>
    b130:	00c10513          	add	a0,sp,12
    b134:	cb8ff0ef          	jal	a5ec <__lo0bits>
    b138:	00c12703          	lw	a4,12(sp)
    b13c:	00100493          	li	s1,1
    b140:	00942823          	sw	s1,16(s0)
    b144:	00e42a23          	sw	a4,20(s0)
    b148:	02050793          	add	a5,a0,32
    b14c:	08090863          	beqz	s2,b1dc <__d2b+0x110>
    b150:	bcd90913          	add	s2,s2,-1075
    b154:	00f90933          	add	s2,s2,a5
    b158:	03500493          	li	s1,53
    b15c:	012a2023          	sw	s2,0(s4)
    b160:	40f48533          	sub	a0,s1,a5
    b164:	00a9a023          	sw	a0,0(s3)
    b168:	02c12083          	lw	ra,44(sp)
    b16c:	00040513          	mv	a0,s0
    b170:	02812403          	lw	s0,40(sp)
    b174:	02412483          	lw	s1,36(sp)
    b178:	02012903          	lw	s2,32(sp)
    b17c:	01c12983          	lw	s3,28(sp)
    b180:	01812a03          	lw	s4,24(sp)
    b184:	01412a83          	lw	s5,20(sp)
    b188:	03010113          	add	sp,sp,48
    b18c:	00008067          	ret
    b190:	00810513          	add	a0,sp,8
    b194:	01512423          	sw	s5,8(sp)
    b198:	c54ff0ef          	jal	a5ec <__lo0bits>
    b19c:	00c12703          	lw	a4,12(sp)
    b1a0:	00050793          	mv	a5,a0
    b1a4:	04050e63          	beqz	a0,b200 <__d2b+0x134>
    b1a8:	00812603          	lw	a2,8(sp)
    b1ac:	02000693          	li	a3,32
    b1b0:	40a686b3          	sub	a3,a3,a0
    b1b4:	00d716b3          	sll	a3,a4,a3
    b1b8:	00a75733          	srl	a4,a4,a0
    b1bc:	00c6e6b3          	or	a3,a3,a2
    b1c0:	00e12623          	sw	a4,12(sp)
    b1c4:	00e034b3          	snez	s1,a4
    b1c8:	00148493          	add	s1,s1,1
    b1cc:	00d42a23          	sw	a3,20(s0)
    b1d0:	00e42c23          	sw	a4,24(s0)
    b1d4:	00942823          	sw	s1,16(s0)
    b1d8:	f6091ce3          	bnez	s2,b150 <__d2b+0x84>
    b1dc:	00249713          	sll	a4,s1,0x2
    b1e0:	00e40733          	add	a4,s0,a4
    b1e4:	01072503          	lw	a0,16(a4)
    b1e8:	bce78793          	add	a5,a5,-1074 # 3feffbce <__alt_data_end+0x3fedfbce>
    b1ec:	00fa2023          	sw	a5,0(s4)
    b1f0:	b84ff0ef          	jal	a574 <__hi0bits>
    b1f4:	00549493          	sll	s1,s1,0x5
    b1f8:	40a48533          	sub	a0,s1,a0
    b1fc:	f69ff06f          	j	b164 <__d2b+0x98>
    b200:	00812683          	lw	a3,8(sp)
    b204:	fc1ff06f          	j	b1c4 <__d2b+0xf8>
    b208:	00009697          	auipc	a3,0x9
    b20c:	d2c68693          	add	a3,a3,-724 # 13f34 <__flash_rodata_start+0x94>
    b210:	00000613          	li	a2,0
    b214:	30f00593          	li	a1,783
    b218:	00009517          	auipc	a0,0x9
    b21c:	d6850513          	add	a0,a0,-664 # 13f80 <__flash_rodata_start+0xe0>
    b220:	20d000ef          	jal	bc2c <__assert_func>

0000b224 <__ratio>:
    b224:	fd010113          	add	sp,sp,-48
    b228:	03212023          	sw	s2,32(sp)
    b22c:	00058913          	mv	s2,a1
    b230:	00810593          	add	a1,sp,8
    b234:	02112623          	sw	ra,44(sp)
    b238:	02812423          	sw	s0,40(sp)
    b23c:	02912223          	sw	s1,36(sp)
    b240:	01312e23          	sw	s3,28(sp)
    b244:	00050993          	mv	s3,a0
    b248:	d69ff0ef          	jal	afb0 <__b2d>
    b24c:	00050493          	mv	s1,a0
    b250:	00058413          	mv	s0,a1
    b254:	00090513          	mv	a0,s2
    b258:	00c10593          	add	a1,sp,12
    b25c:	d55ff0ef          	jal	afb0 <__b2d>
    b260:	01092703          	lw	a4,16(s2)
    b264:	0109a783          	lw	a5,16(s3)
    b268:	00c12683          	lw	a3,12(sp)
    b26c:	40e787b3          	sub	a5,a5,a4
    b270:	00812703          	lw	a4,8(sp)
    b274:	00579793          	sll	a5,a5,0x5
    b278:	40d70733          	sub	a4,a4,a3
    b27c:	00e787b3          	add	a5,a5,a4
    b280:	00050713          	mv	a4,a0
    b284:	02f05e63          	blez	a5,b2c0 <__ratio+0x9c>
    b288:	01479793          	sll	a5,a5,0x14
    b28c:	00878433          	add	s0,a5,s0
    b290:	00058693          	mv	a3,a1
    b294:	00048513          	mv	a0,s1
    b298:	00040593          	mv	a1,s0
    b29c:	00070613          	mv	a2,a4
    b2a0:	5cd020ef          	jal	e06c <__divdf3>
    b2a4:	02c12083          	lw	ra,44(sp)
    b2a8:	02812403          	lw	s0,40(sp)
    b2ac:	02412483          	lw	s1,36(sp)
    b2b0:	02012903          	lw	s2,32(sp)
    b2b4:	01c12983          	lw	s3,28(sp)
    b2b8:	03010113          	add	sp,sp,48
    b2bc:	00008067          	ret
    b2c0:	01479793          	sll	a5,a5,0x14
    b2c4:	40f585b3          	sub	a1,a1,a5
    b2c8:	fc9ff06f          	j	b290 <__ratio+0x6c>

0000b2cc <_mprec_log10>:
    b2cc:	ff010113          	add	sp,sp,-16
    b2d0:	01212023          	sw	s2,0(sp)
    b2d4:	00112623          	sw	ra,12(sp)
    b2d8:	01700793          	li	a5,23
    b2dc:	00050913          	mv	s2,a0
    b2e0:	06a7d263          	bge	a5,a0,b344 <_mprec_log10+0x78>
    b2e4:	00009717          	auipc	a4,0x9
    b2e8:	51c70713          	add	a4,a4,1308 # 14800 <__clz_tab+0x130>
    b2ec:	00072783          	lw	a5,0(a4)
    b2f0:	00472583          	lw	a1,4(a4)
    b2f4:	00009717          	auipc	a4,0x9
    b2f8:	51470713          	add	a4,a4,1300 # 14808 <__clz_tab+0x138>
    b2fc:	00812423          	sw	s0,8(sp)
    b300:	00912223          	sw	s1,4(sp)
    b304:	00072403          	lw	s0,0(a4)
    b308:	00472483          	lw	s1,4(a4)
    b30c:	00078513          	mv	a0,a5
    b310:	00040613          	mv	a2,s0
    b314:	00048693          	mv	a3,s1
    b318:	774030ef          	jal	ea8c <__muldf3>
    b31c:	fff90913          	add	s2,s2,-1
    b320:	00050793          	mv	a5,a0
    b324:	fe0914e3          	bnez	s2,b30c <_mprec_log10+0x40>
    b328:	00812403          	lw	s0,8(sp)
    b32c:	00c12083          	lw	ra,12(sp)
    b330:	00412483          	lw	s1,4(sp)
    b334:	00012903          	lw	s2,0(sp)
    b338:	00078513          	mv	a0,a5
    b33c:	01010113          	add	sp,sp,16
    b340:	00008067          	ret
    b344:	00351913          	sll	s2,a0,0x3
    b348:	00009717          	auipc	a4,0x9
    b34c:	f9070713          	add	a4,a4,-112 # 142d8 <p05.0>
    b350:	01270733          	add	a4,a4,s2
    b354:	01072783          	lw	a5,16(a4)
    b358:	00c12083          	lw	ra,12(sp)
    b35c:	01472583          	lw	a1,20(a4)
    b360:	00012903          	lw	s2,0(sp)
    b364:	00078513          	mv	a0,a5
    b368:	01010113          	add	sp,sp,16
    b36c:	00008067          	ret

0000b370 <__copybits>:
    b370:	01062683          	lw	a3,16(a2)
    b374:	fff58593          	add	a1,a1,-1
    b378:	4055d593          	sra	a1,a1,0x5
    b37c:	00158593          	add	a1,a1,1
    b380:	01460793          	add	a5,a2,20
    b384:	00269693          	sll	a3,a3,0x2
    b388:	00259593          	sll	a1,a1,0x2
    b38c:	00d786b3          	add	a3,a5,a3
    b390:	00b505b3          	add	a1,a0,a1
    b394:	02d7f863          	bgeu	a5,a3,b3c4 <__copybits+0x54>
    b398:	00050713          	mv	a4,a0
    b39c:	0007a803          	lw	a6,0(a5)
    b3a0:	00478793          	add	a5,a5,4
    b3a4:	00470713          	add	a4,a4,4
    b3a8:	ff072e23          	sw	a6,-4(a4)
    b3ac:	fed7e8e3          	bltu	a5,a3,b39c <__copybits+0x2c>
    b3b0:	40c687b3          	sub	a5,a3,a2
    b3b4:	feb78793          	add	a5,a5,-21
    b3b8:	ffc7f793          	and	a5,a5,-4
    b3bc:	00478793          	add	a5,a5,4
    b3c0:	00f50533          	add	a0,a0,a5
    b3c4:	00b57863          	bgeu	a0,a1,b3d4 <__copybits+0x64>
    b3c8:	00450513          	add	a0,a0,4
    b3cc:	fe052e23          	sw	zero,-4(a0)
    b3d0:	feb56ce3          	bltu	a0,a1,b3c8 <__copybits+0x58>
    b3d4:	00008067          	ret

0000b3d8 <__any_on>:
    b3d8:	01052703          	lw	a4,16(a0)
    b3dc:	4055d613          	sra	a2,a1,0x5
    b3e0:	01450693          	add	a3,a0,20
    b3e4:	02c75263          	bge	a4,a2,b408 <__any_on+0x30>
    b3e8:	00271713          	sll	a4,a4,0x2
    b3ec:	00e687b3          	add	a5,a3,a4
    b3f0:	04f6f263          	bgeu	a3,a5,b434 <__any_on+0x5c>
    b3f4:	ffc7a703          	lw	a4,-4(a5)
    b3f8:	ffc78793          	add	a5,a5,-4
    b3fc:	fe070ae3          	beqz	a4,b3f0 <__any_on+0x18>
    b400:	00100513          	li	a0,1
    b404:	00008067          	ret
    b408:	00261793          	sll	a5,a2,0x2
    b40c:	00f687b3          	add	a5,a3,a5
    b410:	fee650e3          	bge	a2,a4,b3f0 <__any_on+0x18>
    b414:	01f5f593          	and	a1,a1,31
    b418:	fc058ce3          	beqz	a1,b3f0 <__any_on+0x18>
    b41c:	0007a603          	lw	a2,0(a5)
    b420:	00100513          	li	a0,1
    b424:	00b65733          	srl	a4,a2,a1
    b428:	00b71733          	sll	a4,a4,a1
    b42c:	fce602e3          	beq	a2,a4,b3f0 <__any_on+0x18>
    b430:	00008067          	ret
    b434:	00000513          	li	a0,0
    b438:	00008067          	ret

0000b43c <_realloc_r>:
    b43c:	fd010113          	add	sp,sp,-48
    b440:	02912223          	sw	s1,36(sp)
    b444:	02112623          	sw	ra,44(sp)
    b448:	00060493          	mv	s1,a2
    b44c:	1e058863          	beqz	a1,b63c <_realloc_r+0x200>
    b450:	02812423          	sw	s0,40(sp)
    b454:	03212023          	sw	s2,32(sp)
    b458:	00058413          	mv	s0,a1
    b45c:	01312e23          	sw	s3,28(sp)
    b460:	01512a23          	sw	s5,20(sp)
    b464:	01412c23          	sw	s4,24(sp)
    b468:	00050913          	mv	s2,a0
    b46c:	8a9f80ef          	jal	3d14 <__malloc_lock>
    b470:	ffc42703          	lw	a4,-4(s0)
    b474:	00b48793          	add	a5,s1,11
    b478:	01600693          	li	a3,22
    b47c:	ff840a93          	add	s5,s0,-8
    b480:	ffc77993          	and	s3,a4,-4
    b484:	10f6f263          	bgeu	a3,a5,b588 <_realloc_r+0x14c>
    b488:	ff87fa13          	and	s4,a5,-8
    b48c:	1007c263          	bltz	a5,b590 <_realloc_r+0x154>
    b490:	109a6063          	bltu	s4,s1,b590 <_realloc_r+0x154>
    b494:	1349d263          	bge	s3,s4,b5b8 <_realloc_r+0x17c>
    b498:	01812423          	sw	s8,8(sp)
    b49c:	0000ac17          	auipc	s8,0xa
    b4a0:	6ccc0c13          	add	s8,s8,1740 # 15b68 <__malloc_av_>
    b4a4:	008c2603          	lw	a2,8(s8)
    b4a8:	013a86b3          	add	a3,s5,s3
    b4ac:	0046a783          	lw	a5,4(a3)
    b4b0:	1cd60863          	beq	a2,a3,b680 <_realloc_r+0x244>
    b4b4:	ffe7f613          	and	a2,a5,-2
    b4b8:	00c68633          	add	a2,a3,a2
    b4bc:	00462603          	lw	a2,4(a2)
    b4c0:	00167613          	and	a2,a2,1
    b4c4:	14061a63          	bnez	a2,b618 <_realloc_r+0x1dc>
    b4c8:	ffc7f793          	and	a5,a5,-4
    b4cc:	00f98633          	add	a2,s3,a5
    b4d0:	0d465863          	bge	a2,s4,b5a0 <_realloc_r+0x164>
    b4d4:	00177713          	and	a4,a4,1
    b4d8:	02071c63          	bnez	a4,b510 <_realloc_r+0xd4>
    b4dc:	01712623          	sw	s7,12(sp)
    b4e0:	ff842b83          	lw	s7,-8(s0)
    b4e4:	01612823          	sw	s6,16(sp)
    b4e8:	417a8bb3          	sub	s7,s5,s7
    b4ec:	004ba703          	lw	a4,4(s7)
    b4f0:	ffc77713          	and	a4,a4,-4
    b4f4:	00e787b3          	add	a5,a5,a4
    b4f8:	01378b33          	add	s6,a5,s3
    b4fc:	334b5c63          	bge	s6,s4,b834 <_realloc_r+0x3f8>
    b500:	00e98b33          	add	s6,s3,a4
    b504:	294b5863          	bge	s6,s4,b794 <_realloc_r+0x358>
    b508:	01012b03          	lw	s6,16(sp)
    b50c:	00c12b83          	lw	s7,12(sp)
    b510:	00048593          	mv	a1,s1
    b514:	00090513          	mv	a0,s2
    b518:	820f80ef          	jal	3538 <_malloc_r>
    b51c:	00050493          	mv	s1,a0
    b520:	40050863          	beqz	a0,b930 <_realloc_r+0x4f4>
    b524:	ffc42783          	lw	a5,-4(s0)
    b528:	ff850713          	add	a4,a0,-8
    b52c:	ffe7f793          	and	a5,a5,-2
    b530:	00fa87b3          	add	a5,s5,a5
    b534:	24e78663          	beq	a5,a4,b780 <_realloc_r+0x344>
    b538:	ffc98613          	add	a2,s3,-4
    b53c:	02400793          	li	a5,36
    b540:	2ec7e463          	bltu	a5,a2,b828 <_realloc_r+0x3ec>
    b544:	01300713          	li	a4,19
    b548:	20c76a63          	bltu	a4,a2,b75c <_realloc_r+0x320>
    b54c:	00050793          	mv	a5,a0
    b550:	00040713          	mv	a4,s0
    b554:	00072683          	lw	a3,0(a4)
    b558:	00d7a023          	sw	a3,0(a5)
    b55c:	00472683          	lw	a3,4(a4)
    b560:	00d7a223          	sw	a3,4(a5)
    b564:	00872703          	lw	a4,8(a4)
    b568:	00e7a423          	sw	a4,8(a5)
    b56c:	00040593          	mv	a1,s0
    b570:	00090513          	mv	a0,s2
    b574:	ca5f70ef          	jal	3218 <_free_r>
    b578:	00090513          	mv	a0,s2
    b57c:	fa4f80ef          	jal	3d20 <__malloc_unlock>
    b580:	00812c03          	lw	s8,8(sp)
    b584:	06c0006f          	j	b5f0 <_realloc_r+0x1b4>
    b588:	01000a13          	li	s4,16
    b58c:	f09a74e3          	bgeu	s4,s1,b494 <_realloc_r+0x58>
    b590:	00c00793          	li	a5,12
    b594:	00f92023          	sw	a5,0(s2)
    b598:	00000493          	li	s1,0
    b59c:	0540006f          	j	b5f0 <_realloc_r+0x1b4>
    b5a0:	00c6a783          	lw	a5,12(a3)
    b5a4:	0086a703          	lw	a4,8(a3)
    b5a8:	00812c03          	lw	s8,8(sp)
    b5ac:	00060993          	mv	s3,a2
    b5b0:	00f72623          	sw	a5,12(a4)
    b5b4:	00e7a423          	sw	a4,8(a5)
    b5b8:	004aa783          	lw	a5,4(s5)
    b5bc:	414986b3          	sub	a3,s3,s4
    b5c0:	00f00613          	li	a2,15
    b5c4:	0017f793          	and	a5,a5,1
    b5c8:	013a8733          	add	a4,s5,s3
    b5cc:	08d66263          	bltu	a2,a3,b650 <_realloc_r+0x214>
    b5d0:	0137e7b3          	or	a5,a5,s3
    b5d4:	00faa223          	sw	a5,4(s5)
    b5d8:	00472783          	lw	a5,4(a4)
    b5dc:	0017e793          	or	a5,a5,1
    b5e0:	00f72223          	sw	a5,4(a4)
    b5e4:	00090513          	mv	a0,s2
    b5e8:	f38f80ef          	jal	3d20 <__malloc_unlock>
    b5ec:	00040493          	mv	s1,s0
    b5f0:	02812403          	lw	s0,40(sp)
    b5f4:	02c12083          	lw	ra,44(sp)
    b5f8:	02012903          	lw	s2,32(sp)
    b5fc:	01c12983          	lw	s3,28(sp)
    b600:	01812a03          	lw	s4,24(sp)
    b604:	01412a83          	lw	s5,20(sp)
    b608:	00048513          	mv	a0,s1
    b60c:	02412483          	lw	s1,36(sp)
    b610:	03010113          	add	sp,sp,48
    b614:	00008067          	ret
    b618:	00177713          	and	a4,a4,1
    b61c:	ee071ae3          	bnez	a4,b510 <_realloc_r+0xd4>
    b620:	01712623          	sw	s7,12(sp)
    b624:	ff842b83          	lw	s7,-8(s0)
    b628:	01612823          	sw	s6,16(sp)
    b62c:	417a8bb3          	sub	s7,s5,s7
    b630:	004ba703          	lw	a4,4(s7)
    b634:	ffc77713          	and	a4,a4,-4
    b638:	ec9ff06f          	j	b500 <_realloc_r+0xc4>
    b63c:	02c12083          	lw	ra,44(sp)
    b640:	02412483          	lw	s1,36(sp)
    b644:	00060593          	mv	a1,a2
    b648:	03010113          	add	sp,sp,48
    b64c:	eedf706f          	j	3538 <_malloc_r>
    b650:	0147e7b3          	or	a5,a5,s4
    b654:	00faa223          	sw	a5,4(s5)
    b658:	014a85b3          	add	a1,s5,s4
    b65c:	0016e693          	or	a3,a3,1
    b660:	00d5a223          	sw	a3,4(a1)
    b664:	00472783          	lw	a5,4(a4)
    b668:	00858593          	add	a1,a1,8
    b66c:	00090513          	mv	a0,s2
    b670:	0017e793          	or	a5,a5,1
    b674:	00f72223          	sw	a5,4(a4)
    b678:	ba1f70ef          	jal	3218 <_free_r>
    b67c:	f69ff06f          	j	b5e4 <_realloc_r+0x1a8>
    b680:	ffc7f793          	and	a5,a5,-4
    b684:	013786b3          	add	a3,a5,s3
    b688:	010a0613          	add	a2,s4,16
    b68c:	26c6d063          	bge	a3,a2,b8ec <_realloc_r+0x4b0>
    b690:	00177713          	and	a4,a4,1
    b694:	e6071ee3          	bnez	a4,b510 <_realloc_r+0xd4>
    b698:	01712623          	sw	s7,12(sp)
    b69c:	ff842b83          	lw	s7,-8(s0)
    b6a0:	01612823          	sw	s6,16(sp)
    b6a4:	417a8bb3          	sub	s7,s5,s7
    b6a8:	004ba703          	lw	a4,4(s7)
    b6ac:	ffc77713          	and	a4,a4,-4
    b6b0:	00e787b3          	add	a5,a5,a4
    b6b4:	01378b33          	add	s6,a5,s3
    b6b8:	e4cb44e3          	blt	s6,a2,b500 <_realloc_r+0xc4>
    b6bc:	00cba783          	lw	a5,12(s7)
    b6c0:	008ba703          	lw	a4,8(s7)
    b6c4:	ffc98613          	add	a2,s3,-4
    b6c8:	02400693          	li	a3,36
    b6cc:	00f72623          	sw	a5,12(a4)
    b6d0:	00e7a423          	sw	a4,8(a5)
    b6d4:	008b8493          	add	s1,s7,8
    b6d8:	28c6e463          	bltu	a3,a2,b960 <_realloc_r+0x524>
    b6dc:	01300713          	li	a4,19
    b6e0:	00048793          	mv	a5,s1
    b6e4:	02c77263          	bgeu	a4,a2,b708 <_realloc_r+0x2cc>
    b6e8:	00042703          	lw	a4,0(s0)
    b6ec:	01b00793          	li	a5,27
    b6f0:	00eba423          	sw	a4,8(s7)
    b6f4:	00442703          	lw	a4,4(s0)
    b6f8:	00eba623          	sw	a4,12(s7)
    b6fc:	26c7ea63          	bltu	a5,a2,b970 <_realloc_r+0x534>
    b700:	00840413          	add	s0,s0,8
    b704:	010b8793          	add	a5,s7,16
    b708:	00042703          	lw	a4,0(s0)
    b70c:	00e7a023          	sw	a4,0(a5)
    b710:	00442703          	lw	a4,4(s0)
    b714:	00e7a223          	sw	a4,4(a5)
    b718:	00842703          	lw	a4,8(s0)
    b71c:	00e7a423          	sw	a4,8(a5)
    b720:	014b8733          	add	a4,s7,s4
    b724:	414b07b3          	sub	a5,s6,s4
    b728:	00ec2423          	sw	a4,8(s8)
    b72c:	0017e793          	or	a5,a5,1
    b730:	00f72223          	sw	a5,4(a4)
    b734:	004ba783          	lw	a5,4(s7)
    b738:	00090513          	mv	a0,s2
    b73c:	0017f793          	and	a5,a5,1
    b740:	0147e7b3          	or	a5,a5,s4
    b744:	00fba223          	sw	a5,4(s7)
    b748:	dd8f80ef          	jal	3d20 <__malloc_unlock>
    b74c:	01012b03          	lw	s6,16(sp)
    b750:	00c12b83          	lw	s7,12(sp)
    b754:	00812c03          	lw	s8,8(sp)
    b758:	e99ff06f          	j	b5f0 <_realloc_r+0x1b4>
    b75c:	00042683          	lw	a3,0(s0)
    b760:	01b00713          	li	a4,27
    b764:	00d52023          	sw	a3,0(a0)
    b768:	00442683          	lw	a3,4(s0)
    b76c:	00d52223          	sw	a3,4(a0)
    b770:	14c76e63          	bltu	a4,a2,b8cc <_realloc_r+0x490>
    b774:	00840713          	add	a4,s0,8
    b778:	00850793          	add	a5,a0,8
    b77c:	dd9ff06f          	j	b554 <_realloc_r+0x118>
    b780:	ffc52783          	lw	a5,-4(a0)
    b784:	00812c03          	lw	s8,8(sp)
    b788:	ffc7f793          	and	a5,a5,-4
    b78c:	00f989b3          	add	s3,s3,a5
    b790:	e29ff06f          	j	b5b8 <_realloc_r+0x17c>
    b794:	00cba783          	lw	a5,12(s7)
    b798:	008ba703          	lw	a4,8(s7)
    b79c:	ffc98613          	add	a2,s3,-4
    b7a0:	02400693          	li	a3,36
    b7a4:	00f72623          	sw	a5,12(a4)
    b7a8:	00e7a423          	sw	a4,8(a5)
    b7ac:	008b8493          	add	s1,s7,8
    b7b0:	10c6e663          	bltu	a3,a2,b8bc <_realloc_r+0x480>
    b7b4:	01300713          	li	a4,19
    b7b8:	00048793          	mv	a5,s1
    b7bc:	02c77c63          	bgeu	a4,a2,b7f4 <_realloc_r+0x3b8>
    b7c0:	00042703          	lw	a4,0(s0)
    b7c4:	01b00793          	li	a5,27
    b7c8:	00eba423          	sw	a4,8(s7)
    b7cc:	00442703          	lw	a4,4(s0)
    b7d0:	00eba623          	sw	a4,12(s7)
    b7d4:	14c7f863          	bgeu	a5,a2,b924 <_realloc_r+0x4e8>
    b7d8:	00842783          	lw	a5,8(s0)
    b7dc:	00fba823          	sw	a5,16(s7)
    b7e0:	00c42783          	lw	a5,12(s0)
    b7e4:	00fbaa23          	sw	a5,20(s7)
    b7e8:	0ad60c63          	beq	a2,a3,b8a0 <_realloc_r+0x464>
    b7ec:	01040413          	add	s0,s0,16
    b7f0:	018b8793          	add	a5,s7,24
    b7f4:	00042703          	lw	a4,0(s0)
    b7f8:	00e7a023          	sw	a4,0(a5)
    b7fc:	00442703          	lw	a4,4(s0)
    b800:	00e7a223          	sw	a4,4(a5)
    b804:	00842703          	lw	a4,8(s0)
    b808:	00e7a423          	sw	a4,8(a5)
    b80c:	000b0993          	mv	s3,s6
    b810:	000b8a93          	mv	s5,s7
    b814:	01012b03          	lw	s6,16(sp)
    b818:	00c12b83          	lw	s7,12(sp)
    b81c:	00812c03          	lw	s8,8(sp)
    b820:	00048413          	mv	s0,s1
    b824:	d95ff06f          	j	b5b8 <_realloc_r+0x17c>
    b828:	00040593          	mv	a1,s0
    b82c:	9b4fc0ef          	jal	79e0 <memmove>
    b830:	d3dff06f          	j	b56c <_realloc_r+0x130>
    b834:	00c6a783          	lw	a5,12(a3)
    b838:	0086a703          	lw	a4,8(a3)
    b83c:	ffc98613          	add	a2,s3,-4
    b840:	02400693          	li	a3,36
    b844:	00f72623          	sw	a5,12(a4)
    b848:	00e7a423          	sw	a4,8(a5)
    b84c:	008ba703          	lw	a4,8(s7)
    b850:	00cba783          	lw	a5,12(s7)
    b854:	008b8493          	add	s1,s7,8
    b858:	00f72623          	sw	a5,12(a4)
    b85c:	00e7a423          	sw	a4,8(a5)
    b860:	04c6ee63          	bltu	a3,a2,b8bc <_realloc_r+0x480>
    b864:	01300713          	li	a4,19
    b868:	00048793          	mv	a5,s1
    b86c:	f8c774e3          	bgeu	a4,a2,b7f4 <_realloc_r+0x3b8>
    b870:	00042703          	lw	a4,0(s0)
    b874:	01b00793          	li	a5,27
    b878:	00eba423          	sw	a4,8(s7)
    b87c:	00442703          	lw	a4,4(s0)
    b880:	00eba623          	sw	a4,12(s7)
    b884:	0ac7f063          	bgeu	a5,a2,b924 <_realloc_r+0x4e8>
    b888:	00842703          	lw	a4,8(s0)
    b88c:	02400793          	li	a5,36
    b890:	00eba823          	sw	a4,16(s7)
    b894:	00c42703          	lw	a4,12(s0)
    b898:	00ebaa23          	sw	a4,20(s7)
    b89c:	f4f618e3          	bne	a2,a5,b7ec <_realloc_r+0x3b0>
    b8a0:	01042703          	lw	a4,16(s0)
    b8a4:	020b8793          	add	a5,s7,32
    b8a8:	01840413          	add	s0,s0,24
    b8ac:	00ebac23          	sw	a4,24(s7)
    b8b0:	ffc42703          	lw	a4,-4(s0)
    b8b4:	00ebae23          	sw	a4,28(s7)
    b8b8:	f3dff06f          	j	b7f4 <_realloc_r+0x3b8>
    b8bc:	00040593          	mv	a1,s0
    b8c0:	00048513          	mv	a0,s1
    b8c4:	91cfc0ef          	jal	79e0 <memmove>
    b8c8:	f45ff06f          	j	b80c <_realloc_r+0x3d0>
    b8cc:	00842703          	lw	a4,8(s0)
    b8d0:	00e52423          	sw	a4,8(a0)
    b8d4:	00c42703          	lw	a4,12(s0)
    b8d8:	00e52623          	sw	a4,12(a0)
    b8dc:	06f60463          	beq	a2,a5,b944 <_realloc_r+0x508>
    b8e0:	01040713          	add	a4,s0,16
    b8e4:	01050793          	add	a5,a0,16
    b8e8:	c6dff06f          	j	b554 <_realloc_r+0x118>
    b8ec:	014a8ab3          	add	s5,s5,s4
    b8f0:	414687b3          	sub	a5,a3,s4
    b8f4:	015c2423          	sw	s5,8(s8)
    b8f8:	0017e793          	or	a5,a5,1
    b8fc:	00faa223          	sw	a5,4(s5)
    b900:	ffc42783          	lw	a5,-4(s0)
    b904:	00090513          	mv	a0,s2
    b908:	00040493          	mv	s1,s0
    b90c:	0017f793          	and	a5,a5,1
    b910:	0147e7b3          	or	a5,a5,s4
    b914:	fef42e23          	sw	a5,-4(s0)
    b918:	c08f80ef          	jal	3d20 <__malloc_unlock>
    b91c:	00812c03          	lw	s8,8(sp)
    b920:	cd1ff06f          	j	b5f0 <_realloc_r+0x1b4>
    b924:	00840413          	add	s0,s0,8
    b928:	010b8793          	add	a5,s7,16
    b92c:	ec9ff06f          	j	b7f4 <_realloc_r+0x3b8>
    b930:	00090513          	mv	a0,s2
    b934:	becf80ef          	jal	3d20 <__malloc_unlock>
    b938:	00000493          	li	s1,0
    b93c:	00812c03          	lw	s8,8(sp)
    b940:	cb1ff06f          	j	b5f0 <_realloc_r+0x1b4>
    b944:	01042683          	lw	a3,16(s0)
    b948:	01840713          	add	a4,s0,24
    b94c:	01850793          	add	a5,a0,24
    b950:	00d52823          	sw	a3,16(a0)
    b954:	01442683          	lw	a3,20(s0)
    b958:	00d52a23          	sw	a3,20(a0)
    b95c:	bf9ff06f          	j	b554 <_realloc_r+0x118>
    b960:	00040593          	mv	a1,s0
    b964:	00048513          	mv	a0,s1
    b968:	878fc0ef          	jal	79e0 <memmove>
    b96c:	db5ff06f          	j	b720 <_realloc_r+0x2e4>
    b970:	00842783          	lw	a5,8(s0)
    b974:	00fba823          	sw	a5,16(s7)
    b978:	00c42783          	lw	a5,12(s0)
    b97c:	00fbaa23          	sw	a5,20(s7)
    b980:	00d60863          	beq	a2,a3,b990 <_realloc_r+0x554>
    b984:	01040413          	add	s0,s0,16
    b988:	018b8793          	add	a5,s7,24
    b98c:	d7dff06f          	j	b708 <_realloc_r+0x2cc>
    b990:	01042703          	lw	a4,16(s0)
    b994:	020b8793          	add	a5,s7,32
    b998:	01840413          	add	s0,s0,24
    b99c:	00ebac23          	sw	a4,24(s7)
    b9a0:	ffc42703          	lw	a4,-4(s0)
    b9a4:	00ebae23          	sw	a4,28(s7)
    b9a8:	d61ff06f          	j	b708 <_realloc_r+0x2cc>

0000b9ac <_setlocale_r>:
    b9ac:	04060063          	beqz	a2,b9ec <_setlocale_r+0x40>
    b9b0:	ff010113          	add	sp,sp,-16
    b9b4:	00008597          	auipc	a1,0x8
    b9b8:	60458593          	add	a1,a1,1540 # 13fb8 <__flash_rodata_start+0x118>
    b9bc:	00060513          	mv	a0,a2
    b9c0:	00812423          	sw	s0,8(sp)
    b9c4:	00112623          	sw	ra,12(sp)
    b9c8:	00060413          	mv	s0,a2
    b9cc:	0e4000ef          	jal	bab0 <strcmp>
    b9d0:	02051463          	bnez	a0,b9f8 <_setlocale_r+0x4c>
    b9d4:	00008517          	auipc	a0,0x8
    b9d8:	5e050513          	add	a0,a0,1504 # 13fb4 <__flash_rodata_start+0x114>
    b9dc:	00c12083          	lw	ra,12(sp)
    b9e0:	00812403          	lw	s0,8(sp)
    b9e4:	01010113          	add	sp,sp,16
    b9e8:	00008067          	ret
    b9ec:	00008517          	auipc	a0,0x8
    b9f0:	5c850513          	add	a0,a0,1480 # 13fb4 <__flash_rodata_start+0x114>
    b9f4:	00008067          	ret
    b9f8:	00008597          	auipc	a1,0x8
    b9fc:	5bc58593          	add	a1,a1,1468 # 13fb4 <__flash_rodata_start+0x114>
    ba00:	00040513          	mv	a0,s0
    ba04:	0ac000ef          	jal	bab0 <strcmp>
    ba08:	fc0506e3          	beqz	a0,b9d4 <_setlocale_r+0x28>
    ba0c:	00008597          	auipc	a1,0x8
    ba10:	62458593          	add	a1,a1,1572 # 14030 <__flash_rodata_start+0x190>
    ba14:	00040513          	mv	a0,s0
    ba18:	098000ef          	jal	bab0 <strcmp>
    ba1c:	fa050ce3          	beqz	a0,b9d4 <_setlocale_r+0x28>
    ba20:	00000513          	li	a0,0
    ba24:	fb9ff06f          	j	b9dc <_setlocale_r+0x30>

0000ba28 <__locale_mb_cur_max>:
    ba28:	0000a517          	auipc	a0,0xa
    ba2c:	67054503          	lbu	a0,1648(a0) # 16098 <__global_locale+0x128>
    ba30:	00008067          	ret

0000ba34 <setlocale>:
    ba34:	04058063          	beqz	a1,ba74 <setlocale+0x40>
    ba38:	ff010113          	add	sp,sp,-16
    ba3c:	00812423          	sw	s0,8(sp)
    ba40:	00058413          	mv	s0,a1
    ba44:	00040513          	mv	a0,s0
    ba48:	00008597          	auipc	a1,0x8
    ba4c:	57058593          	add	a1,a1,1392 # 13fb8 <__flash_rodata_start+0x118>
    ba50:	00112623          	sw	ra,12(sp)
    ba54:	05c000ef          	jal	bab0 <strcmp>
    ba58:	02051463          	bnez	a0,ba80 <setlocale+0x4c>
    ba5c:	00008517          	auipc	a0,0x8
    ba60:	55850513          	add	a0,a0,1368 # 13fb4 <__flash_rodata_start+0x114>
    ba64:	00c12083          	lw	ra,12(sp)
    ba68:	00812403          	lw	s0,8(sp)
    ba6c:	01010113          	add	sp,sp,16
    ba70:	00008067          	ret
    ba74:	00008517          	auipc	a0,0x8
    ba78:	54050513          	add	a0,a0,1344 # 13fb4 <__flash_rodata_start+0x114>
    ba7c:	00008067          	ret
    ba80:	00008597          	auipc	a1,0x8
    ba84:	53458593          	add	a1,a1,1332 # 13fb4 <__flash_rodata_start+0x114>
    ba88:	00040513          	mv	a0,s0
    ba8c:	024000ef          	jal	bab0 <strcmp>
    ba90:	fc0506e3          	beqz	a0,ba5c <setlocale+0x28>
    ba94:	00008597          	auipc	a1,0x8
    ba98:	59c58593          	add	a1,a1,1436 # 14030 <__flash_rodata_start+0x190>
    ba9c:	00040513          	mv	a0,s0
    baa0:	010000ef          	jal	bab0 <strcmp>
    baa4:	fa050ce3          	beqz	a0,ba5c <setlocale+0x28>
    baa8:	00000513          	li	a0,0
    baac:	fb9ff06f          	j	ba64 <setlocale+0x30>

0000bab0 <strcmp>:
    bab0:	00b56733          	or	a4,a0,a1
    bab4:	fff00393          	li	t2,-1
    bab8:	00377713          	and	a4,a4,3
    babc:	10071063          	bnez	a4,bbbc <strcmp+0x10c>
    bac0:	7f7f87b7          	lui	a5,0x7f7f8
    bac4:	f7f78793          	add	a5,a5,-129 # 7f7f7f7f <__alt_data_end+0x7f7d7f7f>
    bac8:	00052603          	lw	a2,0(a0)
    bacc:	0005a683          	lw	a3,0(a1)
    bad0:	00f672b3          	and	t0,a2,a5
    bad4:	00f66333          	or	t1,a2,a5
    bad8:	00f282b3          	add	t0,t0,a5
    badc:	0062e2b3          	or	t0,t0,t1
    bae0:	10729263          	bne	t0,t2,bbe4 <strcmp+0x134>
    bae4:	08d61663          	bne	a2,a3,bb70 <strcmp+0xc0>
    bae8:	00452603          	lw	a2,4(a0)
    baec:	0045a683          	lw	a3,4(a1)
    baf0:	00f672b3          	and	t0,a2,a5
    baf4:	00f66333          	or	t1,a2,a5
    baf8:	00f282b3          	add	t0,t0,a5
    bafc:	0062e2b3          	or	t0,t0,t1
    bb00:	0c729e63          	bne	t0,t2,bbdc <strcmp+0x12c>
    bb04:	06d61663          	bne	a2,a3,bb70 <strcmp+0xc0>
    bb08:	00852603          	lw	a2,8(a0)
    bb0c:	0085a683          	lw	a3,8(a1)
    bb10:	00f672b3          	and	t0,a2,a5
    bb14:	00f66333          	or	t1,a2,a5
    bb18:	00f282b3          	add	t0,t0,a5
    bb1c:	0062e2b3          	or	t0,t0,t1
    bb20:	0c729863          	bne	t0,t2,bbf0 <strcmp+0x140>
    bb24:	04d61663          	bne	a2,a3,bb70 <strcmp+0xc0>
    bb28:	00c52603          	lw	a2,12(a0)
    bb2c:	00c5a683          	lw	a3,12(a1)
    bb30:	00f672b3          	and	t0,a2,a5
    bb34:	00f66333          	or	t1,a2,a5
    bb38:	00f282b3          	add	t0,t0,a5
    bb3c:	0062e2b3          	or	t0,t0,t1
    bb40:	0c729263          	bne	t0,t2,bc04 <strcmp+0x154>
    bb44:	02d61663          	bne	a2,a3,bb70 <strcmp+0xc0>
    bb48:	01052603          	lw	a2,16(a0)
    bb4c:	0105a683          	lw	a3,16(a1)
    bb50:	00f672b3          	and	t0,a2,a5
    bb54:	00f66333          	or	t1,a2,a5
    bb58:	00f282b3          	add	t0,t0,a5
    bb5c:	0062e2b3          	or	t0,t0,t1
    bb60:	0a729c63          	bne	t0,t2,bc18 <strcmp+0x168>
    bb64:	01450513          	add	a0,a0,20
    bb68:	01458593          	add	a1,a1,20
    bb6c:	f4d60ee3          	beq	a2,a3,bac8 <strcmp+0x18>
    bb70:	01061713          	sll	a4,a2,0x10
    bb74:	01069793          	sll	a5,a3,0x10
    bb78:	00f71e63          	bne	a4,a5,bb94 <strcmp+0xe4>
    bb7c:	01065713          	srl	a4,a2,0x10
    bb80:	0106d793          	srl	a5,a3,0x10
    bb84:	40f70533          	sub	a0,a4,a5
    bb88:	0ff57593          	zext.b	a1,a0
    bb8c:	02059063          	bnez	a1,bbac <strcmp+0xfc>
    bb90:	00008067          	ret
    bb94:	01075713          	srl	a4,a4,0x10
    bb98:	0107d793          	srl	a5,a5,0x10
    bb9c:	40f70533          	sub	a0,a4,a5
    bba0:	0ff57593          	zext.b	a1,a0
    bba4:	00059463          	bnez	a1,bbac <strcmp+0xfc>
    bba8:	00008067          	ret
    bbac:	0ff77713          	zext.b	a4,a4
    bbb0:	0ff7f793          	zext.b	a5,a5
    bbb4:	40f70533          	sub	a0,a4,a5
    bbb8:	00008067          	ret
    bbbc:	00054603          	lbu	a2,0(a0)
    bbc0:	0005c683          	lbu	a3,0(a1)
    bbc4:	00150513          	add	a0,a0,1
    bbc8:	00158593          	add	a1,a1,1
    bbcc:	00d61463          	bne	a2,a3,bbd4 <strcmp+0x124>
    bbd0:	fe0616e3          	bnez	a2,bbbc <strcmp+0x10c>
    bbd4:	40d60533          	sub	a0,a2,a3
    bbd8:	00008067          	ret
    bbdc:	00450513          	add	a0,a0,4
    bbe0:	00458593          	add	a1,a1,4
    bbe4:	fcd61ce3          	bne	a2,a3,bbbc <strcmp+0x10c>
    bbe8:	00000513          	li	a0,0
    bbec:	00008067          	ret
    bbf0:	00850513          	add	a0,a0,8
    bbf4:	00858593          	add	a1,a1,8
    bbf8:	fcd612e3          	bne	a2,a3,bbbc <strcmp+0x10c>
    bbfc:	00000513          	li	a0,0
    bc00:	00008067          	ret
    bc04:	00c50513          	add	a0,a0,12
    bc08:	00c58593          	add	a1,a1,12
    bc0c:	fad618e3          	bne	a2,a3,bbbc <strcmp+0x10c>
    bc10:	00000513          	li	a0,0
    bc14:	00008067          	ret
    bc18:	01050513          	add	a0,a0,16
    bc1c:	01058593          	add	a1,a1,16
    bc20:	f8d61ee3          	bne	a2,a3,bbbc <strcmp+0x10c>
    bc24:	00000513          	li	a0,0
    bc28:	00008067          	ret

0000bc2c <__assert_func>:
    bc2c:	ff010113          	add	sp,sp,-16
    bc30:	00068793          	mv	a5,a3
    bc34:	8201a703          	lw	a4,-2016(gp) # 160fc <_impure_ptr>
    bc38:	00060813          	mv	a6,a2
    bc3c:	00112623          	sw	ra,12(sp)
    bc40:	00c72883          	lw	a7,12(a4)
    bc44:	00078613          	mv	a2,a5
    bc48:	00050693          	mv	a3,a0
    bc4c:	00058713          	mv	a4,a1
    bc50:	00008797          	auipc	a5,0x8
    bc54:	37478793          	add	a5,a5,884 # 13fc4 <__flash_rodata_start+0x124>
    bc58:	00080c63          	beqz	a6,bc70 <__assert_func+0x44>
    bc5c:	00008597          	auipc	a1,0x8
    bc60:	37858593          	add	a1,a1,888 # 13fd4 <__flash_rodata_start+0x134>
    bc64:	00088513          	mv	a0,a7
    bc68:	1fc000ef          	jal	be64 <fiprintf>
    bc6c:	57c010ef          	jal	d1e8 <abort>
    bc70:	00008797          	auipc	a5,0x8
    bc74:	3c078793          	add	a5,a5,960 # 14030 <__flash_rodata_start+0x190>
    bc78:	00078813          	mv	a6,a5
    bc7c:	fe1ff06f          	j	bc5c <__assert_func+0x30>

0000bc80 <__assert>:
    bc80:	ff010113          	add	sp,sp,-16
    bc84:	00060693          	mv	a3,a2
    bc88:	00000613          	li	a2,0
    bc8c:	00112623          	sw	ra,12(sp)
    bc90:	f9dff0ef          	jal	bc2c <__assert_func>

0000bc94 <_calloc_r>:
    bc94:	02c5b7b3          	mulhu	a5,a1,a2
    bc98:	ff010113          	add	sp,sp,-16
    bc9c:	00112623          	sw	ra,12(sp)
    bca0:	00812423          	sw	s0,8(sp)
    bca4:	02c585b3          	mul	a1,a1,a2
    bca8:	0a079063          	bnez	a5,bd48 <_calloc_r+0xb4>
    bcac:	88df70ef          	jal	3538 <_malloc_r>
    bcb0:	00050413          	mv	s0,a0
    bcb4:	0a050063          	beqz	a0,bd54 <_calloc_r+0xc0>
    bcb8:	ffc52603          	lw	a2,-4(a0)
    bcbc:	02400713          	li	a4,36
    bcc0:	ffc67613          	and	a2,a2,-4
    bcc4:	ffc60613          	add	a2,a2,-4
    bcc8:	04c76863          	bltu	a4,a2,bd18 <_calloc_r+0x84>
    bccc:	01300693          	li	a3,19
    bcd0:	00050793          	mv	a5,a0
    bcd4:	02c6f263          	bgeu	a3,a2,bcf8 <_calloc_r+0x64>
    bcd8:	00052023          	sw	zero,0(a0)
    bcdc:	00052223          	sw	zero,4(a0)
    bce0:	01b00793          	li	a5,27
    bce4:	04c7f863          	bgeu	a5,a2,bd34 <_calloc_r+0xa0>
    bce8:	00052423          	sw	zero,8(a0)
    bcec:	00052623          	sw	zero,12(a0)
    bcf0:	01050793          	add	a5,a0,16
    bcf4:	06e60c63          	beq	a2,a4,bd6c <_calloc_r+0xd8>
    bcf8:	0007a023          	sw	zero,0(a5)
    bcfc:	0007a223          	sw	zero,4(a5)
    bd00:	0007a423          	sw	zero,8(a5)
    bd04:	00c12083          	lw	ra,12(sp)
    bd08:	00040513          	mv	a0,s0
    bd0c:	00812403          	lw	s0,8(sp)
    bd10:	01010113          	add	sp,sp,16
    bd14:	00008067          	ret
    bd18:	00000593          	li	a1,0
    bd1c:	ee5f60ef          	jal	2c00 <memset>
    bd20:	00c12083          	lw	ra,12(sp)
    bd24:	00040513          	mv	a0,s0
    bd28:	00812403          	lw	s0,8(sp)
    bd2c:	01010113          	add	sp,sp,16
    bd30:	00008067          	ret
    bd34:	00850793          	add	a5,a0,8
    bd38:	0007a023          	sw	zero,0(a5)
    bd3c:	0007a223          	sw	zero,4(a5)
    bd40:	0007a423          	sw	zero,8(a5)
    bd44:	fc1ff06f          	j	bd04 <_calloc_r+0x70>
    bd48:	498010ef          	jal	d1e0 <__errno>
    bd4c:	00c00793          	li	a5,12
    bd50:	00f52023          	sw	a5,0(a0)
    bd54:	00000413          	li	s0,0
    bd58:	00c12083          	lw	ra,12(sp)
    bd5c:	00040513          	mv	a0,s0
    bd60:	00812403          	lw	s0,8(sp)
    bd64:	01010113          	add	sp,sp,16
    bd68:	00008067          	ret
    bd6c:	00052823          	sw	zero,16(a0)
    bd70:	01850793          	add	a5,a0,24
    bd74:	00052a23          	sw	zero,20(a0)
    bd78:	f81ff06f          	j	bcf8 <_calloc_r+0x64>

0000bd7c <_mbtowc_r>:
    bd7c:	0000a797          	auipc	a5,0xa
    bd80:	2d87a783          	lw	a5,728(a5) # 16054 <__global_locale+0xe4>
    bd84:	00078067          	jr	a5

0000bd88 <__ascii_mbtowc>:
    bd88:	02058063          	beqz	a1,bda8 <__ascii_mbtowc+0x20>
    bd8c:	04060263          	beqz	a2,bdd0 <__ascii_mbtowc+0x48>
    bd90:	04068863          	beqz	a3,bde0 <__ascii_mbtowc+0x58>
    bd94:	00064783          	lbu	a5,0(a2)
    bd98:	00f5a023          	sw	a5,0(a1)
    bd9c:	00064503          	lbu	a0,0(a2)
    bda0:	00a03533          	snez	a0,a0
    bda4:	00008067          	ret
    bda8:	ff010113          	add	sp,sp,-16
    bdac:	00c10593          	add	a1,sp,12
    bdb0:	02060463          	beqz	a2,bdd8 <__ascii_mbtowc+0x50>
    bdb4:	02068a63          	beqz	a3,bde8 <__ascii_mbtowc+0x60>
    bdb8:	00064783          	lbu	a5,0(a2)
    bdbc:	00f5a023          	sw	a5,0(a1)
    bdc0:	00064503          	lbu	a0,0(a2)
    bdc4:	00a03533          	snez	a0,a0
    bdc8:	01010113          	add	sp,sp,16
    bdcc:	00008067          	ret
    bdd0:	00000513          	li	a0,0
    bdd4:	00008067          	ret
    bdd8:	00000513          	li	a0,0
    bddc:	fedff06f          	j	bdc8 <__ascii_mbtowc+0x40>
    bde0:	ffe00513          	li	a0,-2
    bde4:	00008067          	ret
    bde8:	ffe00513          	li	a0,-2
    bdec:	fddff06f          	j	bdc8 <__ascii_mbtowc+0x40>

0000bdf0 <_wctomb_r>:
    bdf0:	0000a797          	auipc	a5,0xa
    bdf4:	2607a783          	lw	a5,608(a5) # 16050 <__global_locale+0xe0>
    bdf8:	00078067          	jr	a5

0000bdfc <__ascii_wctomb>:
    bdfc:	02058463          	beqz	a1,be24 <__ascii_wctomb+0x28>
    be00:	0ff00793          	li	a5,255
    be04:	00c7e863          	bltu	a5,a2,be14 <__ascii_wctomb+0x18>
    be08:	00c58023          	sb	a2,0(a1)
    be0c:	00100513          	li	a0,1
    be10:	00008067          	ret
    be14:	08a00793          	li	a5,138
    be18:	00f52023          	sw	a5,0(a0)
    be1c:	fff00513          	li	a0,-1
    be20:	00008067          	ret
    be24:	00000513          	li	a0,0
    be28:	00008067          	ret

0000be2c <_fiprintf_r>:
    be2c:	fc010113          	add	sp,sp,-64
    be30:	02c10313          	add	t1,sp,44
    be34:	02d12623          	sw	a3,44(sp)
    be38:	00030693          	mv	a3,t1
    be3c:	00112e23          	sw	ra,28(sp)
    be40:	02e12823          	sw	a4,48(sp)
    be44:	02f12a23          	sw	a5,52(sp)
    be48:	03012c23          	sw	a6,56(sp)
    be4c:	03112e23          	sw	a7,60(sp)
    be50:	00612623          	sw	t1,12(sp)
    be54:	058000ef          	jal	beac <_vfiprintf_r>
    be58:	01c12083          	lw	ra,28(sp)
    be5c:	04010113          	add	sp,sp,64
    be60:	00008067          	ret

0000be64 <fiprintf>:
    be64:	fc010113          	add	sp,sp,-64
    be68:	02810313          	add	t1,sp,40
    be6c:	02c12423          	sw	a2,40(sp)
    be70:	02d12623          	sw	a3,44(sp)
    be74:	00058613          	mv	a2,a1
    be78:	00030693          	mv	a3,t1
    be7c:	00050593          	mv	a1,a0
    be80:	8201a503          	lw	a0,-2016(gp) # 160fc <_impure_ptr>
    be84:	00112e23          	sw	ra,28(sp)
    be88:	02e12823          	sw	a4,48(sp)
    be8c:	02f12a23          	sw	a5,52(sp)
    be90:	03012c23          	sw	a6,56(sp)
    be94:	03112e23          	sw	a7,60(sp)
    be98:	00612623          	sw	t1,12(sp)
    be9c:	010000ef          	jal	beac <_vfiprintf_r>
    bea0:	01c12083          	lw	ra,28(sp)
    bea4:	04010113          	add	sp,sp,64
    bea8:	00008067          	ret

0000beac <_vfiprintf_r>:
    beac:	ed010113          	add	sp,sp,-304
    beb0:	11312e23          	sw	s3,284(sp)
    beb4:	11512a23          	sw	s5,276(sp)
    beb8:	11612823          	sw	s6,272(sp)
    bebc:	11712623          	sw	s7,268(sp)
    bec0:	12112623          	sw	ra,300(sp)
    bec4:	0fb12e23          	sw	s11,252(sp)
    bec8:	00050b93          	mv	s7,a0
    becc:	00058a93          	mv	s5,a1
    bed0:	00060993          	mv	s3,a2
    bed4:	00068b13          	mv	s6,a3
    bed8:	00050863          	beqz	a0,bee8 <_vfiprintf_r+0x3c>
    bedc:	03452783          	lw	a5,52(a0)
    bee0:	00079463          	bnez	a5,bee8 <_vfiprintf_r+0x3c>
    bee4:	7f10006f          	j	ced4 <_vfiprintf_r+0x1028>
    bee8:	064aa783          	lw	a5,100(s5)
    beec:	00ca9703          	lh	a4,12(s5)
    bef0:	0017f693          	and	a3,a5,1
    bef4:	00069663          	bnez	a3,bf00 <_vfiprintf_r+0x54>
    bef8:	20077693          	and	a3,a4,512
    befc:	5a0686e3          	beqz	a3,cca8 <_vfiprintf_r+0xdfc>
    bf00:	01271693          	sll	a3,a4,0x12
    bf04:	0206c063          	bltz	a3,bf24 <_vfiprintf_r+0x78>
    bf08:	ffffe6b7          	lui	a3,0xffffe
    bf0c:	fff68693          	add	a3,a3,-1 # ffffdfff <__alt_data_end+0xfffddfff>
    bf10:	00002637          	lui	a2,0x2
    bf14:	00c76733          	or	a4,a4,a2
    bf18:	00d7f7b3          	and	a5,a5,a3
    bf1c:	00ea9623          	sh	a4,12(s5)
    bf20:	06faa223          	sw	a5,100(s5)
    bf24:	01279713          	sll	a4,a5,0x12
    bf28:	00075463          	bgez	a4,bf30 <_vfiprintf_r+0x84>
    bf2c:	1680106f          	j	d094 <_vfiprintf_r+0x11e8>
    bf30:	00ca9703          	lh	a4,12(s5)
    bf34:	00877793          	and	a5,a4,8
    bf38:	26078263          	beqz	a5,c19c <_vfiprintf_r+0x2f0>
    bf3c:	010aa783          	lw	a5,16(s5)
    bf40:	24078e63          	beqz	a5,c19c <_vfiprintf_r+0x2f0>
    bf44:	01a77793          	and	a5,a4,26
    bf48:	00a00693          	li	a3,10
    bf4c:	26d78863          	beq	a5,a3,c1bc <_vfiprintf_r+0x310>
    bf50:	11812423          	sw	s8,264(sp)
    bf54:	00000d93          	li	s11,0
    bf58:	04c10c13          	add	s8,sp,76
    bf5c:	12812423          	sw	s0,296(sp)
    bf60:	11412c23          	sw	s4,280(sp)
    bf64:	11912223          	sw	s9,260(sp)
    bf68:	11a12023          	sw	s10,256(sp)
    bf6c:	01712023          	sw	s7,0(sp)
    bf70:	12912223          	sw	s1,292(sp)
    bf74:	13212023          	sw	s2,288(sp)
    bf78:	05812023          	sw	s8,64(sp)
    bf7c:	04012423          	sw	zero,72(sp)
    bf80:	04012223          	sw	zero,68(sp)
    bf84:	000c0413          	mv	s0,s8
    bf88:	00012223          	sw	zero,4(sp)
    bf8c:	00012a23          	sw	zero,20(sp)
    bf90:	00012c23          	sw	zero,24(sp)
    bf94:	00012e23          	sw	zero,28(sp)
    bf98:	00008d17          	auipc	s10,0x8
    bf9c:	56cd0d13          	add	s10,s10,1388 # 14504 <_ctype_+0x104>
    bfa0:	01000a13          	li	s4,16
    bfa4:	00008c97          	auipc	s9,0x8
    bfa8:	6dcc8c93          	add	s9,s9,1756 # 14680 <zeroes.0>
    bfac:	000d8b93          	mv	s7,s11
    bfb0:	000b0813          	mv	a6,s6
    bfb4:	0009c783          	lbu	a5,0(s3)
    bfb8:	1c078663          	beqz	a5,c184 <_vfiprintf_r+0x2d8>
    bfbc:	00098493          	mv	s1,s3
    bfc0:	02500713          	li	a4,37
    bfc4:	2ce78663          	beq	a5,a4,c290 <_vfiprintf_r+0x3e4>
    bfc8:	0014c783          	lbu	a5,1(s1)
    bfcc:	00148493          	add	s1,s1,1
    bfd0:	fe079ae3          	bnez	a5,bfc4 <_vfiprintf_r+0x118>
    bfd4:	41348933          	sub	s2,s1,s3
    bfd8:	1b348663          	beq	s1,s3,c184 <_vfiprintf_r+0x2d8>
    bfdc:	04812703          	lw	a4,72(sp)
    bfe0:	04412783          	lw	a5,68(sp)
    bfe4:	01342023          	sw	s3,0(s0)
    bfe8:	01270733          	add	a4,a4,s2
    bfec:	00178793          	add	a5,a5,1
    bff0:	01242223          	sw	s2,4(s0)
    bff4:	04e12423          	sw	a4,72(sp)
    bff8:	04f12223          	sw	a5,68(sp)
    bffc:	00700713          	li	a4,7
    c000:	00840413          	add	s0,s0,8
    c004:	28f74e63          	blt	a4,a5,c2a0 <_vfiprintf_r+0x3f4>
    c008:	0004c783          	lbu	a5,0(s1)
    c00c:	012b8bb3          	add	s7,s7,s2
    c010:	16078a63          	beqz	a5,c184 <_vfiprintf_r+0x2d8>
    c014:	0014c703          	lbu	a4,1(s1)
    c018:	00148993          	add	s3,s1,1
    c01c:	02010da3          	sb	zero,59(sp)
    c020:	fff00493          	li	s1,-1
    c024:	00000b13          	li	s6,0
    c028:	00000d93          	li	s11,0
    c02c:	05a00913          	li	s2,90
    c030:	00198993          	add	s3,s3,1
    c034:	fe070793          	add	a5,a4,-32
    c038:	04f96663          	bltu	s2,a5,c084 <_vfiprintf_r+0x1d8>
    c03c:	00279793          	sll	a5,a5,0x2
    c040:	01a787b3          	add	a5,a5,s10
    c044:	0007a783          	lw	a5,0(a5)
    c048:	01a787b3          	add	a5,a5,s10
    c04c:	00078067          	jr	a5
    c050:	00000b13          	li	s6,0
    c054:	fd070793          	add	a5,a4,-48
    c058:	00900613          	li	a2,9
    c05c:	0009c703          	lbu	a4,0(s3)
    c060:	002b1693          	sll	a3,s6,0x2
    c064:	01668b33          	add	s6,a3,s6
    c068:	001b1b13          	sll	s6,s6,0x1
    c06c:	01678b33          	add	s6,a5,s6
    c070:	fd070793          	add	a5,a4,-48
    c074:	00198993          	add	s3,s3,1
    c078:	fef672e3          	bgeu	a2,a5,c05c <_vfiprintf_r+0x1b0>
    c07c:	fe070793          	add	a5,a4,-32
    c080:	faf97ee3          	bgeu	s2,a5,c03c <_vfiprintf_r+0x190>
    c084:	10070063          	beqz	a4,c184 <_vfiprintf_r+0x2d8>
    c088:	08e10623          	sb	a4,140(sp)
    c08c:	02010da3          	sb	zero,59(sp)
    c090:	00100693          	li	a3,1
    c094:	00100893          	li	a7,1
    c098:	08c10913          	add	s2,sp,140
    c09c:	00000493          	li	s1,0
    c0a0:	00000f13          	li	t5,0
    c0a4:	084dff93          	and	t6,s11,132
    c0a8:	04812603          	lw	a2,72(sp)
    c0ac:	04412783          	lw	a5,68(sp)
    c0b0:	000f9663          	bnez	t6,c0bc <_vfiprintf_r+0x210>
    c0b4:	40db0733          	sub	a4,s6,a3
    c0b8:	22e042e3          	bgtz	a4,cadc <_vfiprintf_r+0xc30>
    c0bc:	03b14703          	lbu	a4,59(sp)
    c0c0:	02070863          	beqz	a4,c0f0 <_vfiprintf_r+0x244>
    c0c4:	03b10713          	add	a4,sp,59
    c0c8:	00e42023          	sw	a4,0(s0)
    c0cc:	00178793          	add	a5,a5,1
    c0d0:	00100713          	li	a4,1
    c0d4:	00160613          	add	a2,a2,1 # 2001 <global_stdio_init.part.0+0x9>
    c0d8:	00e42223          	sw	a4,4(s0)
    c0dc:	04c12423          	sw	a2,72(sp)
    c0e0:	04f12223          	sw	a5,68(sp)
    c0e4:	00700713          	li	a4,7
    c0e8:	00840413          	add	s0,s0,8
    c0ec:	24f74863          	blt	a4,a5,c33c <_vfiprintf_r+0x490>
    c0f0:	020f0863          	beqz	t5,c120 <_vfiprintf_r+0x274>
    c0f4:	03c10713          	add	a4,sp,60
    c0f8:	00e42023          	sw	a4,0(s0)
    c0fc:	00178793          	add	a5,a5,1
    c100:	00200713          	li	a4,2
    c104:	00260613          	add	a2,a2,2
    c108:	00e42223          	sw	a4,4(s0)
    c10c:	04c12423          	sw	a2,72(sp)
    c110:	04f12223          	sw	a5,68(sp)
    c114:	00700713          	li	a4,7
    c118:	00840413          	add	s0,s0,8
    c11c:	2ef746e3          	blt	a4,a5,cc08 <_vfiprintf_r+0xd5c>
    c120:	08000713          	li	a4,128
    c124:	76ef8c63          	beq	t6,a4,c89c <_vfiprintf_r+0x9f0>
    c128:	411484b3          	sub	s1,s1,a7
    c12c:	089044e3          	bgtz	s1,c9b4 <_vfiprintf_r+0xb08>
    c130:	00c88633          	add	a2,a7,a2
    c134:	00178793          	add	a5,a5,1
    c138:	01242023          	sw	s2,0(s0)
    c13c:	01142223          	sw	a7,4(s0)
    c140:	04c12423          	sw	a2,72(sp)
    c144:	04f12223          	sw	a5,68(sp)
    c148:	00700713          	li	a4,7
    c14c:	00840413          	add	s0,s0,8
    c150:	14f74ee3          	blt	a4,a5,caac <_vfiprintf_r+0xc00>
    c154:	004dfd93          	and	s11,s11,4
    c158:	000d8663          	beqz	s11,c164 <_vfiprintf_r+0x2b8>
    c15c:	40db04b3          	sub	s1,s6,a3
    c160:	22904463          	bgtz	s1,c388 <_vfiprintf_r+0x4dc>
    c164:	00db5463          	bge	s6,a3,c16c <_vfiprintf_r+0x2c0>
    c168:	00068b13          	mv	s6,a3
    c16c:	016b8bb3          	add	s7,s7,s6
    c170:	14061a63          	bnez	a2,c2c4 <_vfiprintf_r+0x418>
    c174:	0009c783          	lbu	a5,0(s3)
    c178:	04012223          	sw	zero,68(sp)
    c17c:	000c0413          	mv	s0,s8
    c180:	e2079ee3          	bnez	a5,bfbc <_vfiprintf_r+0x110>
    c184:	04812783          	lw	a5,72(sp)
    c188:	000b8d93          	mv	s11,s7
    c18c:	00012b83          	lw	s7,0(sp)
    c190:	680790e3          	bnez	a5,d010 <_vfiprintf_r+0x1164>
    c194:	04012223          	sw	zero,68(sp)
    c198:	14c0006f          	j	c2e4 <_vfiprintf_r+0x438>
    c19c:	000a8593          	mv	a1,s5
    c1a0:	000b8513          	mv	a0,s7
    c1a4:	b9cfb0ef          	jal	7540 <__swsetup_r>
    c1a8:	6e0514e3          	bnez	a0,d090 <_vfiprintf_r+0x11e4>
    c1ac:	00ca9703          	lh	a4,12(s5)
    c1b0:	00a00693          	li	a3,10
    c1b4:	01a77793          	and	a5,a4,26
    c1b8:	d8d79ce3          	bne	a5,a3,bf50 <_vfiprintf_r+0xa4>
    c1bc:	00ea9783          	lh	a5,14(s5)
    c1c0:	d807c8e3          	bltz	a5,bf50 <_vfiprintf_r+0xa4>
    c1c4:	064aa783          	lw	a5,100(s5)
    c1c8:	0017f793          	and	a5,a5,1
    c1cc:	00079663          	bnez	a5,c1d8 <_vfiprintf_r+0x32c>
    c1d0:	20077713          	and	a4,a4,512
    c1d4:	6a0702e3          	beqz	a4,d078 <_vfiprintf_r+0x11cc>
    c1d8:	12c12083          	lw	ra,300(sp)
    c1dc:	0fc12d83          	lw	s11,252(sp)
    c1e0:	000b0693          	mv	a3,s6
    c1e4:	00098613          	mv	a2,s3
    c1e8:	11012b03          	lw	s6,272(sp)
    c1ec:	11c12983          	lw	s3,284(sp)
    c1f0:	000a8593          	mv	a1,s5
    c1f4:	000b8513          	mv	a0,s7
    c1f8:	11412a83          	lw	s5,276(sp)
    c1fc:	10c12b83          	lw	s7,268(sp)
    c200:	13010113          	add	sp,sp,304
    c204:	6e50006f          	j	d0e8 <__sbprintf>
    c208:	00082b03          	lw	s6,0(a6)
    c20c:	00480813          	add	a6,a6,4
    c210:	360b4463          	bltz	s6,c578 <_vfiprintf_r+0x6cc>
    c214:	0009c703          	lbu	a4,0(s3)
    c218:	e19ff06f          	j	c030 <_vfiprintf_r+0x184>
    c21c:	0009c703          	lbu	a4,0(s3)
    c220:	020ded93          	or	s11,s11,32
    c224:	e0dff06f          	j	c030 <_vfiprintf_r+0x184>
    c228:	010ded93          	or	s11,s11,16
    c22c:	020df793          	and	a5,s11,32
    c230:	24078a63          	beqz	a5,c484 <_vfiprintf_r+0x5d8>
    c234:	00780813          	add	a6,a6,7
    c238:	ff887813          	and	a6,a6,-8
    c23c:	00482703          	lw	a4,4(a6)
    c240:	00082783          	lw	a5,0(a6)
    c244:	00880813          	add	a6,a6,8
    c248:	00070893          	mv	a7,a4
    c24c:	26074263          	bltz	a4,c4b0 <_vfiprintf_r+0x604>
    c250:	2804c063          	bltz	s1,c4d0 <_vfiprintf_r+0x624>
    c254:	0117e733          	or	a4,a5,a7
    c258:	f7fdfd93          	and	s11,s11,-129
    c25c:	26071a63          	bnez	a4,c4d0 <_vfiprintf_r+0x624>
    c260:	600498e3          	bnez	s1,d070 <_vfiprintf_r+0x11c4>
    c264:	03b14783          	lbu	a5,59(sp)
    c268:	00000693          	li	a3,0
    c26c:	00000893          	li	a7,0
    c270:	0f010913          	add	s2,sp,240
    c274:	00078463          	beqz	a5,c27c <_vfiprintf_r+0x3d0>
    c278:	00168693          	add	a3,a3,1
    c27c:	002dff13          	and	t5,s11,2
    c280:	e20f02e3          	beqz	t5,c0a4 <_vfiprintf_r+0x1f8>
    c284:	00268693          	add	a3,a3,2
    c288:	00200f13          	li	t5,2
    c28c:	e19ff06f          	j	c0a4 <_vfiprintf_r+0x1f8>
    c290:	41348933          	sub	s2,s1,s3
    c294:	d53494e3          	bne	s1,s3,bfdc <_vfiprintf_r+0x130>
    c298:	0004c783          	lbu	a5,0(s1)
    c29c:	d75ff06f          	j	c010 <_vfiprintf_r+0x164>
    c2a0:	00012503          	lw	a0,0(sp)
    c2a4:	04010613          	add	a2,sp,64
    c2a8:	000a8593          	mv	a1,s5
    c2ac:	01012423          	sw	a6,8(sp)
    c2b0:	d4cfa0ef          	jal	67fc <__sprint_r>
    c2b4:	02051663          	bnez	a0,c2e0 <_vfiprintf_r+0x434>
    c2b8:	00812803          	lw	a6,8(sp)
    c2bc:	000c0413          	mv	s0,s8
    c2c0:	d49ff06f          	j	c008 <_vfiprintf_r+0x15c>
    c2c4:	00012503          	lw	a0,0(sp)
    c2c8:	04010613          	add	a2,sp,64
    c2cc:	000a8593          	mv	a1,s5
    c2d0:	01012423          	sw	a6,8(sp)
    c2d4:	d28fa0ef          	jal	67fc <__sprint_r>
    c2d8:	00812803          	lw	a6,8(sp)
    c2dc:	e8050ce3          	beqz	a0,c174 <_vfiprintf_r+0x2c8>
    c2e0:	000b8d93          	mv	s11,s7
    c2e4:	064aa703          	lw	a4,100(s5)
    c2e8:	00ca9783          	lh	a5,12(s5)
    c2ec:	00177713          	and	a4,a4,1
    c2f0:	16070e63          	beqz	a4,c46c <_vfiprintf_r+0x5c0>
    c2f4:	0407f793          	and	a5,a5,64
    c2f8:	12812403          	lw	s0,296(sp)
    c2fc:	12412483          	lw	s1,292(sp)
    c300:	12012903          	lw	s2,288(sp)
    c304:	11812a03          	lw	s4,280(sp)
    c308:	10812c03          	lw	s8,264(sp)
    c30c:	10412c83          	lw	s9,260(sp)
    c310:	10012d03          	lw	s10,256(sp)
    c314:	58079ee3          	bnez	a5,d0b0 <_vfiprintf_r+0x1204>
    c318:	12c12083          	lw	ra,300(sp)
    c31c:	11c12983          	lw	s3,284(sp)
    c320:	11412a83          	lw	s5,276(sp)
    c324:	11012b03          	lw	s6,272(sp)
    c328:	10c12b83          	lw	s7,268(sp)
    c32c:	000d8513          	mv	a0,s11
    c330:	0fc12d83          	lw	s11,252(sp)
    c334:	13010113          	add	sp,sp,304
    c338:	00008067          	ret
    c33c:	00012503          	lw	a0,0(sp)
    c340:	04010613          	add	a2,sp,64
    c344:	000a8593          	mv	a1,s5
    c348:	03012223          	sw	a6,36(sp)
    c34c:	02d12023          	sw	a3,32(sp)
    c350:	01112823          	sw	a7,16(sp)
    c354:	01f12623          	sw	t6,12(sp)
    c358:	01e12423          	sw	t5,8(sp)
    c35c:	ca0fa0ef          	jal	67fc <__sprint_r>
    c360:	f80510e3          	bnez	a0,c2e0 <_vfiprintf_r+0x434>
    c364:	04812603          	lw	a2,72(sp)
    c368:	04412783          	lw	a5,68(sp)
    c36c:	02412803          	lw	a6,36(sp)
    c370:	02012683          	lw	a3,32(sp)
    c374:	01012883          	lw	a7,16(sp)
    c378:	00c12f83          	lw	t6,12(sp)
    c37c:	00812f03          	lw	t5,8(sp)
    c380:	000c0413          	mv	s0,s8
    c384:	d6dff06f          	j	c0f0 <_vfiprintf_r+0x244>
    c388:	01000713          	li	a4,16
    c38c:	04412783          	lw	a5,68(sp)
    c390:	00008e17          	auipc	t3,0x8
    c394:	2e0e0e13          	add	t3,t3,736 # 14670 <blanks.1>
    c398:	08975463          	bge	a4,s1,c420 <_vfiprintf_r+0x574>
    c39c:	00040713          	mv	a4,s0
    c3a0:	01000913          	li	s2,16
    c3a4:	00048413          	mv	s0,s1
    c3a8:	00700d93          	li	s11,7
    c3ac:	00d12423          	sw	a3,8(sp)
    c3b0:	01012623          	sw	a6,12(sp)
    c3b4:	000e0493          	mv	s1,t3
    c3b8:	00c0006f          	j	c3c4 <_vfiprintf_r+0x518>
    c3bc:	ff040413          	add	s0,s0,-16
    c3c0:	04895663          	bge	s2,s0,c40c <_vfiprintf_r+0x560>
    c3c4:	01060613          	add	a2,a2,16
    c3c8:	00178793          	add	a5,a5,1
    c3cc:	00972023          	sw	s1,0(a4)
    c3d0:	01272223          	sw	s2,4(a4)
    c3d4:	04c12423          	sw	a2,72(sp)
    c3d8:	04f12223          	sw	a5,68(sp)
    c3dc:	00870713          	add	a4,a4,8
    c3e0:	fcfddee3          	bge	s11,a5,c3bc <_vfiprintf_r+0x510>
    c3e4:	00012503          	lw	a0,0(sp)
    c3e8:	04010613          	add	a2,sp,64
    c3ec:	000a8593          	mv	a1,s5
    c3f0:	c0cfa0ef          	jal	67fc <__sprint_r>
    c3f4:	ee0516e3          	bnez	a0,c2e0 <_vfiprintf_r+0x434>
    c3f8:	ff040413          	add	s0,s0,-16
    c3fc:	04812603          	lw	a2,72(sp)
    c400:	04412783          	lw	a5,68(sp)
    c404:	000c0713          	mv	a4,s8
    c408:	fa894ee3          	blt	s2,s0,c3c4 <_vfiprintf_r+0x518>
    c40c:	00812683          	lw	a3,8(sp)
    c410:	00c12803          	lw	a6,12(sp)
    c414:	00048e13          	mv	t3,s1
    c418:	00040493          	mv	s1,s0
    c41c:	00070413          	mv	s0,a4
    c420:	00960633          	add	a2,a2,s1
    c424:	00178793          	add	a5,a5,1
    c428:	01c42023          	sw	t3,0(s0)
    c42c:	00942223          	sw	s1,4(s0)
    c430:	04c12423          	sw	a2,72(sp)
    c434:	04f12223          	sw	a5,68(sp)
    c438:	00700713          	li	a4,7
    c43c:	d2f754e3          	bge	a4,a5,c164 <_vfiprintf_r+0x2b8>
    c440:	00012503          	lw	a0,0(sp)
    c444:	04010613          	add	a2,sp,64
    c448:	000a8593          	mv	a1,s5
    c44c:	01012623          	sw	a6,12(sp)
    c450:	00d12423          	sw	a3,8(sp)
    c454:	ba8fa0ef          	jal	67fc <__sprint_r>
    c458:	e80514e3          	bnez	a0,c2e0 <_vfiprintf_r+0x434>
    c45c:	04812603          	lw	a2,72(sp)
    c460:	00c12803          	lw	a6,12(sp)
    c464:	00812683          	lw	a3,8(sp)
    c468:	cfdff06f          	j	c164 <_vfiprintf_r+0x2b8>
    c46c:	2007f713          	and	a4,a5,512
    c470:	e80712e3          	bnez	a4,c2f4 <_vfiprintf_r+0x448>
    c474:	058aa503          	lw	a0,88(s5)
    c478:	f30f60ef          	jal	2ba8 <__retarget_lock_release_recursive>
    c47c:	00ca9783          	lh	a5,12(s5)
    c480:	e75ff06f          	j	c2f4 <_vfiprintf_r+0x448>
    c484:	010df713          	and	a4,s11,16
    c488:	00082783          	lw	a5,0(a6)
    c48c:	00480813          	add	a6,a6,4
    c490:	02071ae3          	bnez	a4,ccc4 <_vfiprintf_r+0xe18>
    c494:	040df713          	and	a4,s11,64
    c498:	020702e3          	beqz	a4,ccbc <_vfiprintf_r+0xe10>
    c49c:	01079793          	sll	a5,a5,0x10
    c4a0:	4107d793          	sra	a5,a5,0x10
    c4a4:	41f7d893          	sra	a7,a5,0x1f
    c4a8:	00088713          	mv	a4,a7
    c4ac:	da0752e3          	bgez	a4,c250 <_vfiprintf_r+0x3a4>
    c4b0:	02d00693          	li	a3,45
    c4b4:	00f03733          	snez	a4,a5
    c4b8:	411008b3          	neg	a7,a7
    c4bc:	02d10da3          	sb	a3,59(sp)
    c4c0:	40e888b3          	sub	a7,a7,a4
    c4c4:	40f007b3          	neg	a5,a5
    c4c8:	0004c463          	bltz	s1,c4d0 <_vfiprintf_r+0x624>
    c4cc:	f7fdfd93          	and	s11,s11,-129
    c4d0:	100894e3          	bnez	a7,cdd8 <_vfiprintf_r+0xf2c>
    c4d4:	00900713          	li	a4,9
    c4d8:	10f760e3          	bltu	a4,a5,cdd8 <_vfiprintf_r+0xf2c>
    c4dc:	03078793          	add	a5,a5,48
    c4e0:	0ff7f793          	zext.b	a5,a5
    c4e4:	0ef107a3          	sb	a5,239(sp)
    c4e8:	00048693          	mv	a3,s1
    c4ec:	00904463          	bgtz	s1,c4f4 <_vfiprintf_r+0x648>
    c4f0:	00100693          	li	a3,1
    c4f4:	00100893          	li	a7,1
    c4f8:	0ef10913          	add	s2,sp,239
    c4fc:	2000006f          	j	c6fc <_vfiprintf_r+0x850>
    c500:	00082903          	lw	s2,0(a6)
    c504:	02010da3          	sb	zero,59(sp)
    c508:	00480813          	add	a6,a6,4
    c50c:	200900e3          	beqz	s2,cf0c <_vfiprintf_r+0x1060>
    c510:	01012423          	sw	a6,8(sp)
    c514:	0604cce3          	bltz	s1,cd8c <_vfiprintf_r+0xee0>
    c518:	00048613          	mv	a2,s1
    c51c:	00000593          	li	a1,0
    c520:	00090513          	mv	a0,s2
    c524:	95cfb0ef          	jal	7680 <memchr>
    c528:	00812803          	lw	a6,8(sp)
    c52c:	00048893          	mv	a7,s1
    c530:	00050463          	beqz	a0,c538 <_vfiprintf_r+0x68c>
    c534:	412508b3          	sub	a7,a0,s2
    c538:	03b14783          	lbu	a5,59(sp)
    c53c:	fff8c693          	not	a3,a7
    c540:	41f6d693          	sra	a3,a3,0x1f
    c544:	00d8f6b3          	and	a3,a7,a3
    c548:	00000493          	li	s1,0
    c54c:	00000f13          	li	t5,0
    c550:	d20794e3          	bnez	a5,c278 <_vfiprintf_r+0x3cc>
    c554:	b51ff06f          	j	c0a4 <_vfiprintf_r+0x1f8>
    c558:	00082783          	lw	a5,0(a6)
    c55c:	02010da3          	sb	zero,59(sp)
    c560:	00480813          	add	a6,a6,4
    c564:	08f10623          	sb	a5,140(sp)
    c568:	00100693          	li	a3,1
    c56c:	00100893          	li	a7,1
    c570:	08c10913          	add	s2,sp,140
    c574:	b29ff06f          	j	c09c <_vfiprintf_r+0x1f0>
    c578:	41600b33          	neg	s6,s6
    c57c:	0009c703          	lbu	a4,0(s3)
    c580:	004ded93          	or	s11,s11,4
    c584:	aadff06f          	j	c030 <_vfiprintf_r+0x184>
    c588:	02b00793          	li	a5,43
    c58c:	0009c703          	lbu	a4,0(s3)
    c590:	02f10da3          	sb	a5,59(sp)
    c594:	a9dff06f          	j	c030 <_vfiprintf_r+0x184>
    c598:	0009c703          	lbu	a4,0(s3)
    c59c:	080ded93          	or	s11,s11,128
    c5a0:	a91ff06f          	j	c030 <_vfiprintf_r+0x184>
    c5a4:	0009c703          	lbu	a4,0(s3)
    c5a8:	02a00793          	li	a5,42
    c5ac:	00198613          	add	a2,s3,1
    c5b0:	30f704e3          	beq	a4,a5,d0b8 <_vfiprintf_r+0x120c>
    c5b4:	fd070793          	add	a5,a4,-48
    c5b8:	00900693          	li	a3,9
    c5bc:	00000493          	li	s1,0
    c5c0:	00900593          	li	a1,9
    c5c4:	02f6e463          	bltu	a3,a5,c5ec <_vfiprintf_r+0x740>
    c5c8:	00064703          	lbu	a4,0(a2)
    c5cc:	00249693          	sll	a3,s1,0x2
    c5d0:	009684b3          	add	s1,a3,s1
    c5d4:	00149493          	sll	s1,s1,0x1
    c5d8:	00f484b3          	add	s1,s1,a5
    c5dc:	fd070793          	add	a5,a4,-48
    c5e0:	00160613          	add	a2,a2,1
    c5e4:	fef5f2e3          	bgeu	a1,a5,c5c8 <_vfiprintf_r+0x71c>
    c5e8:	7204c463          	bltz	s1,cd10 <_vfiprintf_r+0xe64>
    c5ec:	00060993          	mv	s3,a2
    c5f0:	a45ff06f          	j	c034 <_vfiprintf_r+0x188>
    c5f4:	00012503          	lw	a0,0(sp)
    c5f8:	01012423          	sw	a6,8(sp)
    c5fc:	9fcfb0ef          	jal	77f8 <_localeconv_r>
    c600:	00452783          	lw	a5,4(a0)
    c604:	00078513          	mv	a0,a5
    c608:	00f12e23          	sw	a5,28(sp)
    c60c:	ce0fb0ef          	jal	7aec <strlen>
    c610:	00050793          	mv	a5,a0
    c614:	00012503          	lw	a0,0(sp)
    c618:	00f12c23          	sw	a5,24(sp)
    c61c:	9dcfb0ef          	jal	77f8 <_localeconv_r>
    c620:	00852703          	lw	a4,8(a0)
    c624:	01812783          	lw	a5,24(sp)
    c628:	00812803          	lw	a6,8(sp)
    c62c:	00e12a23          	sw	a4,20(sp)
    c630:	be0782e3          	beqz	a5,c214 <_vfiprintf_r+0x368>
    c634:	01412783          	lw	a5,20(sp)
    c638:	0009c703          	lbu	a4,0(s3)
    c63c:	9e078ae3          	beqz	a5,c030 <_vfiprintf_r+0x184>
    c640:	0007c783          	lbu	a5,0(a5)
    c644:	9e0786e3          	beqz	a5,c030 <_vfiprintf_r+0x184>
    c648:	400ded93          	or	s11,s11,1024
    c64c:	9e5ff06f          	j	c030 <_vfiprintf_r+0x184>
    c650:	0009c703          	lbu	a4,0(s3)
    c654:	001ded93          	or	s11,s11,1
    c658:	9d9ff06f          	j	c030 <_vfiprintf_r+0x184>
    c65c:	03b14783          	lbu	a5,59(sp)
    c660:	0009c703          	lbu	a4,0(s3)
    c664:	9c0796e3          	bnez	a5,c030 <_vfiprintf_r+0x184>
    c668:	02000793          	li	a5,32
    c66c:	02f10da3          	sb	a5,59(sp)
    c670:	9c1ff06f          	j	c030 <_vfiprintf_r+0x184>
    c674:	010de713          	or	a4,s11,16
    c678:	02077793          	and	a5,a4,32
    c67c:	5c078863          	beqz	a5,cc4c <_vfiprintf_r+0xda0>
    c680:	00780813          	add	a6,a6,7
    c684:	ff887813          	and	a6,a6,-8
    c688:	00082783          	lw	a5,0(a6)
    c68c:	00482603          	lw	a2,4(a6)
    c690:	00880813          	add	a6,a6,8
    c694:	02010da3          	sb	zero,59(sp)
    c698:	bff77d93          	and	s11,a4,-1025
    c69c:	0604d663          	bgez	s1,c708 <_vfiprintf_r+0x85c>
    c6a0:	0f010913          	add	s2,sp,240
    c6a4:	01d61693          	sll	a3,a2,0x1d
    c6a8:	0077f713          	and	a4,a5,7
    c6ac:	0037d793          	srl	a5,a5,0x3
    c6b0:	03070713          	add	a4,a4,48
    c6b4:	00f6e7b3          	or	a5,a3,a5
    c6b8:	00365613          	srl	a2,a2,0x3
    c6bc:	fee90fa3          	sb	a4,-1(s2)
    c6c0:	00c7e6b3          	or	a3,a5,a2
    c6c4:	00090593          	mv	a1,s2
    c6c8:	fff90913          	add	s2,s2,-1
    c6cc:	fc069ce3          	bnez	a3,c6a4 <_vfiprintf_r+0x7f8>
    c6d0:	001df793          	and	a5,s11,1
    c6d4:	1a078863          	beqz	a5,c884 <_vfiprintf_r+0x9d8>
    c6d8:	03000793          	li	a5,48
    c6dc:	1af70463          	beq	a4,a5,c884 <_vfiprintf_r+0x9d8>
    c6e0:	ffe58593          	add	a1,a1,-2
    c6e4:	fef90fa3          	sb	a5,-1(s2)
    c6e8:	0f010793          	add	a5,sp,240
    c6ec:	40b788b3          	sub	a7,a5,a1
    c6f0:	00048693          	mv	a3,s1
    c6f4:	6114c263          	blt	s1,a7,ccf8 <_vfiprintf_r+0xe4c>
    c6f8:	00058913          	mv	s2,a1
    c6fc:	03b14783          	lbu	a5,59(sp)
    c700:	b6079ce3          	bnez	a5,c278 <_vfiprintf_r+0x3cc>
    c704:	b79ff06f          	j	c27c <_vfiprintf_r+0x3d0>
    c708:	00c7e5b3          	or	a1,a5,a2
    c70c:	b7f77693          	and	a3,a4,-1153
    c710:	5e059863          	bnez	a1,cd00 <_vfiprintf_r+0xe54>
    c714:	000d8713          	mv	a4,s11
    c718:	00000793          	li	a5,0
    c71c:	00068d93          	mv	s11,a3
    c720:	08049663          	bnez	s1,c7ac <_vfiprintf_r+0x900>
    c724:	b40790e3          	bnez	a5,c264 <_vfiprintf_r+0x3b8>
    c728:	00177893          	and	a7,a4,1
    c72c:	56088863          	beqz	a7,cc9c <_vfiprintf_r+0xdf0>
    c730:	03000793          	li	a5,48
    c734:	0ef107a3          	sb	a5,239(sp)
    c738:	00088693          	mv	a3,a7
    c73c:	0ef10913          	add	s2,sp,239
    c740:	fbdff06f          	j	c6fc <_vfiprintf_r+0x850>
    c744:	0009c703          	lbu	a4,0(s3)
    c748:	06c00793          	li	a5,108
    c74c:	78f70863          	beq	a4,a5,cedc <_vfiprintf_r+0x1030>
    c750:	010ded93          	or	s11,s11,16
    c754:	8ddff06f          	j	c030 <_vfiprintf_r+0x184>
    c758:	0009c703          	lbu	a4,0(s3)
    c75c:	06800793          	li	a5,104
    c760:	78f70663          	beq	a4,a5,ceec <_vfiprintf_r+0x1040>
    c764:	040ded93          	or	s11,s11,64
    c768:	8c9ff06f          	j	c030 <_vfiprintf_r+0x184>
    c76c:	010de713          	or	a4,s11,16
    c770:	02077793          	and	a5,a4,32
    c774:	50078063          	beqz	a5,cc74 <_vfiprintf_r+0xdc8>
    c778:	00780813          	add	a6,a6,7
    c77c:	ff887813          	and	a6,a6,-8
    c780:	00082783          	lw	a5,0(a6)
    c784:	00482883          	lw	a7,4(a6)
    c788:	00880813          	add	a6,a6,8
    c78c:	02010da3          	sb	zero,59(sp)
    c790:	00070d93          	mv	s11,a4
    c794:	d204cee3          	bltz	s1,c4d0 <_vfiprintf_r+0x624>
    c798:	0117e6b3          	or	a3,a5,a7
    c79c:	f7f77d93          	and	s11,a4,-129
    c7a0:	d20698e3          	bnez	a3,c4d0 <_vfiprintf_r+0x624>
    c7a4:	00100793          	li	a5,1
    c7a8:	f6048ee3          	beqz	s1,c724 <_vfiprintf_r+0x878>
    c7ac:	00100713          	li	a4,1
    c7b0:	0ce780e3          	beq	a5,a4,d070 <_vfiprintf_r+0x11c4>
    c7b4:	00200713          	li	a4,2
    c7b8:	78e78263          	beq	a5,a4,cf3c <_vfiprintf_r+0x1090>
    c7bc:	00000793          	li	a5,0
    c7c0:	00000613          	li	a2,0
    c7c4:	eddff06f          	j	c6a0 <_vfiprintf_r+0x7f4>
    c7c8:	00008737          	lui	a4,0x8
    c7cc:	83070713          	add	a4,a4,-2000 # 7830 <_fstat_r+0x20>
    c7d0:	02e11e23          	sh	a4,60(sp)
    c7d4:	00007717          	auipc	a4,0x7
    c7d8:	71c70713          	add	a4,a4,1820 # 13ef0 <__flash_rodata_start+0x50>
    c7dc:	00082783          	lw	a5,0(a6)
    c7e0:	00000613          	li	a2,0
    c7e4:	002ded93          	or	s11,s11,2
    c7e8:	00480813          	add	a6,a6,4
    c7ec:	00e12223          	sw	a4,4(sp)
    c7f0:	02010da3          	sb	zero,59(sp)
    c7f4:	0404ce63          	bltz	s1,c850 <_vfiprintf_r+0x9a4>
    c7f8:	00c7e733          	or	a4,a5,a2
    c7fc:	f7fdf693          	and	a3,s11,-129
    c800:	04071263          	bnez	a4,c844 <_vfiprintf_r+0x998>
    c804:	000d8713          	mv	a4,s11
    c808:	00200793          	li	a5,2
    c80c:	00068d93          	mv	s11,a3
    c810:	f11ff06f          	j	c720 <_vfiprintf_r+0x874>
    c814:	020df793          	and	a5,s11,32
    c818:	4c079463          	bnez	a5,cce0 <_vfiprintf_r+0xe34>
    c81c:	010df793          	and	a5,s11,16
    c820:	6c079e63          	bnez	a5,cefc <_vfiprintf_r+0x1050>
    c824:	040df793          	and	a5,s11,64
    c828:	000796e3          	bnez	a5,d034 <_vfiprintf_r+0x1188>
    c82c:	200dfd93          	and	s11,s11,512
    c830:	6c0d8663          	beqz	s11,cefc <_vfiprintf_r+0x1050>
    c834:	00082783          	lw	a5,0(a6)
    c838:	00480813          	add	a6,a6,4
    c83c:	01778023          	sb	s7,0(a5)
    c840:	f74ff06f          	j	bfb4 <_vfiprintf_r+0x108>
    c844:	00200713          	li	a4,2
    c848:	00068d93          	mv	s11,a3
    c84c:	e4070ae3          	beqz	a4,c6a0 <_vfiprintf_r+0x7f4>
    c850:	00412583          	lw	a1,4(sp)
    c854:	0f010913          	add	s2,sp,240
    c858:	00f7f713          	and	a4,a5,15
    c85c:	00e58733          	add	a4,a1,a4
    c860:	00074683          	lbu	a3,0(a4)
    c864:	0047d793          	srl	a5,a5,0x4
    c868:	01c61713          	sll	a4,a2,0x1c
    c86c:	00f767b3          	or	a5,a4,a5
    c870:	00465613          	srl	a2,a2,0x4
    c874:	fed90fa3          	sb	a3,-1(s2)
    c878:	00c7e733          	or	a4,a5,a2
    c87c:	fff90913          	add	s2,s2,-1
    c880:	fc071ce3          	bnez	a4,c858 <_vfiprintf_r+0x9ac>
    c884:	0f010793          	add	a5,sp,240
    c888:	412788b3          	sub	a7,a5,s2
    c88c:	00048693          	mv	a3,s1
    c890:	e714d6e3          	bge	s1,a7,c6fc <_vfiprintf_r+0x850>
    c894:	00088693          	mv	a3,a7
    c898:	e65ff06f          	j	c6fc <_vfiprintf_r+0x850>
    c89c:	40db0733          	sub	a4,s6,a3
    c8a0:	88e054e3          	blez	a4,c128 <_vfiprintf_r+0x27c>
    c8a4:	01000593          	li	a1,16
    c8a8:	00008e97          	auipc	t4,0x8
    c8ac:	dd8e8e93          	add	t4,t4,-552 # 14680 <zeroes.0>
    c8b0:	0ae5d063          	bge	a1,a4,c950 <_vfiprintf_r+0xaa4>
    c8b4:	00912423          	sw	s1,8(sp)
    c8b8:	00d12823          	sw	a3,16(sp)
    c8bc:	01000e13          	li	t3,16
    c8c0:	00040693          	mv	a3,s0
    c8c4:	00700f13          	li	t5,7
    c8c8:	01112623          	sw	a7,12(sp)
    c8cc:	00070413          	mv	s0,a4
    c8d0:	03012023          	sw	a6,32(sp)
    c8d4:	000e8493          	mv	s1,t4
    c8d8:	00c0006f          	j	c8e4 <_vfiprintf_r+0xa38>
    c8dc:	ff040413          	add	s0,s0,-16
    c8e0:	048e5a63          	bge	t3,s0,c934 <_vfiprintf_r+0xa88>
    c8e4:	01060613          	add	a2,a2,16
    c8e8:	00178793          	add	a5,a5,1
    c8ec:	0096a023          	sw	s1,0(a3)
    c8f0:	01c6a223          	sw	t3,4(a3)
    c8f4:	04c12423          	sw	a2,72(sp)
    c8f8:	04f12223          	sw	a5,68(sp)
    c8fc:	00868693          	add	a3,a3,8
    c900:	fcff5ee3          	bge	t5,a5,c8dc <_vfiprintf_r+0xa30>
    c904:	00012503          	lw	a0,0(sp)
    c908:	04010613          	add	a2,sp,64
    c90c:	000a8593          	mv	a1,s5
    c910:	eedf90ef          	jal	67fc <__sprint_r>
    c914:	9c0516e3          	bnez	a0,c2e0 <_vfiprintf_r+0x434>
    c918:	01000e13          	li	t3,16
    c91c:	ff040413          	add	s0,s0,-16
    c920:	04812603          	lw	a2,72(sp)
    c924:	04412783          	lw	a5,68(sp)
    c928:	000c0693          	mv	a3,s8
    c92c:	00700f13          	li	t5,7
    c930:	fa8e4ae3          	blt	t3,s0,c8e4 <_vfiprintf_r+0xa38>
    c934:	00040713          	mv	a4,s0
    c938:	00048e93          	mv	t4,s1
    c93c:	00068413          	mv	s0,a3
    c940:	00c12883          	lw	a7,12(sp)
    c944:	01012683          	lw	a3,16(sp)
    c948:	02012803          	lw	a6,32(sp)
    c94c:	00812483          	lw	s1,8(sp)
    c950:	00e60633          	add	a2,a2,a4
    c954:	00178793          	add	a5,a5,1
    c958:	00e42223          	sw	a4,4(s0)
    c95c:	01d42023          	sw	t4,0(s0)
    c960:	04c12423          	sw	a2,72(sp)
    c964:	04f12223          	sw	a5,68(sp)
    c968:	00700713          	li	a4,7
    c96c:	00840413          	add	s0,s0,8
    c970:	faf75c63          	bge	a4,a5,c128 <_vfiprintf_r+0x27c>
    c974:	00012503          	lw	a0,0(sp)
    c978:	04010613          	add	a2,sp,64
    c97c:	000a8593          	mv	a1,s5
    c980:	01012823          	sw	a6,16(sp)
    c984:	00d12623          	sw	a3,12(sp)
    c988:	01112423          	sw	a7,8(sp)
    c98c:	e71f90ef          	jal	67fc <__sprint_r>
    c990:	940518e3          	bnez	a0,c2e0 <_vfiprintf_r+0x434>
    c994:	00812883          	lw	a7,8(sp)
    c998:	04812603          	lw	a2,72(sp)
    c99c:	04412783          	lw	a5,68(sp)
    c9a0:	411484b3          	sub	s1,s1,a7
    c9a4:	01012803          	lw	a6,16(sp)
    c9a8:	00c12683          	lw	a3,12(sp)
    c9ac:	000c0413          	mv	s0,s8
    c9b0:	f8905063          	blez	s1,c130 <_vfiprintf_r+0x284>
    c9b4:	00008e97          	auipc	t4,0x8
    c9b8:	ccce8e93          	add	t4,t4,-820 # 14680 <zeroes.0>
    c9bc:	089a5863          	bge	s4,s1,ca4c <_vfiprintf_r+0xba0>
    c9c0:	00d12623          	sw	a3,12(sp)
    c9c4:	00700713          	li	a4,7
    c9c8:	00040693          	mv	a3,s0
    c9cc:	01112423          	sw	a7,8(sp)
    c9d0:	00048413          	mv	s0,s1
    c9d4:	01012823          	sw	a6,16(sp)
    c9d8:	000c8493          	mv	s1,s9
    c9dc:	00c0006f          	j	c9e8 <_vfiprintf_r+0xb3c>
    c9e0:	ff040413          	add	s0,s0,-16
    c9e4:	048a5863          	bge	s4,s0,ca34 <_vfiprintf_r+0xb88>
    c9e8:	01060613          	add	a2,a2,16
    c9ec:	00178793          	add	a5,a5,1
    c9f0:	0196a023          	sw	s9,0(a3)
    c9f4:	0146a223          	sw	s4,4(a3)
    c9f8:	04c12423          	sw	a2,72(sp)
    c9fc:	04f12223          	sw	a5,68(sp)
    ca00:	00868693          	add	a3,a3,8
    ca04:	fcf75ee3          	bge	a4,a5,c9e0 <_vfiprintf_r+0xb34>
    ca08:	00012503          	lw	a0,0(sp)
    ca0c:	04010613          	add	a2,sp,64
    ca10:	000a8593          	mv	a1,s5
    ca14:	de9f90ef          	jal	67fc <__sprint_r>
    ca18:	8c0514e3          	bnez	a0,c2e0 <_vfiprintf_r+0x434>
    ca1c:	ff040413          	add	s0,s0,-16
    ca20:	04812603          	lw	a2,72(sp)
    ca24:	04412783          	lw	a5,68(sp)
    ca28:	000c0693          	mv	a3,s8
    ca2c:	00700713          	li	a4,7
    ca30:	fa8a4ce3          	blt	s4,s0,c9e8 <_vfiprintf_r+0xb3c>
    ca34:	00048e93          	mv	t4,s1
    ca38:	00812883          	lw	a7,8(sp)
    ca3c:	00040493          	mv	s1,s0
    ca40:	01012803          	lw	a6,16(sp)
    ca44:	00068413          	mv	s0,a3
    ca48:	00c12683          	lw	a3,12(sp)
    ca4c:	00960633          	add	a2,a2,s1
    ca50:	00178793          	add	a5,a5,1
    ca54:	01d42023          	sw	t4,0(s0)
    ca58:	00942223          	sw	s1,4(s0)
    ca5c:	04c12423          	sw	a2,72(sp)
    ca60:	04f12223          	sw	a5,68(sp)
    ca64:	00700713          	li	a4,7
    ca68:	00840413          	add	s0,s0,8
    ca6c:	ecf75263          	bge	a4,a5,c130 <_vfiprintf_r+0x284>
    ca70:	00012503          	lw	a0,0(sp)
    ca74:	04010613          	add	a2,sp,64
    ca78:	000a8593          	mv	a1,s5
    ca7c:	01012823          	sw	a6,16(sp)
    ca80:	00d12623          	sw	a3,12(sp)
    ca84:	01112423          	sw	a7,8(sp)
    ca88:	d75f90ef          	jal	67fc <__sprint_r>
    ca8c:	84051ae3          	bnez	a0,c2e0 <_vfiprintf_r+0x434>
    ca90:	04812603          	lw	a2,72(sp)
    ca94:	04412783          	lw	a5,68(sp)
    ca98:	01012803          	lw	a6,16(sp)
    ca9c:	00c12683          	lw	a3,12(sp)
    caa0:	00812883          	lw	a7,8(sp)
    caa4:	000c0413          	mv	s0,s8
    caa8:	e88ff06f          	j	c130 <_vfiprintf_r+0x284>
    caac:	00012503          	lw	a0,0(sp)
    cab0:	04010613          	add	a2,sp,64
    cab4:	000a8593          	mv	a1,s5
    cab8:	01012623          	sw	a6,12(sp)
    cabc:	00d12423          	sw	a3,8(sp)
    cac0:	d3df90ef          	jal	67fc <__sprint_r>
    cac4:	80051ee3          	bnez	a0,c2e0 <_vfiprintf_r+0x434>
    cac8:	04812603          	lw	a2,72(sp)
    cacc:	00c12803          	lw	a6,12(sp)
    cad0:	00812683          	lw	a3,8(sp)
    cad4:	000c0413          	mv	s0,s8
    cad8:	e7cff06f          	j	c154 <_vfiprintf_r+0x2a8>
    cadc:	01000593          	li	a1,16
    cae0:	00008e17          	auipc	t3,0x8
    cae4:	b90e0e13          	add	t3,t3,-1136 # 14670 <blanks.1>
    cae8:	0ae5d863          	bge	a1,a4,cb98 <_vfiprintf_r+0xcec>
    caec:	00912823          	sw	s1,16(sp)
    caf0:	02d12223          	sw	a3,36(sp)
    caf4:	01000e93          	li	t4,16
    caf8:	00040693          	mv	a3,s0
    cafc:	00700293          	li	t0,7
    cb00:	01e12423          	sw	t5,8(sp)
    cb04:	01f12623          	sw	t6,12(sp)
    cb08:	03112023          	sw	a7,32(sp)
    cb0c:	00070413          	mv	s0,a4
    cb10:	03012423          	sw	a6,40(sp)
    cb14:	000e0493          	mv	s1,t3
    cb18:	00c0006f          	j	cb24 <_vfiprintf_r+0xc78>
    cb1c:	ff040413          	add	s0,s0,-16
    cb20:	048eda63          	bge	t4,s0,cb74 <_vfiprintf_r+0xcc8>
    cb24:	01060613          	add	a2,a2,16
    cb28:	00178793          	add	a5,a5,1
    cb2c:	0096a023          	sw	s1,0(a3)
    cb30:	01d6a223          	sw	t4,4(a3)
    cb34:	04c12423          	sw	a2,72(sp)
    cb38:	04f12223          	sw	a5,68(sp)
    cb3c:	00868693          	add	a3,a3,8
    cb40:	fcf2dee3          	bge	t0,a5,cb1c <_vfiprintf_r+0xc70>
    cb44:	00012503          	lw	a0,0(sp)
    cb48:	04010613          	add	a2,sp,64
    cb4c:	000a8593          	mv	a1,s5
    cb50:	cadf90ef          	jal	67fc <__sprint_r>
    cb54:	f8051663          	bnez	a0,c2e0 <_vfiprintf_r+0x434>
    cb58:	01000e93          	li	t4,16
    cb5c:	ff040413          	add	s0,s0,-16
    cb60:	04812603          	lw	a2,72(sp)
    cb64:	04412783          	lw	a5,68(sp)
    cb68:	000c0693          	mv	a3,s8
    cb6c:	00700293          	li	t0,7
    cb70:	fa8ecae3          	blt	t4,s0,cb24 <_vfiprintf_r+0xc78>
    cb74:	00040713          	mv	a4,s0
    cb78:	00048e13          	mv	t3,s1
    cb7c:	00068413          	mv	s0,a3
    cb80:	00812f03          	lw	t5,8(sp)
    cb84:	00c12f83          	lw	t6,12(sp)
    cb88:	02012883          	lw	a7,32(sp)
    cb8c:	02412683          	lw	a3,36(sp)
    cb90:	02812803          	lw	a6,40(sp)
    cb94:	01012483          	lw	s1,16(sp)
    cb98:	00e60633          	add	a2,a2,a4
    cb9c:	00178793          	add	a5,a5,1
    cba0:	00e42223          	sw	a4,4(s0)
    cba4:	01c42023          	sw	t3,0(s0)
    cba8:	04c12423          	sw	a2,72(sp)
    cbac:	04f12223          	sw	a5,68(sp)
    cbb0:	00700713          	li	a4,7
    cbb4:	00840413          	add	s0,s0,8
    cbb8:	d0f75263          	bge	a4,a5,c0bc <_vfiprintf_r+0x210>
    cbbc:	00012503          	lw	a0,0(sp)
    cbc0:	04010613          	add	a2,sp,64
    cbc4:	000a8593          	mv	a1,s5
    cbc8:	03012223          	sw	a6,36(sp)
    cbcc:	02d12023          	sw	a3,32(sp)
    cbd0:	01112823          	sw	a7,16(sp)
    cbd4:	01f12623          	sw	t6,12(sp)
    cbd8:	01e12423          	sw	t5,8(sp)
    cbdc:	c21f90ef          	jal	67fc <__sprint_r>
    cbe0:	f0051063          	bnez	a0,c2e0 <_vfiprintf_r+0x434>
    cbe4:	04812603          	lw	a2,72(sp)
    cbe8:	04412783          	lw	a5,68(sp)
    cbec:	02412803          	lw	a6,36(sp)
    cbf0:	02012683          	lw	a3,32(sp)
    cbf4:	01012883          	lw	a7,16(sp)
    cbf8:	00c12f83          	lw	t6,12(sp)
    cbfc:	00812f03          	lw	t5,8(sp)
    cc00:	000c0413          	mv	s0,s8
    cc04:	cb8ff06f          	j	c0bc <_vfiprintf_r+0x210>
    cc08:	00012503          	lw	a0,0(sp)
    cc0c:	04010613          	add	a2,sp,64
    cc10:	000a8593          	mv	a1,s5
    cc14:	03012023          	sw	a6,32(sp)
    cc18:	00d12823          	sw	a3,16(sp)
    cc1c:	01112623          	sw	a7,12(sp)
    cc20:	01f12423          	sw	t6,8(sp)
    cc24:	bd9f90ef          	jal	67fc <__sprint_r>
    cc28:	ea051c63          	bnez	a0,c2e0 <_vfiprintf_r+0x434>
    cc2c:	04812603          	lw	a2,72(sp)
    cc30:	04412783          	lw	a5,68(sp)
    cc34:	02012803          	lw	a6,32(sp)
    cc38:	01012683          	lw	a3,16(sp)
    cc3c:	00c12883          	lw	a7,12(sp)
    cc40:	00812f83          	lw	t6,8(sp)
    cc44:	000c0413          	mv	s0,s8
    cc48:	cd8ff06f          	j	c120 <_vfiprintf_r+0x274>
    cc4c:	01077693          	and	a3,a4,16
    cc50:	00082783          	lw	a5,0(a6)
    cc54:	00480813          	add	a6,a6,4
    cc58:	08069063          	bnez	a3,ccd8 <_vfiprintf_r+0xe2c>
    cc5c:	04077693          	and	a3,a4,64
    cc60:	06068863          	beqz	a3,ccd0 <_vfiprintf_r+0xe24>
    cc64:	01079793          	sll	a5,a5,0x10
    cc68:	0107d793          	srl	a5,a5,0x10
    cc6c:	00000613          	li	a2,0
    cc70:	a25ff06f          	j	c694 <_vfiprintf_r+0x7e8>
    cc74:	01077693          	and	a3,a4,16
    cc78:	00082783          	lw	a5,0(a6)
    cc7c:	00480813          	add	a6,a6,4
    cc80:	00069a63          	bnez	a3,cc94 <_vfiprintf_r+0xde8>
    cc84:	04077693          	and	a3,a4,64
    cc88:	2a068063          	beqz	a3,cf28 <_vfiprintf_r+0x107c>
    cc8c:	01079793          	sll	a5,a5,0x10
    cc90:	0107d793          	srl	a5,a5,0x10
    cc94:	00000893          	li	a7,0
    cc98:	af5ff06f          	j	c78c <_vfiprintf_r+0x8e0>
    cc9c:	00000693          	li	a3,0
    cca0:	0f010913          	add	s2,sp,240
    cca4:	a59ff06f          	j	c6fc <_vfiprintf_r+0x850>
    cca8:	058aa503          	lw	a0,88(s5)
    ccac:	ee5f50ef          	jal	2b90 <__retarget_lock_acquire_recursive>
    ccb0:	00ca9703          	lh	a4,12(s5)
    ccb4:	064aa783          	lw	a5,100(s5)
    ccb8:	a48ff06f          	j	bf00 <_vfiprintf_r+0x54>
    ccbc:	200df713          	and	a4,s11,512
    ccc0:	38071863          	bnez	a4,d050 <_vfiprintf_r+0x11a4>
    ccc4:	41f7d893          	sra	a7,a5,0x1f
    ccc8:	00088713          	mv	a4,a7
    cccc:	d80ff06f          	j	c24c <_vfiprintf_r+0x3a0>
    ccd0:	20077693          	and	a3,a4,512
    ccd4:	36069863          	bnez	a3,d044 <_vfiprintf_r+0x1198>
    ccd8:	00000613          	li	a2,0
    ccdc:	9b9ff06f          	j	c694 <_vfiprintf_r+0x7e8>
    cce0:	00082783          	lw	a5,0(a6)
    cce4:	41fbd713          	sra	a4,s7,0x1f
    cce8:	00480813          	add	a6,a6,4
    ccec:	0177a023          	sw	s7,0(a5)
    ccf0:	00e7a223          	sw	a4,4(a5)
    ccf4:	ac0ff06f          	j	bfb4 <_vfiprintf_r+0x108>
    ccf8:	00088693          	mv	a3,a7
    ccfc:	9fdff06f          	j	c6f8 <_vfiprintf_r+0x84c>
    cd00:	00000713          	li	a4,0
    cd04:	00068d93          	mv	s11,a3
    cd08:	98070ce3          	beqz	a4,c6a0 <_vfiprintf_r+0x7f4>
    cd0c:	b45ff06f          	j	c850 <_vfiprintf_r+0x9a4>
    cd10:	fff00493          	li	s1,-1
    cd14:	00060993          	mv	s3,a2
    cd18:	b1cff06f          	j	c034 <_vfiprintf_r+0x188>
    cd1c:	000d8713          	mv	a4,s11
    cd20:	a51ff06f          	j	c770 <_vfiprintf_r+0x8c4>
    cd24:	00007797          	auipc	a5,0x7
    cd28:	1e078793          	add	a5,a5,480 # 13f04 <__flash_rodata_start+0x64>
    cd2c:	00f12223          	sw	a5,4(sp)
    cd30:	020df793          	and	a5,s11,32
    cd34:	06078663          	beqz	a5,cda0 <_vfiprintf_r+0xef4>
    cd38:	00780813          	add	a6,a6,7
    cd3c:	ff887813          	and	a6,a6,-8
    cd40:	00082783          	lw	a5,0(a6)
    cd44:	00482603          	lw	a2,4(a6)
    cd48:	00880813          	add	a6,a6,8
    cd4c:	001df693          	and	a3,s11,1
    cd50:	00068e63          	beqz	a3,cd6c <_vfiprintf_r+0xec0>
    cd54:	00c7e6b3          	or	a3,a5,a2
    cd58:	00068a63          	beqz	a3,cd6c <_vfiprintf_r+0xec0>
    cd5c:	03000693          	li	a3,48
    cd60:	02d10e23          	sb	a3,60(sp)
    cd64:	02e10ea3          	sb	a4,61(sp)
    cd68:	002ded93          	or	s11,s11,2
    cd6c:	bffdfd93          	and	s11,s11,-1025
    cd70:	a81ff06f          	j	c7f0 <_vfiprintf_r+0x944>
    cd74:	000d8713          	mv	a4,s11
    cd78:	901ff06f          	j	c678 <_vfiprintf_r+0x7cc>
    cd7c:	00007797          	auipc	a5,0x7
    cd80:	17478793          	add	a5,a5,372 # 13ef0 <__flash_rodata_start+0x50>
    cd84:	00f12223          	sw	a5,4(sp)
    cd88:	fa9ff06f          	j	cd30 <_vfiprintf_r+0xe84>
    cd8c:	00090513          	mv	a0,s2
    cd90:	d5dfa0ef          	jal	7aec <strlen>
    cd94:	00812803          	lw	a6,8(sp)
    cd98:	00050893          	mv	a7,a0
    cd9c:	f9cff06f          	j	c538 <_vfiprintf_r+0x68c>
    cda0:	010df693          	and	a3,s11,16
    cda4:	00082783          	lw	a5,0(a6)
    cda8:	00480813          	add	a6,a6,4
    cdac:	02069263          	bnez	a3,cdd0 <_vfiprintf_r+0xf24>
    cdb0:	040df693          	and	a3,s11,64
    cdb4:	00068a63          	beqz	a3,cdc8 <_vfiprintf_r+0xf1c>
    cdb8:	01079793          	sll	a5,a5,0x10
    cdbc:	0107d793          	srl	a5,a5,0x10
    cdc0:	00000613          	li	a2,0
    cdc4:	f89ff06f          	j	cd4c <_vfiprintf_r+0xea0>
    cdc8:	200df693          	and	a3,s11,512
    cdcc:	28069c63          	bnez	a3,d064 <_vfiprintf_r+0x11b8>
    cdd0:	00000613          	li	a2,0
    cdd4:	f79ff06f          	j	cd4c <_vfiprintf_r+0xea0>
    cdd8:	ccccde37          	lui	t3,0xccccd
    cddc:	ccccd3b7          	lui	t2,0xccccd
    cde0:	01412303          	lw	t1,20(sp)
    cde4:	400dff13          	and	t5,s11,1024
    cde8:	00000513          	li	a0,0
    cdec:	0f010593          	add	a1,sp,240
    cdf0:	00500e93          	li	t4,5
    cdf4:	ccde0e13          	add	t3,t3,-819 # cccccccd <__alt_data_end+0xcccacccd>
    cdf8:	ccc38393          	add	t2,t2,-820 # cccccccc <__alt_data_end+0xcccacccc>
    cdfc:	0ff00f93          	li	t6,255
    ce00:	0540006f          	j	ce54 <_vfiprintf_r+0xfa8>
    ce04:	00f93733          	sltu	a4,s2,a5
    ce08:	00e90733          	add	a4,s2,a4
    ce0c:	03d77733          	remu	a4,a4,t4
    ce10:	40e78733          	sub	a4,a5,a4
    ce14:	00e7b633          	sltu	a2,a5,a4
    ce18:	40c88633          	sub	a2,a7,a2
    ce1c:	027702b3          	mul	t0,a4,t2
    ce20:	03c60633          	mul	a2,a2,t3
    ce24:	03c735b3          	mulhu	a1,a4,t3
    ce28:	00560633          	add	a2,a2,t0
    ce2c:	03c70733          	mul	a4,a4,t3
    ce30:	00b60633          	add	a2,a2,a1
    ce34:	01f61593          	sll	a1,a2,0x1f
    ce38:	00165613          	srl	a2,a2,0x1
    ce3c:	00175713          	srl	a4,a4,0x1
    ce40:	00e5e733          	or	a4,a1,a4
    ce44:	24088063          	beqz	a7,d084 <_vfiprintf_r+0x11d8>
    ce48:	00070793          	mv	a5,a4
    ce4c:	00060893          	mv	a7,a2
    ce50:	00068593          	mv	a1,a3
    ce54:	01178933          	add	s2,a5,a7
    ce58:	00f93733          	sltu	a4,s2,a5
    ce5c:	00e90733          	add	a4,s2,a4
    ce60:	03d77733          	remu	a4,a4,t4
    ce64:	fff58693          	add	a3,a1,-1
    ce68:	00150513          	add	a0,a0,1
    ce6c:	40e78733          	sub	a4,a5,a4
    ce70:	00e7b2b3          	sltu	t0,a5,a4
    ce74:	405882b3          	sub	t0,a7,t0
    ce78:	03c73633          	mulhu	a2,a4,t3
    ce7c:	03c282b3          	mul	t0,t0,t3
    ce80:	03c70733          	mul	a4,a4,t3
    ce84:	00c282b3          	add	t0,t0,a2
    ce88:	01f29293          	sll	t0,t0,0x1f
    ce8c:	00175613          	srl	a2,a4,0x1
    ce90:	00c2e633          	or	a2,t0,a2
    ce94:	00261713          	sll	a4,a2,0x2
    ce98:	00c70733          	add	a4,a4,a2
    ce9c:	00171713          	sll	a4,a4,0x1
    cea0:	40e78733          	sub	a4,a5,a4
    cea4:	03070713          	add	a4,a4,48
    cea8:	fee58fa3          	sb	a4,-1(a1)
    ceac:	f40f0ce3          	beqz	t5,ce04 <_vfiprintf_r+0xf58>
    ceb0:	00034703          	lbu	a4,0(t1)
    ceb4:	f4a718e3          	bne	a4,a0,ce04 <_vfiprintf_r+0xf58>
    ceb8:	f5f506e3          	beq	a0,t6,ce04 <_vfiprintf_r+0xf58>
    cebc:	08089663          	bnez	a7,cf48 <_vfiprintf_r+0x109c>
    cec0:	00900713          	li	a4,9
    cec4:	08f76263          	bltu	a4,a5,cf48 <_vfiprintf_r+0x109c>
    cec8:	00612a23          	sw	t1,20(sp)
    cecc:	00068913          	mv	s2,a3
    ced0:	9b5ff06f          	j	c884 <_vfiprintf_r+0x9d8>
    ced4:	c0cf50ef          	jal	22e0 <__sinit>
    ced8:	810ff06f          	j	bee8 <_vfiprintf_r+0x3c>
    cedc:	0019c703          	lbu	a4,1(s3)
    cee0:	020ded93          	or	s11,s11,32
    cee4:	00198993          	add	s3,s3,1
    cee8:	948ff06f          	j	c030 <_vfiprintf_r+0x184>
    ceec:	0019c703          	lbu	a4,1(s3)
    cef0:	200ded93          	or	s11,s11,512
    cef4:	00198993          	add	s3,s3,1
    cef8:	938ff06f          	j	c030 <_vfiprintf_r+0x184>
    cefc:	00082783          	lw	a5,0(a6)
    cf00:	00480813          	add	a6,a6,4
    cf04:	0177a023          	sw	s7,0(a5)
    cf08:	8acff06f          	j	bfb4 <_vfiprintf_r+0x108>
    cf0c:	00600793          	li	a5,6
    cf10:	00048893          	mv	a7,s1
    cf14:	1097ec63          	bltu	a5,s1,d02c <_vfiprintf_r+0x1180>
    cf18:	00088693          	mv	a3,a7
    cf1c:	00007917          	auipc	s2,0x7
    cf20:	ffc90913          	add	s2,s2,-4 # 13f18 <__flash_rodata_start+0x78>
    cf24:	978ff06f          	j	c09c <_vfiprintf_r+0x1f0>
    cf28:	20077693          	and	a3,a4,512
    cf2c:	d60684e3          	beqz	a3,cc94 <_vfiprintf_r+0xde8>
    cf30:	0ff7f793          	zext.b	a5,a5
    cf34:	00000893          	li	a7,0
    cf38:	855ff06f          	j	c78c <_vfiprintf_r+0x8e0>
    cf3c:	00000793          	li	a5,0
    cf40:	00000613          	li	a2,0
    cf44:	90dff06f          	j	c850 <_vfiprintf_r+0x9a4>
    cf48:	02f12423          	sw	a5,40(sp)
    cf4c:	01812783          	lw	a5,24(sp)
    cf50:	01c12583          	lw	a1,28(sp)
    cf54:	03112623          	sw	a7,44(sp)
    cf58:	40f686b3          	sub	a3,a3,a5
    cf5c:	00078613          	mv	a2,a5
    cf60:	00068513          	mv	a0,a3
    cf64:	02712223          	sw	t2,36(sp)
    cf68:	03c12023          	sw	t3,32(sp)
    cf6c:	01012a23          	sw	a6,20(sp)
    cf70:	01e12823          	sw	t5,16(sp)
    cf74:	00612623          	sw	t1,12(sp)
    cf78:	00d12423          	sw	a3,8(sp)
    cf7c:	fc8fa0ef          	jal	7744 <strncpy>
    cf80:	02812783          	lw	a5,40(sp)
    cf84:	00500613          	li	a2,5
    cf88:	00c12303          	lw	t1,12(sp)
    cf8c:	00f93733          	sltu	a4,s2,a5
    cf90:	00e90733          	add	a4,s2,a4
    cf94:	02c77733          	remu	a4,a4,a2
    cf98:	00134603          	lbu	a2,1(t1)
    cf9c:	02c12883          	lw	a7,44(sp)
    cfa0:	ccccd5b7          	lui	a1,0xccccd
    cfa4:	00c03633          	snez	a2,a2
    cfa8:	ccccd2b7          	lui	t0,0xccccd
    cfac:	00c30333          	add	t1,t1,a2
    cfb0:	ccd58593          	add	a1,a1,-819 # cccccccd <__alt_data_end+0xcccacccd>
    cfb4:	ccc28293          	add	t0,t0,-820 # cccccccc <__alt_data_end+0xcccacccc>
    cfb8:	00812683          	lw	a3,8(sp)
    cfbc:	01012f03          	lw	t5,16(sp)
    cfc0:	01412803          	lw	a6,20(sp)
    cfc4:	02012e03          	lw	t3,32(sp)
    cfc8:	02412383          	lw	t2,36(sp)
    cfcc:	00000513          	li	a0,0
    cfd0:	00500e93          	li	t4,5
    cfd4:	0ff00f93          	li	t6,255
    cfd8:	40e78733          	sub	a4,a5,a4
    cfdc:	00e7b633          	sltu	a2,a5,a4
    cfe0:	40c88633          	sub	a2,a7,a2
    cfe4:	025702b3          	mul	t0,a4,t0
    cfe8:	02b60633          	mul	a2,a2,a1
    cfec:	02b738b3          	mulhu	a7,a4,a1
    cff0:	00560633          	add	a2,a2,t0
    cff4:	02b707b3          	mul	a5,a4,a1
    cff8:	01160633          	add	a2,a2,a7
    cffc:	01f61713          	sll	a4,a2,0x1f
    d000:	00165613          	srl	a2,a2,0x1
    d004:	0017d793          	srl	a5,a5,0x1
    d008:	00f76733          	or	a4,a4,a5
    d00c:	e3dff06f          	j	ce48 <_vfiprintf_r+0xf9c>
    d010:	04010613          	add	a2,sp,64
    d014:	000a8593          	mv	a1,s5
    d018:	000b8513          	mv	a0,s7
    d01c:	fe0f90ef          	jal	67fc <__sprint_r>
    d020:	ac051263          	bnez	a0,c2e4 <_vfiprintf_r+0x438>
    d024:	04012223          	sw	zero,68(sp)
    d028:	abcff06f          	j	c2e4 <_vfiprintf_r+0x438>
    d02c:	00600893          	li	a7,6
    d030:	ee9ff06f          	j	cf18 <_vfiprintf_r+0x106c>
    d034:	00082783          	lw	a5,0(a6)
    d038:	00480813          	add	a6,a6,4
    d03c:	01779023          	sh	s7,0(a5)
    d040:	f75fe06f          	j	bfb4 <_vfiprintf_r+0x108>
    d044:	0ff7f793          	zext.b	a5,a5
    d048:	00000613          	li	a2,0
    d04c:	e48ff06f          	j	c694 <_vfiprintf_r+0x7e8>
    d050:	01879793          	sll	a5,a5,0x18
    d054:	4187d793          	sra	a5,a5,0x18
    d058:	41f7d893          	sra	a7,a5,0x1f
    d05c:	00088713          	mv	a4,a7
    d060:	9ecff06f          	j	c24c <_vfiprintf_r+0x3a0>
    d064:	0ff7f793          	zext.b	a5,a5
    d068:	00000613          	li	a2,0
    d06c:	ce1ff06f          	j	cd4c <_vfiprintf_r+0xea0>
    d070:	03000793          	li	a5,48
    d074:	c70ff06f          	j	c4e4 <_vfiprintf_r+0x638>
    d078:	058aa503          	lw	a0,88(s5)
    d07c:	b2df50ef          	jal	2ba8 <__retarget_lock_release_recursive>
    d080:	958ff06f          	j	c1d8 <_vfiprintf_r+0x32c>
    d084:	00900593          	li	a1,9
    d088:	dcf5e0e3          	bltu	a1,a5,ce48 <_vfiprintf_r+0xf9c>
    d08c:	e3dff06f          	j	cec8 <_vfiprintf_r+0x101c>
    d090:	064aa783          	lw	a5,100(s5)
    d094:	0017f793          	and	a5,a5,1
    d098:	00079c63          	bnez	a5,d0b0 <_vfiprintf_r+0x1204>
    d09c:	00cad783          	lhu	a5,12(s5)
    d0a0:	2007f793          	and	a5,a5,512
    d0a4:	00079663          	bnez	a5,d0b0 <_vfiprintf_r+0x1204>
    d0a8:	058aa503          	lw	a0,88(s5)
    d0ac:	afdf50ef          	jal	2ba8 <__retarget_lock_release_recursive>
    d0b0:	fff00d93          	li	s11,-1
    d0b4:	a64ff06f          	j	c318 <_vfiprintf_r+0x46c>
    d0b8:	00082483          	lw	s1,0(a6)
    d0bc:	00480813          	add	a6,a6,4
    d0c0:	0004d463          	bgez	s1,d0c8 <_vfiprintf_r+0x121c>
    d0c4:	fff00493          	li	s1,-1
    d0c8:	0019c703          	lbu	a4,1(s3)
    d0cc:	00060993          	mv	s3,a2
    d0d0:	f61fe06f          	j	c030 <_vfiprintf_r+0x184>

0000d0d4 <vfiprintf>:
    d0d4:	00060693          	mv	a3,a2
    d0d8:	00058613          	mv	a2,a1
    d0dc:	00050593          	mv	a1,a0
    d0e0:	8201a503          	lw	a0,-2016(gp) # 160fc <_impure_ptr>
    d0e4:	dc9fe06f          	j	beac <_vfiprintf_r>

0000d0e8 <__sbprintf>:
    d0e8:	b7010113          	add	sp,sp,-1168
    d0ec:	00c59783          	lh	a5,12(a1)
    d0f0:	00e5d703          	lhu	a4,14(a1)
    d0f4:	48812423          	sw	s0,1160(sp)
    d0f8:	00058413          	mv	s0,a1
    d0fc:	000105b7          	lui	a1,0x10
    d100:	ffd58593          	add	a1,a1,-3 # fffd <__multf3+0xc5>
    d104:	06442303          	lw	t1,100(s0)
    d108:	01c42883          	lw	a7,28(s0)
    d10c:	02442803          	lw	a6,36(s0)
    d110:	01071713          	sll	a4,a4,0x10
    d114:	00b7f7b3          	and	a5,a5,a1
    d118:	00e7e7b3          	or	a5,a5,a4
    d11c:	40000593          	li	a1,1024
    d120:	49212023          	sw	s2,1152(sp)
    d124:	00f12a23          	sw	a5,20(sp)
    d128:	00050913          	mv	s2,a0
    d12c:	07010793          	add	a5,sp,112
    d130:	06010513          	add	a0,sp,96
    d134:	48112623          	sw	ra,1164(sp)
    d138:	48912223          	sw	s1,1156(sp)
    d13c:	47312e23          	sw	s3,1148(sp)
    d140:	00060493          	mv	s1,a2
    d144:	00068993          	mv	s3,a3
    d148:	06612623          	sw	t1,108(sp)
    d14c:	03112223          	sw	a7,36(sp)
    d150:	03012623          	sw	a6,44(sp)
    d154:	00f12423          	sw	a5,8(sp)
    d158:	00f12c23          	sw	a5,24(sp)
    d15c:	00b12823          	sw	a1,16(sp)
    d160:	00b12e23          	sw	a1,28(sp)
    d164:	02012023          	sw	zero,32(sp)
    d168:	a19f50ef          	jal	2b80 <__retarget_lock_init_recursive>
    d16c:	00048613          	mv	a2,s1
    d170:	00098693          	mv	a3,s3
    d174:	00810593          	add	a1,sp,8
    d178:	00090513          	mv	a0,s2
    d17c:	d31fe0ef          	jal	beac <_vfiprintf_r>
    d180:	00050493          	mv	s1,a0
    d184:	04055263          	bgez	a0,d1c8 <__sbprintf+0xe0>
    d188:	01415783          	lhu	a5,20(sp)
    d18c:	0407f793          	and	a5,a5,64
    d190:	00078863          	beqz	a5,d1a0 <__sbprintf+0xb8>
    d194:	00c45783          	lhu	a5,12(s0)
    d198:	0407e793          	or	a5,a5,64
    d19c:	00f41623          	sh	a5,12(s0)
    d1a0:	06012503          	lw	a0,96(sp)
    d1a4:	9e5f50ef          	jal	2b88 <__retarget_lock_close_recursive>
    d1a8:	48c12083          	lw	ra,1164(sp)
    d1ac:	48812403          	lw	s0,1160(sp)
    d1b0:	48012903          	lw	s2,1152(sp)
    d1b4:	47c12983          	lw	s3,1148(sp)
    d1b8:	00048513          	mv	a0,s1
    d1bc:	48412483          	lw	s1,1156(sp)
    d1c0:	49010113          	add	sp,sp,1168
    d1c4:	00008067          	ret
    d1c8:	00810593          	add	a1,sp,8
    d1cc:	00090513          	mv	a0,s2
    d1d0:	a41f90ef          	jal	6c10 <_fflush_r>
    d1d4:	fa050ae3          	beqz	a0,d188 <__sbprintf+0xa0>
    d1d8:	fff00493          	li	s1,-1
    d1dc:	fadff06f          	j	d188 <__sbprintf+0xa0>

0000d1e0 <__errno>:
    d1e0:	8201a503          	lw	a0,-2016(gp) # 160fc <_impure_ptr>
    d1e4:	00008067          	ret

0000d1e8 <abort>:
    d1e8:	ff010113          	add	sp,sp,-16
    d1ec:	00600513          	li	a0,6
    d1f0:	00112623          	sw	ra,12(sp)
    d1f4:	2a8000ef          	jal	d49c <raise>
    d1f8:	00100513          	li	a0,1
    d1fc:	5b5050ef          	jal	12fb0 <_exit>

0000d200 <_init_signal_r>:
    d200:	11852783          	lw	a5,280(a0)
    d204:	00078663          	beqz	a5,d210 <_init_signal_r+0x10>
    d208:	00000513          	li	a0,0
    d20c:	00008067          	ret
    d210:	ff010113          	add	sp,sp,-16
    d214:	08000593          	li	a1,128
    d218:	00812423          	sw	s0,8(sp)
    d21c:	00112623          	sw	ra,12(sp)
    d220:	00050413          	mv	s0,a0
    d224:	b14f60ef          	jal	3538 <_malloc_r>
    d228:	10a42c23          	sw	a0,280(s0)
    d22c:	02050463          	beqz	a0,d254 <_init_signal_r+0x54>
    d230:	08050793          	add	a5,a0,128
    d234:	00052023          	sw	zero,0(a0)
    d238:	00450513          	add	a0,a0,4
    d23c:	fef51ce3          	bne	a0,a5,d234 <_init_signal_r+0x34>
    d240:	00000513          	li	a0,0
    d244:	00c12083          	lw	ra,12(sp)
    d248:	00812403          	lw	s0,8(sp)
    d24c:	01010113          	add	sp,sp,16
    d250:	00008067          	ret
    d254:	fff00513          	li	a0,-1
    d258:	fedff06f          	j	d244 <_init_signal_r+0x44>

0000d25c <_signal_r>:
    d25c:	fe010113          	add	sp,sp,-32
    d260:	00912a23          	sw	s1,20(sp)
    d264:	00112e23          	sw	ra,28(sp)
    d268:	01f00793          	li	a5,31
    d26c:	00050493          	mv	s1,a0
    d270:	02b7ec63          	bltu	a5,a1,d2a8 <_signal_r+0x4c>
    d274:	11852783          	lw	a5,280(a0)
    d278:	00812c23          	sw	s0,24(sp)
    d27c:	00058413          	mv	s0,a1
    d280:	02078c63          	beqz	a5,d2b8 <_signal_r+0x5c>
    d284:	00241413          	sll	s0,s0,0x2
    d288:	008787b3          	add	a5,a5,s0
    d28c:	01812403          	lw	s0,24(sp)
    d290:	0007a503          	lw	a0,0(a5)
    d294:	00c7a023          	sw	a2,0(a5)
    d298:	01c12083          	lw	ra,28(sp)
    d29c:	01412483          	lw	s1,20(sp)
    d2a0:	02010113          	add	sp,sp,32
    d2a4:	00008067          	ret
    d2a8:	01600793          	li	a5,22
    d2ac:	00f52023          	sw	a5,0(a0)
    d2b0:	fff00513          	li	a0,-1
    d2b4:	fe5ff06f          	j	d298 <_signal_r+0x3c>
    d2b8:	08000593          	li	a1,128
    d2bc:	00c12623          	sw	a2,12(sp)
    d2c0:	a78f60ef          	jal	3538 <_malloc_r>
    d2c4:	10a4ac23          	sw	a0,280(s1)
    d2c8:	00c12603          	lw	a2,12(sp)
    d2cc:	00050793          	mv	a5,a0
    d2d0:	00050713          	mv	a4,a0
    d2d4:	08050693          	add	a3,a0,128
    d2d8:	00050a63          	beqz	a0,d2ec <_signal_r+0x90>
    d2dc:	00072023          	sw	zero,0(a4)
    d2e0:	00470713          	add	a4,a4,4
    d2e4:	fed71ce3          	bne	a4,a3,d2dc <_signal_r+0x80>
    d2e8:	f9dff06f          	j	d284 <_signal_r+0x28>
    d2ec:	01812403          	lw	s0,24(sp)
    d2f0:	fff00513          	li	a0,-1
    d2f4:	fa5ff06f          	j	d298 <_signal_r+0x3c>

0000d2f8 <_raise_r>:
    d2f8:	ff010113          	add	sp,sp,-16
    d2fc:	00912223          	sw	s1,4(sp)
    d300:	00112623          	sw	ra,12(sp)
    d304:	01f00793          	li	a5,31
    d308:	00050493          	mv	s1,a0
    d30c:	0ab7e063          	bltu	a5,a1,d3ac <_raise_r+0xb4>
    d310:	11852783          	lw	a5,280(a0)
    d314:	00812423          	sw	s0,8(sp)
    d318:	00058413          	mv	s0,a1
    d31c:	04078463          	beqz	a5,d364 <_raise_r+0x6c>
    d320:	00259713          	sll	a4,a1,0x2
    d324:	00e787b3          	add	a5,a5,a4
    d328:	0007a703          	lw	a4,0(a5)
    d32c:	02070c63          	beqz	a4,d364 <_raise_r+0x6c>
    d330:	00100693          	li	a3,1
    d334:	00d70c63          	beq	a4,a3,d34c <_raise_r+0x54>
    d338:	fff00693          	li	a3,-1
    d33c:	04d70863          	beq	a4,a3,d38c <_raise_r+0x94>
    d340:	0007a023          	sw	zero,0(a5)
    d344:	00058513          	mv	a0,a1
    d348:	000700e7          	jalr	a4
    d34c:	00812403          	lw	s0,8(sp)
    d350:	00000513          	li	a0,0
    d354:	00c12083          	lw	ra,12(sp)
    d358:	00412483          	lw	s1,4(sp)
    d35c:	01010113          	add	sp,sp,16
    d360:	00008067          	ret
    d364:	00048513          	mv	a0,s1
    d368:	438000ef          	jal	d7a0 <_getpid_r>
    d36c:	00040613          	mv	a2,s0
    d370:	00812403          	lw	s0,8(sp)
    d374:	00c12083          	lw	ra,12(sp)
    d378:	00050593          	mv	a1,a0
    d37c:	00048513          	mv	a0,s1
    d380:	00412483          	lw	s1,4(sp)
    d384:	01010113          	add	sp,sp,16
    d388:	3b80006f          	j	d740 <_kill_r>
    d38c:	00812403          	lw	s0,8(sp)
    d390:	00c12083          	lw	ra,12(sp)
    d394:	01600793          	li	a5,22
    d398:	00f52023          	sw	a5,0(a0)
    d39c:	00412483          	lw	s1,4(sp)
    d3a0:	00100513          	li	a0,1
    d3a4:	01010113          	add	sp,sp,16
    d3a8:	00008067          	ret
    d3ac:	01600793          	li	a5,22
    d3b0:	00f52023          	sw	a5,0(a0)
    d3b4:	fff00513          	li	a0,-1
    d3b8:	f9dff06f          	j	d354 <_raise_r+0x5c>

0000d3bc <__sigtramp_r>:
    d3bc:	01f00793          	li	a5,31
    d3c0:	0cb7ea63          	bltu	a5,a1,d494 <__sigtramp_r+0xd8>
    d3c4:	11852783          	lw	a5,280(a0)
    d3c8:	ff010113          	add	sp,sp,-16
    d3cc:	00812423          	sw	s0,8(sp)
    d3d0:	00912223          	sw	s1,4(sp)
    d3d4:	00112623          	sw	ra,12(sp)
    d3d8:	00058413          	mv	s0,a1
    d3dc:	00050493          	mv	s1,a0
    d3e0:	08078063          	beqz	a5,d460 <__sigtramp_r+0xa4>
    d3e4:	00241713          	sll	a4,s0,0x2
    d3e8:	00e787b3          	add	a5,a5,a4
    d3ec:	0007a703          	lw	a4,0(a5)
    d3f0:	02070c63          	beqz	a4,d428 <__sigtramp_r+0x6c>
    d3f4:	fff00693          	li	a3,-1
    d3f8:	06d70063          	beq	a4,a3,d458 <__sigtramp_r+0x9c>
    d3fc:	00100693          	li	a3,1
    d400:	04d70063          	beq	a4,a3,d440 <__sigtramp_r+0x84>
    d404:	00040513          	mv	a0,s0
    d408:	0007a023          	sw	zero,0(a5)
    d40c:	000700e7          	jalr	a4
    d410:	00000513          	li	a0,0
    d414:	00c12083          	lw	ra,12(sp)
    d418:	00812403          	lw	s0,8(sp)
    d41c:	00412483          	lw	s1,4(sp)
    d420:	01010113          	add	sp,sp,16
    d424:	00008067          	ret
    d428:	00c12083          	lw	ra,12(sp)
    d42c:	00812403          	lw	s0,8(sp)
    d430:	00412483          	lw	s1,4(sp)
    d434:	00100513          	li	a0,1
    d438:	01010113          	add	sp,sp,16
    d43c:	00008067          	ret
    d440:	00c12083          	lw	ra,12(sp)
    d444:	00812403          	lw	s0,8(sp)
    d448:	00412483          	lw	s1,4(sp)
    d44c:	00300513          	li	a0,3
    d450:	01010113          	add	sp,sp,16
    d454:	00008067          	ret
    d458:	00200513          	li	a0,2
    d45c:	fb9ff06f          	j	d414 <__sigtramp_r+0x58>
    d460:	08000593          	li	a1,128
    d464:	8d4f60ef          	jal	3538 <_malloc_r>
    d468:	10a4ac23          	sw	a0,280(s1)
    d46c:	00050793          	mv	a5,a0
    d470:	00050e63          	beqz	a0,d48c <__sigtramp_r+0xd0>
    d474:	00050713          	mv	a4,a0
    d478:	08050693          	add	a3,a0,128
    d47c:	00072023          	sw	zero,0(a4)
    d480:	00470713          	add	a4,a4,4
    d484:	fed71ce3          	bne	a4,a3,d47c <__sigtramp_r+0xc0>
    d488:	f5dff06f          	j	d3e4 <__sigtramp_r+0x28>
    d48c:	fff00513          	li	a0,-1
    d490:	f85ff06f          	j	d414 <__sigtramp_r+0x58>
    d494:	fff00513          	li	a0,-1
    d498:	00008067          	ret

0000d49c <raise>:
    d49c:	ff010113          	add	sp,sp,-16
    d4a0:	00912223          	sw	s1,4(sp)
    d4a4:	00112623          	sw	ra,12(sp)
    d4a8:	01f00793          	li	a5,31
    d4ac:	8201a483          	lw	s1,-2016(gp) # 160fc <_impure_ptr>
    d4b0:	08a7ee63          	bltu	a5,a0,d54c <raise+0xb0>
    d4b4:	1184a783          	lw	a5,280(s1)
    d4b8:	00812423          	sw	s0,8(sp)
    d4bc:	00050413          	mv	s0,a0
    d4c0:	04078263          	beqz	a5,d504 <raise+0x68>
    d4c4:	00251713          	sll	a4,a0,0x2
    d4c8:	00e787b3          	add	a5,a5,a4
    d4cc:	0007a703          	lw	a4,0(a5)
    d4d0:	02070a63          	beqz	a4,d504 <raise+0x68>
    d4d4:	00100693          	li	a3,1
    d4d8:	00d70a63          	beq	a4,a3,d4ec <raise+0x50>
    d4dc:	fff00693          	li	a3,-1
    d4e0:	04d70663          	beq	a4,a3,d52c <raise+0x90>
    d4e4:	0007a023          	sw	zero,0(a5)
    d4e8:	000700e7          	jalr	a4
    d4ec:	00812403          	lw	s0,8(sp)
    d4f0:	00000513          	li	a0,0
    d4f4:	00c12083          	lw	ra,12(sp)
    d4f8:	00412483          	lw	s1,4(sp)
    d4fc:	01010113          	add	sp,sp,16
    d500:	00008067          	ret
    d504:	00048513          	mv	a0,s1
    d508:	298000ef          	jal	d7a0 <_getpid_r>
    d50c:	00040613          	mv	a2,s0
    d510:	00812403          	lw	s0,8(sp)
    d514:	00c12083          	lw	ra,12(sp)
    d518:	00050593          	mv	a1,a0
    d51c:	00048513          	mv	a0,s1
    d520:	00412483          	lw	s1,4(sp)
    d524:	01010113          	add	sp,sp,16
    d528:	2180006f          	j	d740 <_kill_r>
    d52c:	00812403          	lw	s0,8(sp)
    d530:	00c12083          	lw	ra,12(sp)
    d534:	01600793          	li	a5,22
    d538:	00f4a023          	sw	a5,0(s1)
    d53c:	00100513          	li	a0,1
    d540:	00412483          	lw	s1,4(sp)
    d544:	01010113          	add	sp,sp,16
    d548:	00008067          	ret
    d54c:	01600793          	li	a5,22
    d550:	00f4a023          	sw	a5,0(s1)
    d554:	fff00513          	li	a0,-1
    d558:	f9dff06f          	j	d4f4 <raise+0x58>

0000d55c <signal>:
    d55c:	ff010113          	add	sp,sp,-16
    d560:	01212023          	sw	s2,0(sp)
    d564:	00112623          	sw	ra,12(sp)
    d568:	01f00793          	li	a5,31
    d56c:	8201a903          	lw	s2,-2016(gp) # 160fc <_impure_ptr>
    d570:	04a7e263          	bltu	a5,a0,d5b4 <signal+0x58>
    d574:	00812423          	sw	s0,8(sp)
    d578:	00050413          	mv	s0,a0
    d57c:	11892503          	lw	a0,280(s2)
    d580:	00912223          	sw	s1,4(sp)
    d584:	00058493          	mv	s1,a1
    d588:	02050e63          	beqz	a0,d5c4 <signal+0x68>
    d58c:	00241413          	sll	s0,s0,0x2
    d590:	008507b3          	add	a5,a0,s0
    d594:	0007a503          	lw	a0,0(a5)
    d598:	00812403          	lw	s0,8(sp)
    d59c:	0097a023          	sw	s1,0(a5)
    d5a0:	00412483          	lw	s1,4(sp)
    d5a4:	00c12083          	lw	ra,12(sp)
    d5a8:	00012903          	lw	s2,0(sp)
    d5ac:	01010113          	add	sp,sp,16
    d5b0:	00008067          	ret
    d5b4:	01600793          	li	a5,22
    d5b8:	00f92023          	sw	a5,0(s2)
    d5bc:	fff00513          	li	a0,-1
    d5c0:	fe5ff06f          	j	d5a4 <signal+0x48>
    d5c4:	08000593          	li	a1,128
    d5c8:	00090513          	mv	a0,s2
    d5cc:	f6df50ef          	jal	3538 <_malloc_r>
    d5d0:	10a92c23          	sw	a0,280(s2)
    d5d4:	00050793          	mv	a5,a0
    d5d8:	08050713          	add	a4,a0,128
    d5dc:	00050a63          	beqz	a0,d5f0 <signal+0x94>
    d5e0:	0007a023          	sw	zero,0(a5)
    d5e4:	00478793          	add	a5,a5,4
    d5e8:	fef71ce3          	bne	a4,a5,d5e0 <signal+0x84>
    d5ec:	fa1ff06f          	j	d58c <signal+0x30>
    d5f0:	00812403          	lw	s0,8(sp)
    d5f4:	00412483          	lw	s1,4(sp)
    d5f8:	fff00513          	li	a0,-1
    d5fc:	fa9ff06f          	j	d5a4 <signal+0x48>

0000d600 <_init_signal>:
    d600:	ff010113          	add	sp,sp,-16
    d604:	00812423          	sw	s0,8(sp)
    d608:	8201a403          	lw	s0,-2016(gp) # 160fc <_impure_ptr>
    d60c:	11842783          	lw	a5,280(s0)
    d610:	00112623          	sw	ra,12(sp)
    d614:	00078c63          	beqz	a5,d62c <_init_signal+0x2c>
    d618:	00000513          	li	a0,0
    d61c:	00c12083          	lw	ra,12(sp)
    d620:	00812403          	lw	s0,8(sp)
    d624:	01010113          	add	sp,sp,16
    d628:	00008067          	ret
    d62c:	08000593          	li	a1,128
    d630:	00040513          	mv	a0,s0
    d634:	f05f50ef          	jal	3538 <_malloc_r>
    d638:	10a42c23          	sw	a0,280(s0)
    d63c:	00050c63          	beqz	a0,d654 <_init_signal+0x54>
    d640:	08050793          	add	a5,a0,128
    d644:	00052023          	sw	zero,0(a0)
    d648:	00450513          	add	a0,a0,4
    d64c:	fef51ce3          	bne	a0,a5,d644 <_init_signal+0x44>
    d650:	fc9ff06f          	j	d618 <_init_signal+0x18>
    d654:	fff00513          	li	a0,-1
    d658:	fc5ff06f          	j	d61c <_init_signal+0x1c>

0000d65c <__sigtramp>:
    d65c:	ff010113          	add	sp,sp,-16
    d660:	00912223          	sw	s1,4(sp)
    d664:	00112623          	sw	ra,12(sp)
    d668:	01f00793          	li	a5,31
    d66c:	8201a483          	lw	s1,-2016(gp) # 160fc <_impure_ptr>
    d670:	0ca7e463          	bltu	a5,a0,d738 <__sigtramp+0xdc>
    d674:	1184a783          	lw	a5,280(s1)
    d678:	00812423          	sw	s0,8(sp)
    d67c:	00050413          	mv	s0,a0
    d680:	08078263          	beqz	a5,d704 <__sigtramp+0xa8>
    d684:	00241713          	sll	a4,s0,0x2
    d688:	00e787b3          	add	a5,a5,a4
    d68c:	0007a703          	lw	a4,0(a5)
    d690:	02070c63          	beqz	a4,d6c8 <__sigtramp+0x6c>
    d694:	fff00693          	li	a3,-1
    d698:	06d70063          	beq	a4,a3,d6f8 <__sigtramp+0x9c>
    d69c:	00100693          	li	a3,1
    d6a0:	04d70063          	beq	a4,a3,d6e0 <__sigtramp+0x84>
    d6a4:	00040513          	mv	a0,s0
    d6a8:	0007a023          	sw	zero,0(a5)
    d6ac:	000700e7          	jalr	a4
    d6b0:	00812403          	lw	s0,8(sp)
    d6b4:	00000513          	li	a0,0
    d6b8:	00c12083          	lw	ra,12(sp)
    d6bc:	00412483          	lw	s1,4(sp)
    d6c0:	01010113          	add	sp,sp,16
    d6c4:	00008067          	ret
    d6c8:	00812403          	lw	s0,8(sp)
    d6cc:	00c12083          	lw	ra,12(sp)
    d6d0:	00412483          	lw	s1,4(sp)
    d6d4:	00100513          	li	a0,1
    d6d8:	01010113          	add	sp,sp,16
    d6dc:	00008067          	ret
    d6e0:	00812403          	lw	s0,8(sp)
    d6e4:	00c12083          	lw	ra,12(sp)
    d6e8:	00412483          	lw	s1,4(sp)
    d6ec:	00300513          	li	a0,3
    d6f0:	01010113          	add	sp,sp,16
    d6f4:	00008067          	ret
    d6f8:	00812403          	lw	s0,8(sp)
    d6fc:	00200513          	li	a0,2
    d700:	fb9ff06f          	j	d6b8 <__sigtramp+0x5c>
    d704:	08000593          	li	a1,128
    d708:	00048513          	mv	a0,s1
    d70c:	e2df50ef          	jal	3538 <_malloc_r>
    d710:	10a4ac23          	sw	a0,280(s1)
    d714:	00050793          	mv	a5,a0
    d718:	00050e63          	beqz	a0,d734 <__sigtramp+0xd8>
    d71c:	00050713          	mv	a4,a0
    d720:	08050693          	add	a3,a0,128
    d724:	00072023          	sw	zero,0(a4)
    d728:	00470713          	add	a4,a4,4
    d72c:	fee69ce3          	bne	a3,a4,d724 <__sigtramp+0xc8>
    d730:	f55ff06f          	j	d684 <__sigtramp+0x28>
    d734:	00812403          	lw	s0,8(sp)
    d738:	fff00513          	li	a0,-1
    d73c:	f7dff06f          	j	d6b8 <__sigtramp+0x5c>

0000d740 <_kill_r>:
    d740:	ff010113          	add	sp,sp,-16
    d744:	00058713          	mv	a4,a1
    d748:	00812423          	sw	s0,8(sp)
    d74c:	00060593          	mv	a1,a2
    d750:	00050413          	mv	s0,a0
    d754:	00070513          	mv	a0,a4
    d758:	0000a797          	auipc	a5,0xa
    d75c:	2c07a623          	sw	zero,716(a5) # 17a24 <errno>
    d760:	00112623          	sw	ra,12(sp)
    d764:	335050ef          	jal	13298 <_kill>
    d768:	fff00793          	li	a5,-1
    d76c:	00f50a63          	beq	a0,a5,d780 <_kill_r+0x40>
    d770:	00c12083          	lw	ra,12(sp)
    d774:	00812403          	lw	s0,8(sp)
    d778:	01010113          	add	sp,sp,16
    d77c:	00008067          	ret
    d780:	0000a797          	auipc	a5,0xa
    d784:	2a47a783          	lw	a5,676(a5) # 17a24 <errno>
    d788:	fe0784e3          	beqz	a5,d770 <_kill_r+0x30>
    d78c:	00c12083          	lw	ra,12(sp)
    d790:	00f42023          	sw	a5,0(s0)
    d794:	00812403          	lw	s0,8(sp)
    d798:	01010113          	add	sp,sp,16
    d79c:	00008067          	ret

0000d7a0 <_getpid_r>:
    d7a0:	1550506f          	j	130f4 <_getpid>

0000d7a4 <__adddf3>:
    d7a4:	001007b7          	lui	a5,0x100
    d7a8:	fe010113          	add	sp,sp,-32
    d7ac:	fff78e93          	add	t4,a5,-1 # fffff <__alt_data_end+0xdffff>
    d7b0:	00bef833          	and	a6,t4,a1
    d7b4:	00def7b3          	and	a5,t4,a3
    d7b8:	0146d313          	srl	t1,a3,0x14
    d7bc:	01212823          	sw	s2,16(sp)
    d7c0:	0145d913          	srl	s2,a1,0x14
    d7c4:	00379793          	sll	a5,a5,0x3
    d7c8:	00812c23          	sw	s0,24(sp)
    d7cc:	00381813          	sll	a6,a6,0x3
    d7d0:	01f5d413          	srl	s0,a1,0x1f
    d7d4:	01d55713          	srl	a4,a0,0x1d
    d7d8:	01d65893          	srl	a7,a2,0x1d
    d7dc:	7ff97913          	and	s2,s2,2047
    d7e0:	7ff37313          	and	t1,t1,2047
    d7e4:	00112e23          	sw	ra,28(sp)
    d7e8:	00912a23          	sw	s1,20(sp)
    d7ec:	01312623          	sw	s3,12(sp)
    d7f0:	01f6d693          	srl	a3,a3,0x1f
    d7f4:	00f8e8b3          	or	a7,a7,a5
    d7f8:	01076733          	or	a4,a4,a6
    d7fc:	00351593          	sll	a1,a0,0x3
    d800:	00361f13          	sll	t5,a2,0x3
    d804:	406907b3          	sub	a5,s2,t1
    d808:	1ed40463          	beq	s0,a3,d9f0 <__adddf3+0x24c>
    d80c:	16f05263          	blez	a5,d970 <__adddf3+0x1cc>
    d810:	28030663          	beqz	t1,da9c <__adddf3+0x2f8>
    d814:	7ff00693          	li	a3,2047
    d818:	42d90663          	beq	s2,a3,dc44 <__adddf3+0x4a0>
    d81c:	03800693          	li	a3,56
    d820:	00100613          	li	a2,1
    d824:	02f6ce63          	blt	a3,a5,d860 <__adddf3+0xbc>
    d828:	008006b7          	lui	a3,0x800
    d82c:	00d8e8b3          	or	a7,a7,a3
    d830:	01f00693          	li	a3,31
    d834:	52f6ce63          	blt	a3,a5,dd70 <__adddf3+0x5cc>
    d838:	02000693          	li	a3,32
    d83c:	40f686b3          	sub	a3,a3,a5
    d840:	00d89633          	sll	a2,a7,a3
    d844:	00ff5533          	srl	a0,t5,a5
    d848:	00df16b3          	sll	a3,t5,a3
    d84c:	00a66633          	or	a2,a2,a0
    d850:	00d036b3          	snez	a3,a3
    d854:	00f8d8b3          	srl	a7,a7,a5
    d858:	00d66633          	or	a2,a2,a3
    d85c:	41170733          	sub	a4,a4,a7
    d860:	40c58633          	sub	a2,a1,a2
    d864:	00c5b5b3          	sltu	a1,a1,a2
    d868:	00060493          	mv	s1,a2
    d86c:	40b709b3          	sub	s3,a4,a1
    d870:	00899793          	sll	a5,s3,0x8
    d874:	3207da63          	bgez	a5,dba8 <__adddf3+0x404>
    d878:	008007b7          	lui	a5,0x800
    d87c:	fff78793          	add	a5,a5,-1 # 7fffff <__alt_data_end+0x7dffff>
    d880:	00f9f9b3          	and	s3,s3,a5
    d884:	2c098863          	beqz	s3,db54 <__adddf3+0x3b0>
    d888:	00098513          	mv	a0,s3
    d88c:	578050ef          	jal	12e04 <__clzsi2>
    d890:	ff850793          	add	a5,a0,-8
    d894:	02000693          	li	a3,32
    d898:	40f68733          	sub	a4,a3,a5
    d89c:	00e4d733          	srl	a4,s1,a4
    d8a0:	00f999b3          	sll	s3,s3,a5
    d8a4:	01376733          	or	a4,a4,s3
    d8a8:	00f494b3          	sll	s1,s1,a5
    d8ac:	4b27c863          	blt	a5,s2,dd5c <__adddf3+0x5b8>
    d8b0:	412787b3          	sub	a5,a5,s2
    d8b4:	00178793          	add	a5,a5,1
    d8b8:	40f686b3          	sub	a3,a3,a5
    d8bc:	00d49633          	sll	a2,s1,a3
    d8c0:	00f4d9b3          	srl	s3,s1,a5
    d8c4:	00c03633          	snez	a2,a2
    d8c8:	01366633          	or	a2,a2,s3
    d8cc:	00d716b3          	sll	a3,a4,a3
    d8d0:	00c6e4b3          	or	s1,a3,a2
    d8d4:	00f759b3          	srl	s3,a4,a5
    d8d8:	00000913          	li	s2,0
    d8dc:	0074f793          	and	a5,s1,7
    d8e0:	02078063          	beqz	a5,d900 <__adddf3+0x15c>
    d8e4:	00f4f793          	and	a5,s1,15
    d8e8:	00400713          	li	a4,4
    d8ec:	00e78a63          	beq	a5,a4,d900 <__adddf3+0x15c>
    d8f0:	00448793          	add	a5,s1,4
    d8f4:	0097b633          	sltu	a2,a5,s1
    d8f8:	00c989b3          	add	s3,s3,a2
    d8fc:	00078493          	mv	s1,a5
    d900:	00899793          	sll	a5,s3,0x8
    d904:	6e07da63          	bgez	a5,dff8 <__adddf3+0x854>
    d908:	00190793          	add	a5,s2,1
    d90c:	7ff00713          	li	a4,2047
    d910:	00040e13          	mv	t3,s0
    d914:	2ae78663          	beq	a5,a4,dbc0 <__adddf3+0x41c>
    d918:	ff800737          	lui	a4,0xff800
    d91c:	fff70713          	add	a4,a4,-1 # ff7fffff <__alt_data_end+0xff7dffff>
    d920:	00e9f733          	and	a4,s3,a4
    d924:	7ff7f793          	and	a5,a5,2047
    d928:	01d71813          	sll	a6,a4,0x1d
    d92c:	0034d613          	srl	a2,s1,0x3
    d930:	00971713          	sll	a4,a4,0x9
    d934:	00c86833          	or	a6,a6,a2
    d938:	00c75713          	srl	a4,a4,0xc
    d93c:	01c12083          	lw	ra,28(sp)
    d940:	01812403          	lw	s0,24(sp)
    d944:	01479793          	sll	a5,a5,0x14
    d948:	00e7e7b3          	or	a5,a5,a4
    d94c:	01fe1713          	sll	a4,t3,0x1f
    d950:	00e7e7b3          	or	a5,a5,a4
    d954:	01412483          	lw	s1,20(sp)
    d958:	01012903          	lw	s2,16(sp)
    d95c:	00c12983          	lw	s3,12(sp)
    d960:	00080513          	mv	a0,a6
    d964:	00078593          	mv	a1,a5
    d968:	02010113          	add	sp,sp,32
    d96c:	00008067          	ret
    d970:	14078c63          	beqz	a5,dac8 <__adddf3+0x324>
    d974:	412307b3          	sub	a5,t1,s2
    d978:	3c091263          	bnez	s2,dd3c <__adddf3+0x598>
    d97c:	00b76533          	or	a0,a4,a1
    d980:	4c050463          	beqz	a0,de48 <__adddf3+0x6a4>
    d984:	fff78513          	add	a0,a5,-1
    d988:	60050263          	beqz	a0,df8c <__adddf3+0x7e8>
    d98c:	7ff00813          	li	a6,2047
    d990:	57078663          	beq	a5,a6,defc <__adddf3+0x758>
    d994:	03800793          	li	a5,56
    d998:	00100613          	li	a2,1
    d99c:	02a7cc63          	blt	a5,a0,d9d4 <__adddf3+0x230>
    d9a0:	00050793          	mv	a5,a0
    d9a4:	01f00613          	li	a2,31
    d9a8:	56f64c63          	blt	a2,a5,df20 <__adddf3+0x77c>
    d9ac:	02000513          	li	a0,32
    d9b0:	40f50533          	sub	a0,a0,a5
    d9b4:	00a71633          	sll	a2,a4,a0
    d9b8:	00f5d833          	srl	a6,a1,a5
    d9bc:	00a59533          	sll	a0,a1,a0
    d9c0:	01066633          	or	a2,a2,a6
    d9c4:	00a03533          	snez	a0,a0
    d9c8:	00f75733          	srl	a4,a4,a5
    d9cc:	00a66633          	or	a2,a2,a0
    d9d0:	40e888b3          	sub	a7,a7,a4
    d9d4:	40cf0633          	sub	a2,t5,a2
    d9d8:	00cf3733          	sltu	a4,t5,a2
    d9dc:	00060493          	mv	s1,a2
    d9e0:	40e889b3          	sub	s3,a7,a4
    d9e4:	00030913          	mv	s2,t1
    d9e8:	00068413          	mv	s0,a3
    d9ec:	e85ff06f          	j	d870 <__adddf3+0xcc>
    d9f0:	1ef05063          	blez	a5,dbd0 <__adddf3+0x42c>
    d9f4:	14031063          	bnez	t1,db34 <__adddf3+0x390>
    d9f8:	01e8e6b3          	or	a3,a7,t5
    d9fc:	26068c63          	beqz	a3,dc74 <__adddf3+0x4d0>
    da00:	fff78693          	add	a3,a5,-1
    da04:	48068063          	beqz	a3,de84 <__adddf3+0x6e0>
    da08:	7ff00613          	li	a2,2047
    da0c:	22c78c63          	beq	a5,a2,dc44 <__adddf3+0x4a0>
    da10:	03800793          	li	a5,56
    da14:	00100993          	li	s3,1
    da18:	02d7cc63          	blt	a5,a3,da50 <__adddf3+0x2ac>
    da1c:	00068793          	mv	a5,a3
    da20:	01f00693          	li	a3,31
    da24:	4af6c063          	blt	a3,a5,dec4 <__adddf3+0x720>
    da28:	02000693          	li	a3,32
    da2c:	40f686b3          	sub	a3,a3,a5
    da30:	00d899b3          	sll	s3,a7,a3
    da34:	00ff5633          	srl	a2,t5,a5
    da38:	00df16b3          	sll	a3,t5,a3
    da3c:	00c9e9b3          	or	s3,s3,a2
    da40:	00d036b3          	snez	a3,a3
    da44:	00f8d8b3          	srl	a7,a7,a5
    da48:	00d9e9b3          	or	s3,s3,a3
    da4c:	01170733          	add	a4,a4,a7
    da50:	00b985b3          	add	a1,s3,a1
    da54:	0135b9b3          	sltu	s3,a1,s3
    da58:	00058493          	mv	s1,a1
    da5c:	00e989b3          	add	s3,s3,a4
    da60:	00899793          	sll	a5,s3,0x8
    da64:	1407d263          	bgez	a5,dba8 <__adddf3+0x404>
    da68:	00190913          	add	s2,s2,1
    da6c:	7ff00793          	li	a5,2047
    da70:	36f90c63          	beq	s2,a5,dde8 <__adddf3+0x644>
    da74:	ff8007b7          	lui	a5,0xff800
    da78:	fff78793          	add	a5,a5,-1 # ff7fffff <__alt_data_end+0xff7dffff>
    da7c:	0014f613          	and	a2,s1,1
    da80:	00f9f7b3          	and	a5,s3,a5
    da84:	0014d713          	srl	a4,s1,0x1
    da88:	00c76733          	or	a4,a4,a2
    da8c:	01f79613          	sll	a2,a5,0x1f
    da90:	00e664b3          	or	s1,a2,a4
    da94:	0017d993          	srl	s3,a5,0x1
    da98:	e45ff06f          	j	d8dc <__adddf3+0x138>
    da9c:	01e8e6b3          	or	a3,a7,t5
    daa0:	1c068a63          	beqz	a3,dc74 <__adddf3+0x4d0>
    daa4:	fff78693          	add	a3,a5,-1
    daa8:	40068063          	beqz	a3,dea8 <__adddf3+0x704>
    daac:	7ff00613          	li	a2,2047
    dab0:	18c78a63          	beq	a5,a2,dc44 <__adddf3+0x4a0>
    dab4:	03800793          	li	a5,56
    dab8:	00100613          	li	a2,1
    dabc:	dad7c2e3          	blt	a5,a3,d860 <__adddf3+0xbc>
    dac0:	00068793          	mv	a5,a3
    dac4:	d6dff06f          	j	d830 <__adddf3+0x8c>
    dac8:	00190813          	add	a6,s2,1
    dacc:	7fe87813          	and	a6,a6,2046
    dad0:	22081c63          	bnez	a6,dd08 <__adddf3+0x564>
    dad4:	00b76333          	or	t1,a4,a1
    dad8:	01e8e833          	or	a6,a7,t5
    dadc:	38091063          	bnez	s2,de5c <__adddf3+0x6b8>
    dae0:	46030e63          	beqz	t1,df5c <__adddf3+0x7b8>
    dae4:	40080663          	beqz	a6,def0 <__adddf3+0x74c>
    dae8:	41e589b3          	sub	s3,a1,t5
    daec:	0135b533          	sltu	a0,a1,s3
    daf0:	41170633          	sub	a2,a4,a7
    daf4:	40a60633          	sub	a2,a2,a0
    daf8:	00861513          	sll	a0,a2,0x8
    dafc:	50055e63          	bgez	a0,e018 <__adddf3+0x874>
    db00:	40bf05b3          	sub	a1,t5,a1
    db04:	40e88733          	sub	a4,a7,a4
    db08:	00bf3f33          	sltu	t5,t5,a1
    db0c:	41e70733          	sub	a4,a4,t5
    db10:	00871613          	sll	a2,a4,0x8
    db14:	00058493          	mv	s1,a1
    db18:	52065e63          	bgez	a2,e054 <__adddf3+0x8b0>
    db1c:	ff8007b7          	lui	a5,0xff800
    db20:	fff78793          	add	a5,a5,-1 # ff7fffff <__alt_data_end+0xff7dffff>
    db24:	00f77733          	and	a4,a4,a5
    db28:	00068e13          	mv	t3,a3
    db2c:	00100793          	li	a5,1
    db30:	df9ff06f          	j	d928 <__adddf3+0x184>
    db34:	7ff00693          	li	a3,2047
    db38:	10d90663          	beq	s2,a3,dc44 <__adddf3+0x4a0>
    db3c:	03800693          	li	a3,56
    db40:	00100993          	li	s3,1
    db44:	f0f6c6e3          	blt	a3,a5,da50 <__adddf3+0x2ac>
    db48:	008006b7          	lui	a3,0x800
    db4c:	00d8e8b3          	or	a7,a7,a3
    db50:	ed1ff06f          	j	da20 <__adddf3+0x27c>
    db54:	00048513          	mv	a0,s1
    db58:	2ac050ef          	jal	12e04 <__clzsi2>
    db5c:	01850793          	add	a5,a0,24
    db60:	01f00693          	li	a3,31
    db64:	d2f6d8e3          	bge	a3,a5,d894 <__adddf3+0xf0>
    db68:	ff850713          	add	a4,a0,-8
    db6c:	00e49733          	sll	a4,s1,a4
    db70:	2327c663          	blt	a5,s2,dd9c <__adddf3+0x5f8>
    db74:	41278933          	sub	s2,a5,s2
    db78:	00190793          	add	a5,s2,1
    db7c:	48f6d663          	bge	a3,a5,e008 <__adddf3+0x864>
    db80:	fe190913          	add	s2,s2,-31
    db84:	02000693          	li	a3,32
    db88:	012754b3          	srl	s1,a4,s2
    db8c:	00d78c63          	beq	a5,a3,dba4 <__adddf3+0x400>
    db90:	04000693          	li	a3,64
    db94:	40f687b3          	sub	a5,a3,a5
    db98:	00f71733          	sll	a4,a4,a5
    db9c:	00e03733          	snez	a4,a4
    dba0:	00e4e4b3          	or	s1,s1,a4
    dba4:	00000913          	li	s2,0
    dba8:	0074f793          	and	a5,s1,7
    dbac:	d2079ce3          	bnez	a5,d8e4 <__adddf3+0x140>
    dbb0:	00090793          	mv	a5,s2
    dbb4:	0034d613          	srl	a2,s1,0x3
    dbb8:	00098713          	mv	a4,s3
    dbbc:	0c00006f          	j	dc7c <__adddf3+0x4d8>
    dbc0:	7ff00793          	li	a5,2047
    dbc4:	00000713          	li	a4,0
    dbc8:	00000813          	li	a6,0
    dbcc:	d71ff06f          	j	d93c <__adddf3+0x198>
    dbd0:	0c078a63          	beqz	a5,dca4 <__adddf3+0x500>
    dbd4:	412307b3          	sub	a5,t1,s2
    dbd8:	1e090263          	beqz	s2,ddbc <__adddf3+0x618>
    dbdc:	7ff00693          	li	a3,2047
    dbe0:	32d30863          	beq	t1,a3,df10 <__adddf3+0x76c>
    dbe4:	03800693          	li	a3,56
    dbe8:	00100993          	li	s3,1
    dbec:	02f6ce63          	blt	a3,a5,dc28 <__adddf3+0x484>
    dbf0:	008006b7          	lui	a3,0x800
    dbf4:	00d76733          	or	a4,a4,a3
    dbf8:	01f00693          	li	a3,31
    dbfc:	3cf6c863          	blt	a3,a5,dfcc <__adddf3+0x828>
    dc00:	02000693          	li	a3,32
    dc04:	40f686b3          	sub	a3,a3,a5
    dc08:	00d719b3          	sll	s3,a4,a3
    dc0c:	00f5d633          	srl	a2,a1,a5
    dc10:	00d596b3          	sll	a3,a1,a3
    dc14:	00c9e9b3          	or	s3,s3,a2
    dc18:	00d036b3          	snez	a3,a3
    dc1c:	00f75733          	srl	a4,a4,a5
    dc20:	00d9e9b3          	or	s3,s3,a3
    dc24:	00e888b3          	add	a7,a7,a4
    dc28:	01e98733          	add	a4,s3,t5
    dc2c:	013739b3          	sltu	s3,a4,s3
    dc30:	00070493          	mv	s1,a4
    dc34:	011989b3          	add	s3,s3,a7
    dc38:	00030913          	mv	s2,t1
    dc3c:	e25ff06f          	j	da60 <__adddf3+0x2bc>
    dc40:	02081063          	bnez	a6,dc60 <__adddf3+0x4bc>
    dc44:	00351613          	sll	a2,a0,0x3
    dc48:	00365613          	srl	a2,a2,0x3
    dc4c:	01d71813          	sll	a6,a4,0x1d
    dc50:	00c86833          	or	a6,a6,a2
    dc54:	00375713          	srl	a4,a4,0x3
    dc58:	01076733          	or	a4,a4,a6
    dc5c:	18070663          	beqz	a4,dde8 <__adddf3+0x644>
    dc60:	00000e13          	li	t3,0
    dc64:	7ff00793          	li	a5,2047
    dc68:	00080737          	lui	a4,0x80
    dc6c:	00000813          	li	a6,0
    dc70:	ccdff06f          	j	d93c <__adddf3+0x198>
    dc74:	00351613          	sll	a2,a0,0x3
    dc78:	00365613          	srl	a2,a2,0x3
    dc7c:	01d71813          	sll	a6,a4,0x1d
    dc80:	7ff00693          	li	a3,2047
    dc84:	00c86833          	or	a6,a6,a2
    dc88:	00375713          	srl	a4,a4,0x3
    dc8c:	fcd786e3          	beq	a5,a3,dc58 <__adddf3+0x4b4>
    dc90:	00c71713          	sll	a4,a4,0xc
    dc94:	00c75713          	srl	a4,a4,0xc
    dc98:	7ff7f793          	and	a5,a5,2047
    dc9c:	00040e13          	mv	t3,s0
    dca0:	c9dff06f          	j	d93c <__adddf3+0x198>
    dca4:	00190693          	add	a3,s2,1
    dca8:	7fe6f813          	and	a6,a3,2046
    dcac:	14081863          	bnez	a6,ddfc <__adddf3+0x658>
    dcb0:	00b766b3          	or	a3,a4,a1
    dcb4:	28091c63          	bnez	s2,df4c <__adddf3+0x7a8>
    dcb8:	30068263          	beqz	a3,dfbc <__adddf3+0x818>
    dcbc:	01e8e6b3          	or	a3,a7,t5
    dcc0:	22068863          	beqz	a3,def0 <__adddf3+0x74c>
    dcc4:	01e587b3          	add	a5,a1,t5
    dcc8:	00b7b5b3          	sltu	a1,a5,a1
    dccc:	01170733          	add	a4,a4,a7
    dcd0:	00b70733          	add	a4,a4,a1
    dcd4:	0037d813          	srl	a6,a5,0x3
    dcd8:	00871793          	sll	a5,a4,0x8
    dcdc:	00040e13          	mv	t3,s0
    dce0:	3407de63          	bgez	a5,e03c <__adddf3+0x898>
    dce4:	ff8007b7          	lui	a5,0xff800
    dce8:	fff78793          	add	a5,a5,-1 # ff7fffff <__alt_data_end+0xff7dffff>
    dcec:	00f77733          	and	a4,a4,a5
    dcf0:	01d71793          	sll	a5,a4,0x1d
    dcf4:	00375713          	srl	a4,a4,0x3
    dcf8:	0107e833          	or	a6,a5,a6
    dcfc:	01d77733          	and	a4,a4,t4
    dd00:	00100793          	li	a5,1
    dd04:	c39ff06f          	j	d93c <__adddf3+0x198>
    dd08:	41e58833          	sub	a6,a1,t5
    dd0c:	0105b7b3          	sltu	a5,a1,a6
    dd10:	411709b3          	sub	s3,a4,a7
    dd14:	40f989b3          	sub	s3,s3,a5
    dd18:	00899793          	sll	a5,s3,0x8
    dd1c:	00080493          	mv	s1,a6
    dd20:	1007c663          	bltz	a5,de2c <__adddf3+0x688>
    dd24:	01386833          	or	a6,a6,s3
    dd28:	b4081ee3          	bnez	a6,d884 <__adddf3+0xe0>
    dd2c:	00000e13          	li	t3,0
    dd30:	00000793          	li	a5,0
    dd34:	00000713          	li	a4,0
    dd38:	c05ff06f          	j	d93c <__adddf3+0x198>
    dd3c:	7ff00513          	li	a0,2047
    dd40:	1aa30e63          	beq	t1,a0,defc <__adddf3+0x758>
    dd44:	03800513          	li	a0,56
    dd48:	00100613          	li	a2,1
    dd4c:	c8f544e3          	blt	a0,a5,d9d4 <__adddf3+0x230>
    dd50:	00800637          	lui	a2,0x800
    dd54:	00c76733          	or	a4,a4,a2
    dd58:	c4dff06f          	j	d9a4 <__adddf3+0x200>
    dd5c:	ff8009b7          	lui	s3,0xff800
    dd60:	fff98993          	add	s3,s3,-1 # ff7fffff <__alt_data_end+0xff7dffff>
    dd64:	40f90933          	sub	s2,s2,a5
    dd68:	013779b3          	and	s3,a4,s3
    dd6c:	b71ff06f          	j	d8dc <__adddf3+0x138>
    dd70:	fe078693          	add	a3,a5,-32
    dd74:	02000613          	li	a2,32
    dd78:	00d8d6b3          	srl	a3,a7,a3
    dd7c:	00c78a63          	beq	a5,a2,dd90 <__adddf3+0x5ec>
    dd80:	04000613          	li	a2,64
    dd84:	40f607b3          	sub	a5,a2,a5
    dd88:	00f897b3          	sll	a5,a7,a5
    dd8c:	00ff6f33          	or	t5,t5,a5
    dd90:	01e03633          	snez	a2,t5
    dd94:	00d66633          	or	a2,a2,a3
    dd98:	ac9ff06f          	j	d860 <__adddf3+0xbc>
    dd9c:	ff8006b7          	lui	a3,0xff800
    dda0:	fff68693          	add	a3,a3,-1 # ff7fffff <__alt_data_end+0xff7dffff>
    dda4:	40f907b3          	sub	a5,s2,a5
    dda8:	00d77733          	and	a4,a4,a3
    ddac:	01d71813          	sll	a6,a4,0x1d
    ddb0:	01386833          	or	a6,a6,s3
    ddb4:	00375713          	srl	a4,a4,0x3
    ddb8:	ed9ff06f          	j	dc90 <__adddf3+0x4ec>
    ddbc:	00b766b3          	or	a3,a4,a1
    ddc0:	1e068663          	beqz	a3,dfac <__adddf3+0x808>
    ddc4:	fff78693          	add	a3,a5,-1
    ddc8:	0a068e63          	beqz	a3,de84 <__adddf3+0x6e0>
    ddcc:	7ff00513          	li	a0,2047
    ddd0:	14a78063          	beq	a5,a0,df10 <__adddf3+0x76c>
    ddd4:	03800793          	li	a5,56
    ddd8:	00100993          	li	s3,1
    dddc:	e4d7c6e3          	blt	a5,a3,dc28 <__adddf3+0x484>
    dde0:	00068793          	mv	a5,a3
    dde4:	e15ff06f          	j	dbf8 <__adddf3+0x454>
    dde8:	00040e13          	mv	t3,s0
    ddec:	7ff00793          	li	a5,2047
    ddf0:	00000713          	li	a4,0
    ddf4:	00000813          	li	a6,0
    ddf8:	b45ff06f          	j	d93c <__adddf3+0x198>
    ddfc:	7ff00793          	li	a5,2047
    de00:	fef684e3          	beq	a3,a5,dde8 <__adddf3+0x644>
    de04:	01e58f33          	add	t5,a1,t5
    de08:	00bf35b3          	sltu	a1,t5,a1
    de0c:	011707b3          	add	a5,a4,a7
    de10:	00b787b3          	add	a5,a5,a1
    de14:	01f79613          	sll	a2,a5,0x1f
    de18:	001f5f13          	srl	t5,t5,0x1
    de1c:	01e664b3          	or	s1,a2,t5
    de20:	0017d993          	srl	s3,a5,0x1
    de24:	00068913          	mv	s2,a3
    de28:	ab5ff06f          	j	d8dc <__adddf3+0x138>
    de2c:	40bf0633          	sub	a2,t5,a1
    de30:	40e887b3          	sub	a5,a7,a4
    de34:	00cf3733          	sltu	a4,t5,a2
    de38:	00060493          	mv	s1,a2
    de3c:	40e789b3          	sub	s3,a5,a4
    de40:	00068413          	mv	s0,a3
    de44:	a41ff06f          	j	d884 <__adddf3+0xe0>
    de48:	00361613          	sll	a2,a2,0x3
    de4c:	00365613          	srl	a2,a2,0x3
    de50:	00068413          	mv	s0,a3
    de54:	00088713          	mv	a4,a7
    de58:	e25ff06f          	j	dc7c <__adddf3+0x4d8>
    de5c:	de0312e3          	bnez	t1,dc40 <__adddf3+0x49c>
    de60:	1c080663          	beqz	a6,e02c <__adddf3+0x888>
    de64:	0038d713          	srl	a4,a7,0x3
    de68:	00361613          	sll	a2,a2,0x3
    de6c:	01d89893          	sll	a7,a7,0x1d
    de70:	01176733          	or	a4,a4,a7
    de74:	00365613          	srl	a2,a2,0x3
    de78:	00c76733          	or	a4,a4,a2
    de7c:	00068413          	mv	s0,a3
    de80:	dddff06f          	j	dc5c <__adddf3+0x4b8>
    de84:	01e58f33          	add	t5,a1,t5
    de88:	011708b3          	add	a7,a4,a7
    de8c:	00bf35b3          	sltu	a1,t5,a1
    de90:	00b889b3          	add	s3,a7,a1
    de94:	00899793          	sll	a5,s3,0x8
    de98:	000f0493          	mv	s1,t5
    de9c:	0e07d463          	bgez	a5,df84 <__adddf3+0x7e0>
    dea0:	00200913          	li	s2,2
    dea4:	bd1ff06f          	j	da74 <__adddf3+0x2d0>
    dea8:	41e58f33          	sub	t5,a1,t5
    deac:	411708b3          	sub	a7,a4,a7
    deb0:	01e5b5b3          	sltu	a1,a1,t5
    deb4:	000f0493          	mv	s1,t5
    deb8:	40b889b3          	sub	s3,a7,a1
    debc:	00100913          	li	s2,1
    dec0:	9b1ff06f          	j	d870 <__adddf3+0xcc>
    dec4:	fe078693          	add	a3,a5,-32
    dec8:	02000613          	li	a2,32
    decc:	00d8d6b3          	srl	a3,a7,a3
    ded0:	00c78a63          	beq	a5,a2,dee4 <__adddf3+0x740>
    ded4:	04000613          	li	a2,64
    ded8:	40f607b3          	sub	a5,a2,a5
    dedc:	00f897b3          	sll	a5,a7,a5
    dee0:	00ff6f33          	or	t5,t5,a5
    dee4:	01e039b3          	snez	s3,t5
    dee8:	00d9e9b3          	or	s3,s3,a3
    deec:	b65ff06f          	j	da50 <__adddf3+0x2ac>
    def0:	00351613          	sll	a2,a0,0x3
    def4:	00365993          	srl	s3,a2,0x3
    def8:	eb5ff06f          	j	ddac <__adddf3+0x608>
    defc:	00361613          	sll	a2,a2,0x3
    df00:	00365613          	srl	a2,a2,0x3
    df04:	00068413          	mv	s0,a3
    df08:	00088713          	mv	a4,a7
    df0c:	d41ff06f          	j	dc4c <__adddf3+0x4a8>
    df10:	00361613          	sll	a2,a2,0x3
    df14:	00365613          	srl	a2,a2,0x3
    df18:	00088713          	mv	a4,a7
    df1c:	d31ff06f          	j	dc4c <__adddf3+0x4a8>
    df20:	fe078513          	add	a0,a5,-32
    df24:	02000613          	li	a2,32
    df28:	00a75533          	srl	a0,a4,a0
    df2c:	00c78a63          	beq	a5,a2,df40 <__adddf3+0x79c>
    df30:	04000613          	li	a2,64
    df34:	40f607b3          	sub	a5,a2,a5
    df38:	00f717b3          	sll	a5,a4,a5
    df3c:	00f5e5b3          	or	a1,a1,a5
    df40:	00b03633          	snez	a2,a1
    df44:	00a66633          	or	a2,a2,a0
    df48:	a8dff06f          	j	d9d4 <__adddf3+0x230>
    df4c:	fc0682e3          	beqz	a3,df10 <__adddf3+0x76c>
    df50:	01e8ef33          	or	t5,a7,t5
    df54:	d00f16e3          	bnez	t5,dc60 <__adddf3+0x4bc>
    df58:	cedff06f          	j	dc44 <__adddf3+0x4a0>
    df5c:	dc0808e3          	beqz	a6,dd2c <__adddf3+0x588>
    df60:	00361813          	sll	a6,a2,0x3
    df64:	01d89793          	sll	a5,a7,0x1d
    df68:	00385813          	srl	a6,a6,0x3
    df6c:	0038d713          	srl	a4,a7,0x3
    df70:	00f86833          	or	a6,a6,a5
    df74:	01d77733          	and	a4,a4,t4
    df78:	00068e13          	mv	t3,a3
    df7c:	00000793          	li	a5,0
    df80:	9bdff06f          	j	d93c <__adddf3+0x198>
    df84:	00100793          	li	a5,1
    df88:	c2dff06f          	j	dbb4 <__adddf3+0x410>
    df8c:	40bf05b3          	sub	a1,t5,a1
    df90:	40e888b3          	sub	a7,a7,a4
    df94:	00bf3733          	sltu	a4,t5,a1
    df98:	00058493          	mv	s1,a1
    df9c:	40e889b3          	sub	s3,a7,a4
    dfa0:	00068413          	mv	s0,a3
    dfa4:	00100913          	li	s2,1
    dfa8:	8c9ff06f          	j	d870 <__adddf3+0xcc>
    dfac:	00361613          	sll	a2,a2,0x3
    dfb0:	00365613          	srl	a2,a2,0x3
    dfb4:	00088713          	mv	a4,a7
    dfb8:	cc5ff06f          	j	dc7c <__adddf3+0x4d8>
    dfbc:	00361613          	sll	a2,a2,0x3
    dfc0:	00365993          	srl	s3,a2,0x3
    dfc4:	00088713          	mv	a4,a7
    dfc8:	de5ff06f          	j	ddac <__adddf3+0x608>
    dfcc:	fe078693          	add	a3,a5,-32
    dfd0:	02000613          	li	a2,32
    dfd4:	00d756b3          	srl	a3,a4,a3
    dfd8:	00c78a63          	beq	a5,a2,dfec <__adddf3+0x848>
    dfdc:	04000613          	li	a2,64
    dfe0:	40f607b3          	sub	a5,a2,a5
    dfe4:	00f717b3          	sll	a5,a4,a5
    dfe8:	00f5e5b3          	or	a1,a1,a5
    dfec:	00b039b3          	snez	s3,a1
    dff0:	00d9e9b3          	or	s3,s3,a3
    dff4:	c35ff06f          	j	dc28 <__adddf3+0x484>
    dff8:	0034d613          	srl	a2,s1,0x3
    dffc:	00090793          	mv	a5,s2
    e000:	00098713          	mv	a4,s3
    e004:	c79ff06f          	j	dc7c <__adddf3+0x4d8>
    e008:	02000693          	li	a3,32
    e00c:	40f686b3          	sub	a3,a3,a5
    e010:	00000613          	li	a2,0
    e014:	8b5ff06f          	j	d8c8 <__adddf3+0x124>
    e018:	00c9e833          	or	a6,s3,a2
    e01c:	d00808e3          	beqz	a6,dd2c <__adddf3+0x588>
    e020:	0039d993          	srl	s3,s3,0x3
    e024:	00060713          	mv	a4,a2
    e028:	d85ff06f          	j	ddac <__adddf3+0x608>
    e02c:	00000e13          	li	t3,0
    e030:	7ff00793          	li	a5,2047
    e034:	00080737          	lui	a4,0x80
    e038:	905ff06f          	j	d93c <__adddf3+0x198>
    e03c:	01d71793          	sll	a5,a4,0x1d
    e040:	00375713          	srl	a4,a4,0x3
    e044:	0107e833          	or	a6,a5,a6
    e048:	01d77733          	and	a4,a4,t4
    e04c:	00000793          	li	a5,0
    e050:	8edff06f          	j	d93c <__adddf3+0x198>
    e054:	01d71813          	sll	a6,a4,0x1d
    e058:	0035d593          	srl	a1,a1,0x3
    e05c:	00b86833          	or	a6,a6,a1
    e060:	00375713          	srl	a4,a4,0x3
    e064:	00068413          	mv	s0,a3
    e068:	c29ff06f          	j	dc90 <__adddf3+0x4ec>

0000e06c <__divdf3>:
    e06c:	fd010113          	add	sp,sp,-48
    e070:	01312e23          	sw	s3,28(sp)
    e074:	0145d993          	srl	s3,a1,0x14
    e078:	02812423          	sw	s0,40(sp)
    e07c:	02912223          	sw	s1,36(sp)
    e080:	03212023          	sw	s2,32(sp)
    e084:	01412c23          	sw	s4,24(sp)
    e088:	01712623          	sw	s7,12(sp)
    e08c:	00c59493          	sll	s1,a1,0xc
    e090:	02112623          	sw	ra,44(sp)
    e094:	01512a23          	sw	s5,20(sp)
    e098:	01612823          	sw	s6,16(sp)
    e09c:	01812423          	sw	s8,8(sp)
    e0a0:	7ff9f993          	and	s3,s3,2047
    e0a4:	00050413          	mv	s0,a0
    e0a8:	00060b93          	mv	s7,a2
    e0ac:	00068913          	mv	s2,a3
    e0b0:	00c4d493          	srl	s1,s1,0xc
    e0b4:	01f5da13          	srl	s4,a1,0x1f
    e0b8:	18098a63          	beqz	s3,e24c <__divdf3+0x1e0>
    e0bc:	7ff00793          	li	a5,2047
    e0c0:	08f98863          	beq	s3,a5,e150 <__divdf3+0xe4>
    e0c4:	00349493          	sll	s1,s1,0x3
    e0c8:	01d55793          	srl	a5,a0,0x1d
    e0cc:	0097e7b3          	or	a5,a5,s1
    e0d0:	00800737          	lui	a4,0x800
    e0d4:	00e7eab3          	or	s5,a5,a4
    e0d8:	00351b13          	sll	s6,a0,0x3
    e0dc:	c0198993          	add	s3,s3,-1023
    e0e0:	00000493          	li	s1,0
    e0e4:	00000c13          	li	s8,0
    e0e8:	01495793          	srl	a5,s2,0x14
    e0ec:	00c91413          	sll	s0,s2,0xc
    e0f0:	7ff7f793          	and	a5,a5,2047
    e0f4:	00c45413          	srl	s0,s0,0xc
    e0f8:	01f95913          	srl	s2,s2,0x1f
    e0fc:	08078263          	beqz	a5,e180 <__divdf3+0x114>
    e100:	7ff00713          	li	a4,2047
    e104:	18e78a63          	beq	a5,a4,e298 <__divdf3+0x22c>
    e108:	00341413          	sll	s0,s0,0x3
    e10c:	01dbd713          	srl	a4,s7,0x1d
    e110:	00876733          	or	a4,a4,s0
    e114:	c0178793          	add	a5,a5,-1023
    e118:	00800437          	lui	s0,0x800
    e11c:	00876433          	or	s0,a4,s0
    e120:	003b9893          	sll	a7,s7,0x3
    e124:	40f989b3          	sub	s3,s3,a5
    e128:	00000613          	li	a2,0
    e12c:	00f00713          	li	a4,15
    e130:	012a46b3          	xor	a3,s4,s2
    e134:	24976463          	bltu	a4,s1,e37c <__divdf3+0x310>
    e138:	000147b7          	lui	a5,0x14
    e13c:	00249493          	sll	s1,s1,0x2
    e140:	69078793          	add	a5,a5,1680 # 14690 <zeroes.0+0x10>
    e144:	00f484b3          	add	s1,s1,a5
    e148:	0004a703          	lw	a4,0(s1)
    e14c:	00070067          	jr	a4 # 800000 <__alt_data_end+0x7e0000>
    e150:	00a4eab3          	or	s5,s1,a0
    e154:	1c0a9e63          	bnez	s5,e330 <__divdf3+0x2c4>
    e158:	01495793          	srl	a5,s2,0x14
    e15c:	00c91413          	sll	s0,s2,0xc
    e160:	7ff7f793          	and	a5,a5,2047
    e164:	00000b13          	li	s6,0
    e168:	00800493          	li	s1,8
    e16c:	7ff00993          	li	s3,2047
    e170:	00200c13          	li	s8,2
    e174:	00c45413          	srl	s0,s0,0xc
    e178:	01f95913          	srl	s2,s2,0x1f
    e17c:	f80792e3          	bnez	a5,e100 <__divdf3+0x94>
    e180:	017468b3          	or	a7,s0,s7
    e184:	1c088263          	beqz	a7,e348 <__divdf3+0x2dc>
    e188:	4a040a63          	beqz	s0,e63c <__divdf3+0x5d0>
    e18c:	00040513          	mv	a0,s0
    e190:	475040ef          	jal	12e04 <__clzsi2>
    e194:	00050793          	mv	a5,a0
    e198:	ff550693          	add	a3,a0,-11
    e19c:	01d00713          	li	a4,29
    e1a0:	ff878893          	add	a7,a5,-8
    e1a4:	40d70733          	sub	a4,a4,a3
    e1a8:	01141433          	sll	s0,s0,a7
    e1ac:	00ebd733          	srl	a4,s7,a4
    e1b0:	00876433          	or	s0,a4,s0
    e1b4:	011b98b3          	sll	a7,s7,a7
    e1b8:	013787b3          	add	a5,a5,s3
    e1bc:	3f378993          	add	s3,a5,1011
    e1c0:	00000613          	li	a2,0
    e1c4:	f69ff06f          	j	e12c <__divdf3+0xc0>
    e1c8:	40f70733          	sub	a4,a4,a5
    e1cc:	03800613          	li	a2,56
    e1d0:	4ee65a63          	bge	a2,a4,e6c4 <__divdf3+0x658>
    e1d4:	00000793          	li	a5,0
    e1d8:	00000613          	li	a2,0
    e1dc:	00000713          	li	a4,0
    e1e0:	02c12083          	lw	ra,44(sp)
    e1e4:	02812403          	lw	s0,40(sp)
    e1e8:	01479793          	sll	a5,a5,0x14
    e1ec:	00c7e7b3          	or	a5,a5,a2
    e1f0:	01f69693          	sll	a3,a3,0x1f
    e1f4:	00d7e7b3          	or	a5,a5,a3
    e1f8:	02412483          	lw	s1,36(sp)
    e1fc:	02012903          	lw	s2,32(sp)
    e200:	01c12983          	lw	s3,28(sp)
    e204:	01812a03          	lw	s4,24(sp)
    e208:	01412a83          	lw	s5,20(sp)
    e20c:	01012b03          	lw	s6,16(sp)
    e210:	00c12b83          	lw	s7,12(sp)
    e214:	00812c03          	lw	s8,8(sp)
    e218:	00070513          	mv	a0,a4
    e21c:	00078593          	mv	a1,a5
    e220:	03010113          	add	sp,sp,48
    e224:	00008067          	ret
    e228:	7ff00793          	li	a5,2047
    e22c:	00000613          	li	a2,0
    e230:	00000713          	li	a4,0
    e234:	fadff06f          	j	e1e0 <__divdf3+0x174>
    e238:	00000693          	li	a3,0
    e23c:	7ff00793          	li	a5,2047
    e240:	00080637          	lui	a2,0x80
    e244:	00000713          	li	a4,0
    e248:	f99ff06f          	j	e1e0 <__divdf3+0x174>
    e24c:	00a4eab3          	or	s5,s1,a0
    e250:	100a8c63          	beqz	s5,e368 <__divdf3+0x2fc>
    e254:	40048863          	beqz	s1,e664 <__divdf3+0x5f8>
    e258:	00048513          	mv	a0,s1
    e25c:	3a9040ef          	jal	12e04 <__clzsi2>
    e260:	00050713          	mv	a4,a0
    e264:	ff550693          	add	a3,a0,-11
    e268:	01d00793          	li	a5,29
    e26c:	ff870b13          	add	s6,a4,-8
    e270:	40d787b3          	sub	a5,a5,a3
    e274:	016494b3          	sll	s1,s1,s6
    e278:	00f457b3          	srl	a5,s0,a5
    e27c:	0097eab3          	or	s5,a5,s1
    e280:	01641b33          	sll	s6,s0,s6
    e284:	c0d00993          	li	s3,-1011
    e288:	40e989b3          	sub	s3,s3,a4
    e28c:	00000493          	li	s1,0
    e290:	00000c13          	li	s8,0
    e294:	e55ff06f          	j	e0e8 <__divdf3+0x7c>
    e298:	017468b3          	or	a7,s0,s7
    e29c:	80198993          	add	s3,s3,-2047
    e2a0:	0a089c63          	bnez	a7,e358 <__divdf3+0x2ec>
    e2a4:	0024e493          	or	s1,s1,2
    e2a8:	00000413          	li	s0,0
    e2ac:	00200613          	li	a2,2
    e2b0:	e7dff06f          	j	e12c <__divdf3+0xc0>
    e2b4:	000a0913          	mv	s2,s4
    e2b8:	000a8413          	mv	s0,s5
    e2bc:	000b0893          	mv	a7,s6
    e2c0:	00200793          	li	a5,2
    e2c4:	4efc0863          	beq	s8,a5,e7b4 <__divdf3+0x748>
    e2c8:	00300793          	li	a5,3
    e2cc:	f6fc06e3          	beq	s8,a5,e238 <__divdf3+0x1cc>
    e2d0:	00100793          	li	a5,1
    e2d4:	00090693          	mv	a3,s2
    e2d8:	eefc0ee3          	beq	s8,a5,e1d4 <__divdf3+0x168>
    e2dc:	3ff98793          	add	a5,s3,1023
    e2e0:	2af05663          	blez	a5,e58c <__divdf3+0x520>
    e2e4:	0078f713          	and	a4,a7,7
    e2e8:	4a071663          	bnez	a4,e794 <__divdf3+0x728>
    e2ec:	00741713          	sll	a4,s0,0x7
    e2f0:	00075a63          	bgez	a4,e304 <__divdf3+0x298>
    e2f4:	ff0007b7          	lui	a5,0xff000
    e2f8:	fff78793          	add	a5,a5,-1 # feffffff <__alt_data_end+0xfefdffff>
    e2fc:	00f47433          	and	s0,s0,a5
    e300:	40098793          	add	a5,s3,1024
    e304:	7fe00713          	li	a4,2046
    e308:	f2f740e3          	blt	a4,a5,e228 <__divdf3+0x1bc>
    e30c:	0038d893          	srl	a7,a7,0x3
    e310:	01d41713          	sll	a4,s0,0x1d
    e314:	00941613          	sll	a2,s0,0x9
    e318:	01176733          	or	a4,a4,a7
    e31c:	00c65613          	srl	a2,a2,0xc
    e320:	7ff7f793          	and	a5,a5,2047
    e324:	ebdff06f          	j	e1e0 <__divdf3+0x174>
    e328:	00060c13          	mv	s8,a2
    e32c:	f95ff06f          	j	e2c0 <__divdf3+0x254>
    e330:	00048a93          	mv	s5,s1
    e334:	00050b13          	mv	s6,a0
    e338:	00c00493          	li	s1,12
    e33c:	7ff00993          	li	s3,2047
    e340:	00300c13          	li	s8,3
    e344:	da5ff06f          	j	e0e8 <__divdf3+0x7c>
    e348:	0014e493          	or	s1,s1,1
    e34c:	00000413          	li	s0,0
    e350:	00100613          	li	a2,1
    e354:	dd9ff06f          	j	e12c <__divdf3+0xc0>
    e358:	0034e493          	or	s1,s1,3
    e35c:	000b8893          	mv	a7,s7
    e360:	00300613          	li	a2,3
    e364:	dc9ff06f          	j	e12c <__divdf3+0xc0>
    e368:	00000b13          	li	s6,0
    e36c:	00400493          	li	s1,4
    e370:	00000993          	li	s3,0
    e374:	00100c13          	li	s8,1
    e378:	d71ff06f          	j	e0e8 <__divdf3+0x7c>
    e37c:	2b546463          	bltu	s0,s5,e624 <__divdf3+0x5b8>
    e380:	2a8a8063          	beq	s5,s0,e620 <__divdf3+0x5b4>
    e384:	000b0313          	mv	t1,s6
    e388:	fff98993          	add	s3,s3,-1
    e38c:	000a8793          	mv	a5,s5
    e390:	00000b13          	li	s6,0
    e394:	00841713          	sll	a4,s0,0x8
    e398:	01075513          	srl	a0,a4,0x10
    e39c:	02a7d433          	divu	s0,a5,a0
    e3a0:	0188d613          	srl	a2,a7,0x18
    e3a4:	00e66633          	or	a2,a2,a4
    e3a8:	01061813          	sll	a6,a2,0x10
    e3ac:	01085813          	srl	a6,a6,0x10
    e3b0:	00889593          	sll	a1,a7,0x8
    e3b4:	01035713          	srl	a4,t1,0x10
    e3b8:	02a7f7b3          	remu	a5,a5,a0
    e3bc:	028808b3          	mul	a7,a6,s0
    e3c0:	01079793          	sll	a5,a5,0x10
    e3c4:	00f767b3          	or	a5,a4,a5
    e3c8:	0117fa63          	bgeu	a5,a7,e3dc <__divdf3+0x370>
    e3cc:	00f607b3          	add	a5,a2,a5
    e3d0:	fff40713          	add	a4,s0,-1 # 7fffff <__alt_data_end+0x7dffff>
    e3d4:	2ec7f063          	bgeu	a5,a2,e6b4 <__divdf3+0x648>
    e3d8:	00070413          	mv	s0,a4
    e3dc:	411787b3          	sub	a5,a5,a7
    e3e0:	02a7d8b3          	divu	a7,a5,a0
    e3e4:	01031713          	sll	a4,t1,0x10
    e3e8:	01075713          	srl	a4,a4,0x10
    e3ec:	02a7f7b3          	remu	a5,a5,a0
    e3f0:	03180fb3          	mul	t6,a6,a7
    e3f4:	01079793          	sll	a5,a5,0x10
    e3f8:	00f76733          	or	a4,a4,a5
    e3fc:	01f77a63          	bgeu	a4,t6,e410 <__divdf3+0x3a4>
    e400:	00e60733          	add	a4,a2,a4
    e404:	fff88793          	add	a5,a7,-1
    e408:	28c77e63          	bgeu	a4,a2,e6a4 <__divdf3+0x638>
    e40c:	00078893          	mv	a7,a5
    e410:	01041413          	sll	s0,s0,0x10
    e414:	000102b7          	lui	t0,0x10
    e418:	01146433          	or	s0,s0,a7
    e41c:	fff28313          	add	t1,t0,-1 # ffff <__multf3+0xc7>
    e420:	006478b3          	and	a7,s0,t1
    e424:	01045e93          	srl	t4,s0,0x10
    e428:	0105de13          	srl	t3,a1,0x10
    e42c:	0065f333          	and	t1,a1,t1
    e430:	03130f33          	mul	t5,t1,a7
    e434:	41f70733          	sub	a4,a4,t6
    e438:	031e08b3          	mul	a7,t3,a7
    e43c:	010f5793          	srl	a5,t5,0x10
    e440:	026e8fb3          	mul	t6,t4,t1
    e444:	01f888b3          	add	a7,a7,t6
    e448:	011787b3          	add	a5,a5,a7
    e44c:	03ce8eb3          	mul	t4,t4,t3
    e450:	01f7f463          	bgeu	a5,t6,e458 <__divdf3+0x3ec>
    e454:	005e8eb3          	add	t4,t4,t0
    e458:	00010fb7          	lui	t6,0x10
    e45c:	ffff8f93          	add	t6,t6,-1 # ffff <__multf3+0xc7>
    e460:	0107d893          	srl	a7,a5,0x10
    e464:	01f7f7b3          	and	a5,a5,t6
    e468:	01079793          	sll	a5,a5,0x10
    e46c:	01ff7f33          	and	t5,t5,t6
    e470:	01d888b3          	add	a7,a7,t4
    e474:	01e787b3          	add	a5,a5,t5
    e478:	17176e63          	bltu	a4,a7,e5f4 <__divdf3+0x588>
    e47c:	17170a63          	beq	a4,a7,e5f0 <__divdf3+0x584>
    e480:	40fb07b3          	sub	a5,s6,a5
    e484:	41170733          	sub	a4,a4,a7
    e488:	00fb3b33          	sltu	s6,s6,a5
    e48c:	41670733          	sub	a4,a4,s6
    e490:	2ee60063          	beq	a2,a4,e770 <__divdf3+0x704>
    e494:	02a758b3          	divu	a7,a4,a0
    e498:	0107de93          	srl	t4,a5,0x10
    e49c:	02a77733          	remu	a4,a4,a0
    e4a0:	03180f33          	mul	t5,a6,a7
    e4a4:	01071713          	sll	a4,a4,0x10
    e4a8:	00eee733          	or	a4,t4,a4
    e4ac:	01e77e63          	bgeu	a4,t5,e4c8 <__divdf3+0x45c>
    e4b0:	00e60733          	add	a4,a2,a4
    e4b4:	fff88e93          	add	t4,a7,-1
    e4b8:	2ec76a63          	bltu	a4,a2,e7ac <__divdf3+0x740>
    e4bc:	2fe77863          	bgeu	a4,t5,e7ac <__divdf3+0x740>
    e4c0:	ffe88893          	add	a7,a7,-2
    e4c4:	00c70733          	add	a4,a4,a2
    e4c8:	41e70733          	sub	a4,a4,t5
    e4cc:	02a75eb3          	divu	t4,a4,a0
    e4d0:	01079793          	sll	a5,a5,0x10
    e4d4:	0107d793          	srl	a5,a5,0x10
    e4d8:	02a77733          	remu	a4,a4,a0
    e4dc:	03d80833          	mul	a6,a6,t4
    e4e0:	01071713          	sll	a4,a4,0x10
    e4e4:	00e7e7b3          	or	a5,a5,a4
    e4e8:	0107fe63          	bgeu	a5,a6,e504 <__divdf3+0x498>
    e4ec:	00f607b3          	add	a5,a2,a5
    e4f0:	fffe8713          	add	a4,t4,-1
    e4f4:	2ac7e863          	bltu	a5,a2,e7a4 <__divdf3+0x738>
    e4f8:	2b07f663          	bgeu	a5,a6,e7a4 <__divdf3+0x738>
    e4fc:	ffee8e93          	add	t4,t4,-2
    e500:	00c787b3          	add	a5,a5,a2
    e504:	01089893          	sll	a7,a7,0x10
    e508:	01d8e8b3          	or	a7,a7,t4
    e50c:	01089513          	sll	a0,a7,0x10
    e510:	0108df13          	srl	t5,a7,0x10
    e514:	01055513          	srl	a0,a0,0x10
    e518:	02650eb3          	mul	t4,a0,t1
    e51c:	410787b3          	sub	a5,a5,a6
    e520:	02ae0533          	mul	a0,t3,a0
    e524:	010ed713          	srl	a4,t4,0x10
    e528:	026f0333          	mul	t1,t5,t1
    e52c:	00650533          	add	a0,a0,t1
    e530:	00a70733          	add	a4,a4,a0
    e534:	03ee0e33          	mul	t3,t3,t5
    e538:	00677663          	bgeu	a4,t1,e544 <__divdf3+0x4d8>
    e53c:	00010537          	lui	a0,0x10
    e540:	00ae0e33          	add	t3,t3,a0
    e544:	00010837          	lui	a6,0x10
    e548:	fff80813          	add	a6,a6,-1 # ffff <__multf3+0xc7>
    e54c:	01075513          	srl	a0,a4,0x10
    e550:	01077733          	and	a4,a4,a6
    e554:	01071713          	sll	a4,a4,0x10
    e558:	010efeb3          	and	t4,t4,a6
    e55c:	01c50533          	add	a0,a0,t3
    e560:	01d70733          	add	a4,a4,t4
    e564:	12a7f263          	bgeu	a5,a0,e688 <__divdf3+0x61c>
    e568:	00f607b3          	add	a5,a2,a5
    e56c:	fff88313          	add	t1,a7,-1
    e570:	00078813          	mv	a6,a5
    e574:	1cc7e463          	bltu	a5,a2,e73c <__divdf3+0x6d0>
    e578:	24a7e863          	bltu	a5,a0,e7c8 <__divdf3+0x75c>
    e57c:	26a78663          	beq	a5,a0,e7e8 <__divdf3+0x77c>
    e580:	00030893          	mv	a7,t1
    e584:	0018e893          	or	a7,a7,1
    e588:	d55ff06f          	j	e2dc <__divdf3+0x270>
    e58c:	00100713          	li	a4,1
    e590:	c2079ce3          	bnez	a5,e1c8 <__divdf3+0x15c>
    e594:	41e98993          	add	s3,s3,1054
    e598:	013897b3          	sll	a5,a7,s3
    e59c:	00f037b3          	snez	a5,a5
    e5a0:	013419b3          	sll	s3,s0,s3
    e5a4:	0137e7b3          	or	a5,a5,s3
    e5a8:	00e8d8b3          	srl	a7,a7,a4
    e5ac:	00f8e8b3          	or	a7,a7,a5
    e5b0:	0078f793          	and	a5,a7,7
    e5b4:	00e45433          	srl	s0,s0,a4
    e5b8:	02078063          	beqz	a5,e5d8 <__divdf3+0x56c>
    e5bc:	00f8f793          	and	a5,a7,15
    e5c0:	00400713          	li	a4,4
    e5c4:	00e78a63          	beq	a5,a4,e5d8 <__divdf3+0x56c>
    e5c8:	00488793          	add	a5,a7,4
    e5cc:	0117b8b3          	sltu	a7,a5,a7
    e5d0:	01140433          	add	s0,s0,a7
    e5d4:	00078893          	mv	a7,a5
    e5d8:	00841593          	sll	a1,s0,0x8
    e5dc:	00100793          	li	a5,1
    e5e0:	00000613          	li	a2,0
    e5e4:	00000713          	li	a4,0
    e5e8:	be05cce3          	bltz	a1,e1e0 <__divdf3+0x174>
    e5ec:	1340006f          	j	e720 <__divdf3+0x6b4>
    e5f0:	e8fb78e3          	bgeu	s6,a5,e480 <__divdf3+0x414>
    e5f4:	00bb0eb3          	add	t4,s6,a1
    e5f8:	016ebf33          	sltu	t5,t4,s6
    e5fc:	00cf0fb3          	add	t6,t5,a2
    e600:	01f70733          	add	a4,a4,t6
    e604:	000e8b13          	mv	s6,t4
    e608:	fff40f93          	add	t6,s0,-1
    e60c:	08e67463          	bgeu	a2,a4,e694 <__divdf3+0x628>
    e610:	15176263          	bltu	a4,a7,e754 <__divdf3+0x6e8>
    e614:	12e88e63          	beq	a7,a4,e750 <__divdf3+0x6e4>
    e618:	000f8413          	mv	s0,t6
    e61c:	e65ff06f          	j	e480 <__divdf3+0x414>
    e620:	d71b62e3          	bltu	s6,a7,e384 <__divdf3+0x318>
    e624:	001b5713          	srl	a4,s6,0x1
    e628:	01fa9313          	sll	t1,s5,0x1f
    e62c:	001ad793          	srl	a5,s5,0x1
    e630:	00e36333          	or	t1,t1,a4
    e634:	01fb1b13          	sll	s6,s6,0x1f
    e638:	d5dff06f          	j	e394 <__divdf3+0x328>
    e63c:	000b8513          	mv	a0,s7
    e640:	7c4040ef          	jal	12e04 <__clzsi2>
    e644:	01550693          	add	a3,a0,21 # 10015 <__multf3+0xdd>
    e648:	01c00713          	li	a4,28
    e64c:	02050793          	add	a5,a0,32
    e650:	b4d756e3          	bge	a4,a3,e19c <__divdf3+0x130>
    e654:	ff850513          	add	a0,a0,-8
    e658:	00000893          	li	a7,0
    e65c:	00ab9433          	sll	s0,s7,a0
    e660:	b59ff06f          	j	e1b8 <__divdf3+0x14c>
    e664:	7a0040ef          	jal	12e04 <__clzsi2>
    e668:	01550693          	add	a3,a0,21
    e66c:	01c00793          	li	a5,28
    e670:	02050713          	add	a4,a0,32
    e674:	bed7dae3          	bge	a5,a3,e268 <__divdf3+0x1fc>
    e678:	ff850793          	add	a5,a0,-8
    e67c:	00f41ab3          	sll	s5,s0,a5
    e680:	00000b13          	li	s6,0
    e684:	c01ff06f          	j	e284 <__divdf3+0x218>
    e688:	eea79ee3          	bne	a5,a0,e584 <__divdf3+0x518>
    e68c:	c40708e3          	beqz	a4,e2dc <__divdf3+0x270>
    e690:	ed9ff06f          	j	e568 <__divdf3+0x4fc>
    e694:	f8e612e3          	bne	a2,a4,e618 <__divdf3+0x5ac>
    e698:	f60f0ce3          	beqz	t5,e610 <__divdf3+0x5a4>
    e69c:	000f8413          	mv	s0,t6
    e6a0:	de1ff06f          	j	e480 <__divdf3+0x414>
    e6a4:	d7f774e3          	bgeu	a4,t6,e40c <__divdf3+0x3a0>
    e6a8:	ffe88893          	add	a7,a7,-2
    e6ac:	00c70733          	add	a4,a4,a2
    e6b0:	d61ff06f          	j	e410 <__divdf3+0x3a4>
    e6b4:	d317f2e3          	bgeu	a5,a7,e3d8 <__divdf3+0x36c>
    e6b8:	ffe40413          	add	s0,s0,-2
    e6bc:	00c787b3          	add	a5,a5,a2
    e6c0:	d1dff06f          	j	e3dc <__divdf3+0x370>
    e6c4:	01f00613          	li	a2,31
    e6c8:	ece656e3          	bge	a2,a4,e594 <__divdf3+0x528>
    e6cc:	fe100613          	li	a2,-31
    e6d0:	40f607b3          	sub	a5,a2,a5
    e6d4:	02000613          	li	a2,32
    e6d8:	00f457b3          	srl	a5,s0,a5
    e6dc:	00c70863          	beq	a4,a2,e6ec <__divdf3+0x680>
    e6e0:	43e98993          	add	s3,s3,1086
    e6e4:	013419b3          	sll	s3,s0,s3
    e6e8:	0138e8b3          	or	a7,a7,s3
    e6ec:	011038b3          	snez	a7,a7
    e6f0:	00f8e8b3          	or	a7,a7,a5
    e6f4:	0078f713          	and	a4,a7,7
    e6f8:	00000613          	li	a2,0
    e6fc:	02070863          	beqz	a4,e72c <__divdf3+0x6c0>
    e700:	00f8f793          	and	a5,a7,15
    e704:	00400713          	li	a4,4
    e708:	00000413          	li	s0,0
    e70c:	00e78a63          	beq	a5,a4,e720 <__divdf3+0x6b4>
    e710:	00488793          	add	a5,a7,4
    e714:	0117b8b3          	sltu	a7,a5,a7
    e718:	01103433          	snez	s0,a7
    e71c:	00078893          	mv	a7,a5
    e720:	00941613          	sll	a2,s0,0x9
    e724:	01d41713          	sll	a4,s0,0x1d
    e728:	00c65613          	srl	a2,a2,0xc
    e72c:	0038d893          	srl	a7,a7,0x3
    e730:	00e8e733          	or	a4,a7,a4
    e734:	00000793          	li	a5,0
    e738:	aa9ff06f          	j	e1e0 <__divdf3+0x174>
    e73c:	00030893          	mv	a7,t1
    e740:	e4a812e3          	bne	a6,a0,e584 <__divdf3+0x518>
    e744:	b8b70ce3          	beq	a4,a1,e2dc <__divdf3+0x270>
    e748:	0018e893          	or	a7,a7,1
    e74c:	b91ff06f          	j	e2dc <__divdf3+0x270>
    e750:	ecfef4e3          	bgeu	t4,a5,e618 <__divdf3+0x5ac>
    e754:	01d58eb3          	add	t4,a1,t4
    e758:	00bebf33          	sltu	t5,t4,a1
    e75c:	00cf0f33          	add	t5,t5,a2
    e760:	ffe40413          	add	s0,s0,-2
    e764:	000e8b13          	mv	s6,t4
    e768:	01e70733          	add	a4,a4,t5
    e76c:	d15ff06f          	j	e480 <__divdf3+0x414>
    e770:	c0200713          	li	a4,-1022
    e774:	3ff98793          	add	a5,s3,1023
    e778:	fff00893          	li	a7,-1
    e77c:	e0e9c8e3          	blt	s3,a4,e58c <__divdf3+0x520>
    e780:	00488713          	add	a4,a7,4
    e784:	011738b3          	sltu	a7,a4,a7
    e788:	01140433          	add	s0,s0,a7
    e78c:	00070893          	mv	a7,a4
    e790:	b5dff06f          	j	e2ec <__divdf3+0x280>
    e794:	00f8f713          	and	a4,a7,15
    e798:	00400613          	li	a2,4
    e79c:	b4c708e3          	beq	a4,a2,e2ec <__divdf3+0x280>
    e7a0:	fe1ff06f          	j	e780 <__divdf3+0x714>
    e7a4:	00070e93          	mv	t4,a4
    e7a8:	d5dff06f          	j	e504 <__divdf3+0x498>
    e7ac:	000e8893          	mv	a7,t4
    e7b0:	d19ff06f          	j	e4c8 <__divdf3+0x45c>
    e7b4:	00090693          	mv	a3,s2
    e7b8:	7ff00793          	li	a5,2047
    e7bc:	00000613          	li	a2,0
    e7c0:	00000713          	li	a4,0
    e7c4:	a1dff06f          	j	e1e0 <__divdf3+0x174>
    e7c8:	00159313          	sll	t1,a1,0x1
    e7cc:	00b33833          	sltu	a6,t1,a1
    e7d0:	00c80833          	add	a6,a6,a2
    e7d4:	01078833          	add	a6,a5,a6
    e7d8:	ffe88893          	add	a7,a7,-2
    e7dc:	00030593          	mv	a1,t1
    e7e0:	f6a802e3          	beq	a6,a0,e744 <__divdf3+0x6d8>
    e7e4:	da1ff06f          	j	e584 <__divdf3+0x518>
    e7e8:	fee5e0e3          	bltu	a1,a4,e7c8 <__divdf3+0x75c>
    e7ec:	00030893          	mv	a7,t1
    e7f0:	f4b71ce3          	bne	a4,a1,e748 <__divdf3+0x6dc>
    e7f4:	ae9ff06f          	j	e2dc <__divdf3+0x270>

0000e7f8 <__eqdf2>:
    e7f8:	0145d713          	srl	a4,a1,0x14
    e7fc:	001007b7          	lui	a5,0x100
    e800:	fff78793          	add	a5,a5,-1 # fffff <__alt_data_end+0xdffff>
    e804:	0146d813          	srl	a6,a3,0x14
    e808:	7ff77713          	and	a4,a4,2047
    e80c:	7ff00313          	li	t1,2047
    e810:	00b7fe33          	and	t3,a5,a1
    e814:	00050893          	mv	a7,a0
    e818:	00d7f7b3          	and	a5,a5,a3
    e81c:	01f5d593          	srl	a1,a1,0x1f
    e820:	7ff87813          	and	a6,a6,2047
    e824:	01f6d693          	srl	a3,a3,0x1f
    e828:	00100513          	li	a0,1
    e82c:	00670c63          	beq	a4,t1,e844 <__eqdf2+0x4c>
    e830:	00680863          	beq	a6,t1,e840 <__eqdf2+0x48>
    e834:	01071463          	bne	a4,a6,e83c <__eqdf2+0x44>
    e838:	02fe0663          	beq	t3,a5,e864 <__eqdf2+0x6c>
    e83c:	00008067          	ret
    e840:	00008067          	ret
    e844:	fee81ce3          	bne	a6,a4,e83c <__eqdf2+0x44>
    e848:	00fe67b3          	or	a5,t3,a5
    e84c:	00c7e7b3          	or	a5,a5,a2
    e850:	0117e7b3          	or	a5,a5,a7
    e854:	fe0794e3          	bnez	a5,e83c <__eqdf2+0x44>
    e858:	40d585b3          	sub	a1,a1,a3
    e85c:	00b03533          	snez	a0,a1
    e860:	00008067          	ret
    e864:	fcc89ce3          	bne	a7,a2,e83c <__eqdf2+0x44>
    e868:	00d58a63          	beq	a1,a3,e87c <__eqdf2+0x84>
    e86c:	fc0718e3          	bnez	a4,e83c <__eqdf2+0x44>
    e870:	011e6e33          	or	t3,t3,a7
    e874:	01c03533          	snez	a0,t3
    e878:	00008067          	ret
    e87c:	00000513          	li	a0,0
    e880:	00008067          	ret

0000e884 <__gedf2>:
    e884:	0145d893          	srl	a7,a1,0x14
    e888:	001007b7          	lui	a5,0x100
    e88c:	fff78793          	add	a5,a5,-1 # fffff <__alt_data_end+0xdffff>
    e890:	0146d713          	srl	a4,a3,0x14
    e894:	7ff8f893          	and	a7,a7,2047
    e898:	7ff00e13          	li	t3,2047
    e89c:	00b7f333          	and	t1,a5,a1
    e8a0:	00050813          	mv	a6,a0
    e8a4:	00050e93          	mv	t4,a0
    e8a8:	00d7f7b3          	and	a5,a5,a3
    e8ac:	01f5d593          	srl	a1,a1,0x1f
    e8b0:	00060f13          	mv	t5,a2
    e8b4:	7ff77513          	and	a0,a4,2047
    e8b8:	01f6d693          	srl	a3,a3,0x1f
    e8bc:	05c88863          	beq	a7,t3,e90c <__gedf2+0x88>
    e8c0:	03c50463          	beq	a0,t3,e8e8 <__gedf2+0x64>
    e8c4:	06089a63          	bnez	a7,e938 <__gedf2+0xb4>
    e8c8:	01036833          	or	a6,t1,a6
    e8cc:	06051063          	bnez	a0,e92c <__gedf2+0xa8>
    e8d0:	00c7e633          	or	a2,a5,a2
    e8d4:	08060c63          	beqz	a2,e96c <__gedf2+0xe8>
    e8d8:	0a081263          	bnez	a6,e97c <__gedf2+0xf8>
    e8dc:	00100513          	li	a0,1
    e8e0:	08068263          	beqz	a3,e964 <__gedf2+0xe0>
    e8e4:	00008067          	ret
    e8e8:	00c7e633          	or	a2,a5,a2
    e8ec:	08061463          	bnez	a2,e974 <__gedf2+0xf0>
    e8f0:	00089663          	bnez	a7,e8fc <__gedf2+0x78>
    e8f4:	01036333          	or	t1,t1,a6
    e8f8:	fe0302e3          	beqz	t1,e8dc <__gedf2+0x58>
    e8fc:	06d58063          	beq	a1,a3,e95c <__gedf2+0xd8>
    e900:	06059263          	bnez	a1,e964 <__gedf2+0xe0>
    e904:	00100513          	li	a0,1
    e908:	00008067          	ret
    e90c:	01036333          	or	t1,t1,a6
    e910:	06031263          	bnez	t1,e974 <__gedf2+0xf0>
    e914:	ff1516e3          	bne	a0,a7,e900 <__gedf2+0x7c>
    e918:	00c7e7b3          	or	a5,a5,a2
    e91c:	04079c63          	bnez	a5,e974 <__gedf2+0xf0>
    e920:	fed590e3          	bne	a1,a3,e900 <__gedf2+0x7c>
    e924:	00000513          	li	a0,0
    e928:	00008067          	ret
    e92c:	fa0808e3          	beqz	a6,e8dc <__gedf2+0x58>
    e930:	fcd598e3          	bne	a1,a3,e900 <__gedf2+0x7c>
    e934:	0280006f          	j	e95c <__gedf2+0xd8>
    e938:	fc0504e3          	beqz	a0,e900 <__gedf2+0x7c>
    e93c:	fcd592e3          	bne	a1,a3,e900 <__gedf2+0x7c>
    e940:	fd1540e3          	blt	a0,a7,e900 <__gedf2+0x7c>
    e944:	00a8cc63          	blt	a7,a0,e95c <__gedf2+0xd8>
    e948:	fa67ece3          	bltu	a5,t1,e900 <__gedf2+0x7c>
    e94c:	00f31863          	bne	t1,a5,e95c <__gedf2+0xd8>
    e950:	fbdf68e3          	bltu	t5,t4,e900 <__gedf2+0x7c>
    e954:	00000513          	li	a0,0
    e958:	f9eef6e3          	bgeu	t4,t5,e8e4 <__gedf2+0x60>
    e95c:	00100513          	li	a0,1
    e960:	f80592e3          	bnez	a1,e8e4 <__gedf2+0x60>
    e964:	fff00513          	li	a0,-1
    e968:	00008067          	ret
    e96c:	f8081ae3          	bnez	a6,e900 <__gedf2+0x7c>
    e970:	00008067          	ret
    e974:	ffe00513          	li	a0,-2
    e978:	00008067          	ret
    e97c:	fcd586e3          	beq	a1,a3,e948 <__gedf2+0xc4>
    e980:	f81ff06f          	j	e900 <__gedf2+0x7c>

0000e984 <__ledf2>:
    e984:	0145d893          	srl	a7,a1,0x14
    e988:	001007b7          	lui	a5,0x100
    e98c:	fff78793          	add	a5,a5,-1 # fffff <__alt_data_end+0xdffff>
    e990:	0146d713          	srl	a4,a3,0x14
    e994:	7ff8f893          	and	a7,a7,2047
    e998:	7ff00313          	li	t1,2047
    e99c:	00b7fe33          	and	t3,a5,a1
    e9a0:	00050813          	mv	a6,a0
    e9a4:	00050e93          	mv	t4,a0
    e9a8:	00d7f7b3          	and	a5,a5,a3
    e9ac:	01f5d593          	srl	a1,a1,0x1f
    e9b0:	00060f13          	mv	t5,a2
    e9b4:	7ff77513          	and	a0,a4,2047
    e9b8:	01f6d693          	srl	a3,a3,0x1f
    e9bc:	04688a63          	beq	a7,t1,ea10 <__ledf2+0x8c>
    e9c0:	02650463          	beq	a0,t1,e9e8 <__ledf2+0x64>
    e9c4:	06089863          	bnez	a7,ea34 <__ledf2+0xb0>
    e9c8:	010e6833          	or	a6,t3,a6
    e9cc:	08051e63          	bnez	a0,ea68 <__ledf2+0xe4>
    e9d0:	00c7e633          	or	a2,a5,a2
    e9d4:	0a060463          	beqz	a2,ea7c <__ledf2+0xf8>
    e9d8:	0a081663          	bnez	a6,ea84 <__ledf2+0x100>
    e9dc:	00100513          	li	a0,1
    e9e0:	08068063          	beqz	a3,ea60 <__ledf2+0xdc>
    e9e4:	00008067          	ret
    e9e8:	00c7e633          	or	a2,a5,a2
    e9ec:	00200513          	li	a0,2
    e9f0:	fe061ae3          	bnez	a2,e9e4 <__ledf2+0x60>
    e9f4:	00089663          	bnez	a7,ea00 <__ledf2+0x7c>
    e9f8:	010e6e33          	or	t3,t3,a6
    e9fc:	fe0e00e3          	beqz	t3,e9dc <__ledf2+0x58>
    ea00:	04d58c63          	beq	a1,a3,ea58 <__ledf2+0xd4>
    ea04:	04059e63          	bnez	a1,ea60 <__ledf2+0xdc>
    ea08:	00100513          	li	a0,1
    ea0c:	00008067          	ret
    ea10:	010e6e33          	or	t3,t3,a6
    ea14:	060e1063          	bnez	t3,ea74 <__ledf2+0xf0>
    ea18:	ff1516e3          	bne	a0,a7,ea04 <__ledf2+0x80>
    ea1c:	00c7e7b3          	or	a5,a5,a2
    ea20:	00200513          	li	a0,2
    ea24:	fc0790e3          	bnez	a5,e9e4 <__ledf2+0x60>
    ea28:	fcd59ee3          	bne	a1,a3,ea04 <__ledf2+0x80>
    ea2c:	00000513          	li	a0,0
    ea30:	00008067          	ret
    ea34:	fc0508e3          	beqz	a0,ea04 <__ledf2+0x80>
    ea38:	fcd596e3          	bne	a1,a3,ea04 <__ledf2+0x80>
    ea3c:	fd1544e3          	blt	a0,a7,ea04 <__ledf2+0x80>
    ea40:	00a8cc63          	blt	a7,a0,ea58 <__ledf2+0xd4>
    ea44:	fdc7e0e3          	bltu	a5,t3,ea04 <__ledf2+0x80>
    ea48:	00fe1863          	bne	t3,a5,ea58 <__ledf2+0xd4>
    ea4c:	fbdf6ce3          	bltu	t5,t4,ea04 <__ledf2+0x80>
    ea50:	00000513          	li	a0,0
    ea54:	f9eef8e3          	bgeu	t4,t5,e9e4 <__ledf2+0x60>
    ea58:	00100513          	li	a0,1
    ea5c:	f80594e3          	bnez	a1,e9e4 <__ledf2+0x60>
    ea60:	fff00513          	li	a0,-1
    ea64:	00008067          	ret
    ea68:	f6080ae3          	beqz	a6,e9dc <__ledf2+0x58>
    ea6c:	f8d59ce3          	bne	a1,a3,ea04 <__ledf2+0x80>
    ea70:	fe9ff06f          	j	ea58 <__ledf2+0xd4>
    ea74:	00200513          	li	a0,2
    ea78:	00008067          	ret
    ea7c:	f80814e3          	bnez	a6,ea04 <__ledf2+0x80>
    ea80:	00008067          	ret
    ea84:	fcd580e3          	beq	a1,a3,ea44 <__ledf2+0xc0>
    ea88:	f7dff06f          	j	ea04 <__ledf2+0x80>

0000ea8c <__muldf3>:
    ea8c:	fd010113          	add	sp,sp,-48
    ea90:	0145d793          	srl	a5,a1,0x14
    ea94:	02812423          	sw	s0,40(sp)
    ea98:	02912223          	sw	s1,36(sp)
    ea9c:	03212023          	sw	s2,32(sp)
    eaa0:	01312e23          	sw	s3,28(sp)
    eaa4:	01512a23          	sw	s5,20(sp)
    eaa8:	00c59493          	sll	s1,a1,0xc
    eaac:	02112623          	sw	ra,44(sp)
    eab0:	01412c23          	sw	s4,24(sp)
    eab4:	01612823          	sw	s6,16(sp)
    eab8:	01712623          	sw	s7,12(sp)
    eabc:	01812423          	sw	s8,8(sp)
    eac0:	7ff7f793          	and	a5,a5,2047
    eac4:	00050413          	mv	s0,a0
    eac8:	00060a93          	mv	s5,a2
    eacc:	00068993          	mv	s3,a3
    ead0:	00c4d493          	srl	s1,s1,0xc
    ead4:	01f5d913          	srl	s2,a1,0x1f
    ead8:	42078463          	beqz	a5,ef00 <__muldf3+0x474>
    eadc:	7ff00713          	li	a4,2047
    eae0:	0ae78663          	beq	a5,a4,eb8c <__muldf3+0x100>
    eae4:	00349693          	sll	a3,s1,0x3
    eae8:	01d55713          	srl	a4,a0,0x1d
    eaec:	00d76733          	or	a4,a4,a3
    eaf0:	008006b7          	lui	a3,0x800
    eaf4:	00d764b3          	or	s1,a4,a3
    eaf8:	00351a13          	sll	s4,a0,0x3
    eafc:	c0178c13          	add	s8,a5,-1023
    eb00:	00000b13          	li	s6,0
    eb04:	00000b93          	li	s7,0
    eb08:	0149d793          	srl	a5,s3,0x14
    eb0c:	00c99713          	sll	a4,s3,0xc
    eb10:	7ff7f793          	and	a5,a5,2047
    eb14:	000a8f13          	mv	t5,s5
    eb18:	00c75413          	srl	s0,a4,0xc
    eb1c:	01f9d993          	srl	s3,s3,0x1f
    eb20:	0a078063          	beqz	a5,ebc0 <__muldf3+0x134>
    eb24:	7ff00713          	li	a4,2047
    eb28:	14e78e63          	beq	a5,a4,ec84 <__muldf3+0x1f8>
    eb2c:	00341713          	sll	a4,s0,0x3
    eb30:	01dad593          	srl	a1,s5,0x1d
    eb34:	00e5e5b3          	or	a1,a1,a4
    eb38:	c0178793          	add	a5,a5,-1023
    eb3c:	00800737          	lui	a4,0x800
    eb40:	00e5e433          	or	s0,a1,a4
    eb44:	003a9f13          	sll	t5,s5,0x3
    eb48:	018788b3          	add	a7,a5,s8
    eb4c:	00000313          	li	t1,0
    eb50:	00a00713          	li	a4,10
    eb54:	00188513          	add	a0,a7,1
    eb58:	0b674c63          	blt	a4,s6,ec10 <__muldf3+0x184>
    eb5c:	013945b3          	xor	a1,s2,s3
    eb60:	00200793          	li	a5,2
    eb64:	00058813          	mv	a6,a1
    eb68:	1567c663          	blt	a5,s6,ecb4 <__muldf3+0x228>
    eb6c:	fffb0b13          	add	s6,s6,-1
    eb70:	00100713          	li	a4,1
    eb74:	17676063          	bltu	a4,s6,ecd4 <__muldf3+0x248>
    eb78:	3cf30a63          	beq	t1,a5,ef4c <__muldf3+0x4c0>
    eb7c:	00040493          	mv	s1,s0
    eb80:	000f0a13          	mv	s4,t5
    eb84:	00030b93          	mv	s7,t1
    eb88:	09c0006f          	j	ec24 <__muldf3+0x198>
    eb8c:	00a4ea33          	or	s4,s1,a0
    eb90:	3c0a1863          	bnez	s4,ef60 <__muldf3+0x4d4>
    eb94:	0149d793          	srl	a5,s3,0x14
    eb98:	00c99713          	sll	a4,s3,0xc
    eb9c:	7ff7f793          	and	a5,a5,2047
    eba0:	00000493          	li	s1,0
    eba4:	00800b13          	li	s6,8
    eba8:	7ff00c13          	li	s8,2047
    ebac:	00200b93          	li	s7,2
    ebb0:	000a8f13          	mv	t5,s5
    ebb4:	00c75413          	srl	s0,a4,0xc
    ebb8:	01f9d993          	srl	s3,s3,0x1f
    ebbc:	f60794e3          	bnez	a5,eb24 <__muldf3+0x98>
    ebc0:	015467b3          	or	a5,s0,s5
    ebc4:	3c078263          	beqz	a5,ef88 <__muldf3+0x4fc>
    ebc8:	4a040063          	beqz	s0,f068 <__muldf3+0x5dc>
    ebcc:	00040513          	mv	a0,s0
    ebd0:	234040ef          	jal	12e04 <__clzsi2>
    ebd4:	00050893          	mv	a7,a0
    ebd8:	ff550713          	add	a4,a0,-11
    ebdc:	01d00793          	li	a5,29
    ebe0:	ff888f13          	add	t5,a7,-8
    ebe4:	40e787b3          	sub	a5,a5,a4
    ebe8:	00fad7b3          	srl	a5,s5,a5
    ebec:	01e41733          	sll	a4,s0,t5
    ebf0:	00e7e433          	or	s0,a5,a4
    ebf4:	01ea9f33          	sll	t5,s5,t5
    ebf8:	411c08b3          	sub	a7,s8,a7
    ebfc:	c0d88893          	add	a7,a7,-1011
    ec00:	00a00713          	li	a4,10
    ec04:	00000313          	li	t1,0
    ec08:	00188513          	add	a0,a7,1
    ec0c:	f56758e3          	bge	a4,s6,eb5c <__muldf3+0xd0>
    ec10:	00090593          	mv	a1,s2
    ec14:	00200793          	li	a5,2
    ec18:	32fb8a63          	beq	s7,a5,ef4c <__muldf3+0x4c0>
    ec1c:	00300793          	li	a5,3
    ec20:	48fb8c63          	beq	s7,a5,f0b8 <__muldf3+0x62c>
    ec24:	00100793          	li	a5,1
    ec28:	00058813          	mv	a6,a1
    ec2c:	46fb9a63          	bne	s7,a5,f0a0 <__muldf3+0x614>
    ec30:	00000793          	li	a5,0
    ec34:	00000693          	li	a3,0
    ec38:	00000713          	li	a4,0
    ec3c:	02c12083          	lw	ra,44(sp)
    ec40:	02812403          	lw	s0,40(sp)
    ec44:	01479793          	sll	a5,a5,0x14
    ec48:	00d7e7b3          	or	a5,a5,a3
    ec4c:	01f81693          	sll	a3,a6,0x1f
    ec50:	00d7e7b3          	or	a5,a5,a3
    ec54:	02412483          	lw	s1,36(sp)
    ec58:	02012903          	lw	s2,32(sp)
    ec5c:	01c12983          	lw	s3,28(sp)
    ec60:	01812a03          	lw	s4,24(sp)
    ec64:	01412a83          	lw	s5,20(sp)
    ec68:	01012b03          	lw	s6,16(sp)
    ec6c:	00c12b83          	lw	s7,12(sp)
    ec70:	00812c03          	lw	s8,8(sp)
    ec74:	00070513          	mv	a0,a4
    ec78:	00078593          	mv	a1,a5
    ec7c:	03010113          	add	sp,sp,48
    ec80:	00008067          	ret
    ec84:	01546733          	or	a4,s0,s5
    ec88:	7ffc0893          	add	a7,s8,2047
    ec8c:	30070a63          	beqz	a4,efa0 <__muldf3+0x514>
    ec90:	00001737          	lui	a4,0x1
    ec94:	01394833          	xor	a6,s2,s3
    ec98:	80070713          	add	a4,a4,-2048 # 800 <altera_avalon_jtag_uart_init+0x60>
    ec9c:	003b6b13          	or	s6,s6,3
    eca0:	00a00693          	li	a3,10
    eca4:	00080593          	mv	a1,a6
    eca8:	00ec0533          	add	a0,s8,a4
    ecac:	3966c063          	blt	a3,s6,f02c <__muldf3+0x5a0>
    ecb0:	00300313          	li	t1,3
    ecb4:	00100613          	li	a2,1
    ecb8:	01661633          	sll	a2,a2,s6
    ecbc:	53067713          	and	a4,a2,1328
    ecc0:	f4071ae3          	bnez	a4,ec14 <__muldf3+0x188>
    ecc4:	24067793          	and	a5,a2,576
    ecc8:	3c079463          	bnez	a5,f090 <__muldf3+0x604>
    eccc:	08867613          	and	a2,a2,136
    ecd0:	2e061263          	bnez	a2,efb4 <__muldf3+0x528>
    ecd4:	00010fb7          	lui	t6,0x10
    ecd8:	ffff8e93          	add	t4,t6,-1 # ffff <__multf3+0xc7>
    ecdc:	01da77b3          	and	a5,s4,t4
    ece0:	010a5693          	srl	a3,s4,0x10
    ece4:	01df7eb3          	and	t4,t5,t4
    ece8:	010f5e13          	srl	t3,t5,0x10
    ecec:	03d78733          	mul	a4,a5,t4
    ecf0:	03d68333          	mul	t1,a3,t4
    ecf4:	01075593          	srl	a1,a4,0x10
    ecf8:	02fe0633          	mul	a2,t3,a5
    ecfc:	00660633          	add	a2,a2,t1
    ed00:	00c585b3          	add	a1,a1,a2
    ed04:	03c68f33          	mul	t5,a3,t3
    ed08:	0065f463          	bgeu	a1,t1,ed10 <__muldf3+0x284>
    ed0c:	01ff0f33          	add	t5,t5,t6
    ed10:	000103b7          	lui	t2,0x10
    ed14:	fff38613          	add	a2,t2,-1 # ffff <__multf3+0xc7>
    ed18:	00c5f333          	and	t1,a1,a2
    ed1c:	01045f93          	srl	t6,s0,0x10
    ed20:	00c77733          	and	a4,a4,a2
    ed24:	00c47433          	and	s0,s0,a2
    ed28:	01031313          	sll	t1,t1,0x10
    ed2c:	028782b3          	mul	t0,a5,s0
    ed30:	00e30333          	add	t1,t1,a4
    ed34:	0105d593          	srl	a1,a1,0x10
    ed38:	02868733          	mul	a4,a3,s0
    ed3c:	0102d613          	srl	a2,t0,0x10
    ed40:	02ff87b3          	mul	a5,t6,a5
    ed44:	00e787b3          	add	a5,a5,a4
    ed48:	00f60633          	add	a2,a2,a5
    ed4c:	03f687b3          	mul	a5,a3,t6
    ed50:	00e67463          	bgeu	a2,a4,ed58 <__muldf3+0x2cc>
    ed54:	007787b3          	add	a5,a5,t2
    ed58:	00010937          	lui	s2,0x10
    ed5c:	fff90993          	add	s3,s2,-1 # ffff <__multf3+0xc7>
    ed60:	01367733          	and	a4,a2,s3
    ed64:	0104d393          	srl	t2,s1,0x10
    ed68:	0134f6b3          	and	a3,s1,s3
    ed6c:	0132f2b3          	and	t0,t0,s3
    ed70:	01071713          	sll	a4,a4,0x10
    ed74:	02de84b3          	mul	s1,t4,a3
    ed78:	00570733          	add	a4,a4,t0
    ed7c:	01065613          	srl	a2,a2,0x10
    ed80:	00f60633          	add	a2,a2,a5
    ed84:	00e585b3          	add	a1,a1,a4
    ed88:	02de02b3          	mul	t0,t3,a3
    ed8c:	0104d793          	srl	a5,s1,0x10
    ed90:	03d38eb3          	mul	t4,t2,t4
    ed94:	01d282b3          	add	t0,t0,t4
    ed98:	005787b3          	add	a5,a5,t0
    ed9c:	027e0e33          	mul	t3,t3,t2
    eda0:	01d7f463          	bgeu	a5,t4,eda8 <__muldf3+0x31c>
    eda4:	012e0e33          	add	t3,t3,s2
    eda8:	000109b7          	lui	s3,0x10
    edac:	fff98e93          	add	t4,s3,-1 # ffff <__multf3+0xc7>
    edb0:	01d7f2b3          	and	t0,a5,t4
    edb4:	0107d793          	srl	a5,a5,0x10
    edb8:	01c787b3          	add	a5,a5,t3
    edbc:	01d4feb3          	and	t4,s1,t4
    edc0:	01029293          	sll	t0,t0,0x10
    edc4:	02d40933          	mul	s2,s0,a3
    edc8:	01d282b3          	add	t0,t0,t4
    edcc:	02838433          	mul	s0,t2,s0
    edd0:	01095e13          	srl	t3,s2,0x10
    edd4:	02df86b3          	mul	a3,t6,a3
    edd8:	008686b3          	add	a3,a3,s0
    eddc:	00de0e33          	add	t3,t3,a3
    ede0:	027f8eb3          	mul	t4,t6,t2
    ede4:	008e7463          	bgeu	t3,s0,edec <__muldf3+0x360>
    ede8:	013e8eb3          	add	t4,t4,s3
    edec:	00010fb7          	lui	t6,0x10
    edf0:	ffff8f93          	add	t6,t6,-1 # ffff <__multf3+0xc7>
    edf4:	01fe76b3          	and	a3,t3,t6
    edf8:	01069693          	sll	a3,a3,0x10
    edfc:	01f97933          	and	s2,s2,t6
    ee00:	01e585b3          	add	a1,a1,t5
    ee04:	012686b3          	add	a3,a3,s2
    ee08:	00c68633          	add	a2,a3,a2
    ee0c:	00e5b733          	sltu	a4,a1,a4
    ee10:	00e60733          	add	a4,a2,a4
    ee14:	00558f33          	add	t5,a1,t0
    ee18:	00f707b3          	add	a5,a4,a5
    ee1c:	00bf35b3          	sltu	a1,t5,a1
    ee20:	00b785b3          	add	a1,a5,a1
    ee24:	00d636b3          	sltu	a3,a2,a3
    ee28:	00c73633          	sltu	a2,a4,a2
    ee2c:	00c6e6b3          	or	a3,a3,a2
    ee30:	00e7b733          	sltu	a4,a5,a4
    ee34:	010e5e13          	srl	t3,t3,0x10
    ee38:	00f5b7b3          	sltu	a5,a1,a5
    ee3c:	01c686b3          	add	a3,a3,t3
    ee40:	00f76733          	or	a4,a4,a5
    ee44:	009f1793          	sll	a5,t5,0x9
    ee48:	00d70733          	add	a4,a4,a3
    ee4c:	0067e7b3          	or	a5,a5,t1
    ee50:	01d70733          	add	a4,a4,t4
    ee54:	00f037b3          	snez	a5,a5
    ee58:	017f5613          	srl	a2,t5,0x17
    ee5c:	00971713          	sll	a4,a4,0x9
    ee60:	0175d693          	srl	a3,a1,0x17
    ee64:	00c7e7b3          	or	a5,a5,a2
    ee68:	00959593          	sll	a1,a1,0x9
    ee6c:	00b7ea33          	or	s4,a5,a1
    ee70:	00771793          	sll	a5,a4,0x7
    ee74:	00d764b3          	or	s1,a4,a3
    ee78:	0207d063          	bgez	a5,ee98 <__muldf3+0x40c>
    ee7c:	001a5713          	srl	a4,s4,0x1
    ee80:	001a7793          	and	a5,s4,1
    ee84:	01f49693          	sll	a3,s1,0x1f
    ee88:	00f767b3          	or	a5,a4,a5
    ee8c:	00d7ea33          	or	s4,a5,a3
    ee90:	0014d493          	srl	s1,s1,0x1
    ee94:	00050893          	mv	a7,a0
    ee98:	3ff88613          	add	a2,a7,1023
    ee9c:	12c05663          	blez	a2,efc8 <__muldf3+0x53c>
    eea0:	007a7793          	and	a5,s4,7
    eea4:	02078063          	beqz	a5,eec4 <__muldf3+0x438>
    eea8:	00fa7793          	and	a5,s4,15
    eeac:	00400713          	li	a4,4
    eeb0:	00e78a63          	beq	a5,a4,eec4 <__muldf3+0x438>
    eeb4:	004a0713          	add	a4,s4,4
    eeb8:	014737b3          	sltu	a5,a4,s4
    eebc:	00f484b3          	add	s1,s1,a5
    eec0:	00070a13          	mv	s4,a4
    eec4:	00749793          	sll	a5,s1,0x7
    eec8:	0007da63          	bgez	a5,eedc <__muldf3+0x450>
    eecc:	ff0007b7          	lui	a5,0xff000
    eed0:	fff78793          	add	a5,a5,-1 # feffffff <__alt_data_end+0xfefdffff>
    eed4:	00f4f4b3          	and	s1,s1,a5
    eed8:	40088613          	add	a2,a7,1024
    eedc:	7fe00793          	li	a5,2046
    eee0:	1cc7c463          	blt	a5,a2,f0a8 <__muldf3+0x61c>
    eee4:	003a5793          	srl	a5,s4,0x3
    eee8:	01d49713          	sll	a4,s1,0x1d
    eeec:	00949693          	sll	a3,s1,0x9
    eef0:	00f76733          	or	a4,a4,a5
    eef4:	00c6d693          	srl	a3,a3,0xc
    eef8:	7ff67793          	and	a5,a2,2047
    eefc:	d41ff06f          	j	ec3c <__muldf3+0x1b0>
    ef00:	00a4ea33          	or	s4,s1,a0
    ef04:	060a0863          	beqz	s4,ef74 <__muldf3+0x4e8>
    ef08:	12048e63          	beqz	s1,f044 <__muldf3+0x5b8>
    ef0c:	00048513          	mv	a0,s1
    ef10:	6f5030ef          	jal	12e04 <__clzsi2>
    ef14:	00050613          	mv	a2,a0
    ef18:	ff550693          	add	a3,a0,-11
    ef1c:	01d00713          	li	a4,29
    ef20:	ff860793          	add	a5,a2,-8 # 7fff8 <__alt_data_end+0x5fff8>
    ef24:	40d70733          	sub	a4,a4,a3
    ef28:	00e45733          	srl	a4,s0,a4
    ef2c:	00f496b3          	sll	a3,s1,a5
    ef30:	00d764b3          	or	s1,a4,a3
    ef34:	00f41a33          	sll	s4,s0,a5
    ef38:	c0d00793          	li	a5,-1011
    ef3c:	40c78c33          	sub	s8,a5,a2
    ef40:	00000b13          	li	s6,0
    ef44:	00000b93          	li	s7,0
    ef48:	bc1ff06f          	j	eb08 <__muldf3+0x7c>
    ef4c:	00058813          	mv	a6,a1
    ef50:	7ff00793          	li	a5,2047
    ef54:	00000693          	li	a3,0
    ef58:	00000713          	li	a4,0
    ef5c:	ce1ff06f          	j	ec3c <__muldf3+0x1b0>
    ef60:	00050a13          	mv	s4,a0
    ef64:	00c00b13          	li	s6,12
    ef68:	7ff00c13          	li	s8,2047
    ef6c:	00300b93          	li	s7,3
    ef70:	b99ff06f          	j	eb08 <__muldf3+0x7c>
    ef74:	00000493          	li	s1,0
    ef78:	00400b13          	li	s6,4
    ef7c:	00000c13          	li	s8,0
    ef80:	00100b93          	li	s7,1
    ef84:	b85ff06f          	j	eb08 <__muldf3+0x7c>
    ef88:	001b6b13          	or	s6,s6,1
    ef8c:	000c0893          	mv	a7,s8
    ef90:	00000413          	li	s0,0
    ef94:	00000f13          	li	t5,0
    ef98:	00100313          	li	t1,1
    ef9c:	bb5ff06f          	j	eb50 <__muldf3+0xc4>
    efa0:	002b6b13          	or	s6,s6,2
    efa4:	00000413          	li	s0,0
    efa8:	00000f13          	li	t5,0
    efac:	00200313          	li	t1,2
    efb0:	ba1ff06f          	j	eb50 <__muldf3+0xc4>
    efb4:	00040493          	mv	s1,s0
    efb8:	000f0a13          	mv	s4,t5
    efbc:	00030b93          	mv	s7,t1
    efc0:	00098593          	mv	a1,s3
    efc4:	c51ff06f          	j	ec14 <__muldf3+0x188>
    efc8:	00100713          	li	a4,1
    efcc:	10061063          	bnez	a2,f0cc <__muldf3+0x640>
    efd0:	41e88893          	add	a7,a7,1054
    efd4:	011a1633          	sll	a2,s4,a7
    efd8:	00c03633          	snez	a2,a2
    efdc:	011498b3          	sll	a7,s1,a7
    efe0:	00ea57b3          	srl	a5,s4,a4
    efe4:	01166633          	or	a2,a2,a7
    efe8:	00f66633          	or	a2,a2,a5
    efec:	00767793          	and	a5,a2,7
    eff0:	00e4d5b3          	srl	a1,s1,a4
    eff4:	02078063          	beqz	a5,f014 <__muldf3+0x588>
    eff8:	00f67793          	and	a5,a2,15
    effc:	00400713          	li	a4,4
    f000:	00e78a63          	beq	a5,a4,f014 <__muldf3+0x588>
    f004:	00460793          	add	a5,a2,4
    f008:	00c7b633          	sltu	a2,a5,a2
    f00c:	00c585b3          	add	a1,a1,a2
    f010:	00078613          	mv	a2,a5
    f014:	00859513          	sll	a0,a1,0x8
    f018:	00100793          	li	a5,1
    f01c:	00000693          	li	a3,0
    f020:	00000713          	li	a4,0
    f024:	c0054ce3          	bltz	a0,ec3c <__muldf3+0x1b0>
    f028:	10c0006f          	j	f134 <__muldf3+0x6a8>
    f02c:	00f00713          	li	a4,15
    f030:	12eb1063          	bne	s6,a4,f150 <__muldf3+0x6c4>
    f034:	00000813          	li	a6,0
    f038:	000806b7          	lui	a3,0x80
    f03c:	00000713          	li	a4,0
    f040:	bfdff06f          	j	ec3c <__muldf3+0x1b0>
    f044:	5c1030ef          	jal	12e04 <__clzsi2>
    f048:	01550693          	add	a3,a0,21
    f04c:	01c00793          	li	a5,28
    f050:	02050613          	add	a2,a0,32
    f054:	ecd7d4e3          	bge	a5,a3,ef1c <__muldf3+0x490>
    f058:	ff850513          	add	a0,a0,-8
    f05c:	00000a13          	li	s4,0
    f060:	00a414b3          	sll	s1,s0,a0
    f064:	ed5ff06f          	j	ef38 <__muldf3+0x4ac>
    f068:	000a8513          	mv	a0,s5
    f06c:	599030ef          	jal	12e04 <__clzsi2>
    f070:	01550713          	add	a4,a0,21
    f074:	01c00793          	li	a5,28
    f078:	02050893          	add	a7,a0,32
    f07c:	b6e7d0e3          	bge	a5,a4,ebdc <__muldf3+0x150>
    f080:	ff850513          	add	a0,a0,-8
    f084:	00000f13          	li	t5,0
    f088:	00aa9433          	sll	s0,s5,a0
    f08c:	b6dff06f          	j	ebf8 <__muldf3+0x16c>
    f090:	00000813          	li	a6,0
    f094:	7ff00793          	li	a5,2047
    f098:	000806b7          	lui	a3,0x80
    f09c:	ba1ff06f          	j	ec3c <__muldf3+0x1b0>
    f0a0:	00050893          	mv	a7,a0
    f0a4:	df5ff06f          	j	ee98 <__muldf3+0x40c>
    f0a8:	7ff00793          	li	a5,2047
    f0ac:	00000693          	li	a3,0
    f0b0:	00000713          	li	a4,0
    f0b4:	b89ff06f          	j	ec3c <__muldf3+0x1b0>
    f0b8:	00000813          	li	a6,0
    f0bc:	7ff00793          	li	a5,2047
    f0c0:	000806b7          	lui	a3,0x80
    f0c4:	00000713          	li	a4,0
    f0c8:	b75ff06f          	j	ec3c <__muldf3+0x1b0>
    f0cc:	40c70733          	sub	a4,a4,a2
    f0d0:	03800793          	li	a5,56
    f0d4:	b4e7cee3          	blt	a5,a4,ec30 <__muldf3+0x1a4>
    f0d8:	01f00793          	li	a5,31
    f0dc:	eee7dae3          	bge	a5,a4,efd0 <__muldf3+0x544>
    f0e0:	fe100793          	li	a5,-31
    f0e4:	40c787b3          	sub	a5,a5,a2
    f0e8:	02000693          	li	a3,32
    f0ec:	00f4d7b3          	srl	a5,s1,a5
    f0f0:	00d70863          	beq	a4,a3,f100 <__muldf3+0x674>
    f0f4:	43e88893          	add	a7,a7,1086
    f0f8:	011498b3          	sll	a7,s1,a7
    f0fc:	011a6a33          	or	s4,s4,a7
    f100:	01403633          	snez	a2,s4
    f104:	00f66633          	or	a2,a2,a5
    f108:	00767713          	and	a4,a2,7
    f10c:	00000693          	li	a3,0
    f110:	02070863          	beqz	a4,f140 <__muldf3+0x6b4>
    f114:	00f67793          	and	a5,a2,15
    f118:	00400713          	li	a4,4
    f11c:	00000593          	li	a1,0
    f120:	00e78a63          	beq	a5,a4,f134 <__muldf3+0x6a8>
    f124:	00460793          	add	a5,a2,4
    f128:	00c7b633          	sltu	a2,a5,a2
    f12c:	00c035b3          	snez	a1,a2
    f130:	00078613          	mv	a2,a5
    f134:	00959693          	sll	a3,a1,0x9
    f138:	01d59713          	sll	a4,a1,0x1d
    f13c:	00c6d693          	srl	a3,a3,0xc
    f140:	00365613          	srl	a2,a2,0x3
    f144:	00e66733          	or	a4,a2,a4
    f148:	00000793          	li	a5,0
    f14c:	af1ff06f          	j	ec3c <__muldf3+0x1b0>
    f150:	00040493          	mv	s1,s0
    f154:	000a8a13          	mv	s4,s5
    f158:	00300b93          	li	s7,3
    f15c:	00098593          	mv	a1,s3
    f160:	ab5ff06f          	j	ec14 <__muldf3+0x188>

0000f164 <__subdf3>:
    f164:	001007b7          	lui	a5,0x100
    f168:	fff78793          	add	a5,a5,-1 # fffff <__alt_data_end+0xdffff>
    f16c:	fe010113          	add	sp,sp,-32
    f170:	00b7f8b3          	and	a7,a5,a1
    f174:	00d7f833          	and	a6,a5,a3
    f178:	0146d793          	srl	a5,a3,0x14
    f17c:	00389893          	sll	a7,a7,0x3
    f180:	00812c23          	sw	s0,24(sp)
    f184:	01312623          	sw	s3,12(sp)
    f188:	01f5d413          	srl	s0,a1,0x1f
    f18c:	0145d993          	srl	s3,a1,0x14
    f190:	01d55713          	srl	a4,a0,0x1d
    f194:	00381813          	sll	a6,a6,0x3
    f198:	01d65593          	srl	a1,a2,0x1d
    f19c:	00112e23          	sw	ra,28(sp)
    f1a0:	00912a23          	sw	s1,20(sp)
    f1a4:	01212823          	sw	s2,16(sp)
    f1a8:	7ff7ff13          	and	t5,a5,2047
    f1ac:	7ff00313          	li	t1,2047
    f1b0:	01176733          	or	a4,a4,a7
    f1b4:	7ff9f993          	and	s3,s3,2047
    f1b8:	00040e13          	mv	t3,s0
    f1bc:	00351893          	sll	a7,a0,0x3
    f1c0:	01f6d693          	srl	a3,a3,0x1f
    f1c4:	0105e5b3          	or	a1,a1,a6
    f1c8:	00361e93          	sll	t4,a2,0x3
    f1cc:	206f0c63          	beq	t5,t1,f3e4 <__subdf3+0x280>
    f1d0:	0016c693          	xor	a3,a3,1
    f1d4:	41e987b3          	sub	a5,s3,t5
    f1d8:	16d40263          	beq	s0,a3,f33c <__subdf3+0x1d8>
    f1dc:	00f05ae3          	blez	a5,f9f0 <__subdf3+0x88c>
    f1e0:	240f0a63          	beqz	t5,f434 <__subdf3+0x2d0>
    f1e4:	3c698463          	beq	s3,t1,f5ac <__subdf3+0x448>
    f1e8:	03800693          	li	a3,56
    f1ec:	00100513          	li	a0,1
    f1f0:	02f6ce63          	blt	a3,a5,f22c <__subdf3+0xc8>
    f1f4:	008006b7          	lui	a3,0x800
    f1f8:	00d5e5b3          	or	a1,a1,a3
    f1fc:	01f00693          	li	a3,31
    f200:	4ef6c463          	blt	a3,a5,f6e8 <__subdf3+0x584>
    f204:	02000693          	li	a3,32
    f208:	40f686b3          	sub	a3,a3,a5
    f20c:	00d59533          	sll	a0,a1,a3
    f210:	00fed633          	srl	a2,t4,a5
    f214:	00de96b3          	sll	a3,t4,a3
    f218:	00c56533          	or	a0,a0,a2
    f21c:	00d036b3          	snez	a3,a3
    f220:	00f5d7b3          	srl	a5,a1,a5
    f224:	00d56533          	or	a0,a0,a3
    f228:	40f70733          	sub	a4,a4,a5
    f22c:	40a88533          	sub	a0,a7,a0
    f230:	00a8b633          	sltu	a2,a7,a0
    f234:	00050493          	mv	s1,a0
    f238:	40c70933          	sub	s2,a4,a2
    f23c:	00891793          	sll	a5,s2,0x8
    f240:	3407d863          	bgez	a5,f590 <__subdf3+0x42c>
    f244:	008007b7          	lui	a5,0x800
    f248:	fff78793          	add	a5,a5,-1 # 7fffff <__alt_data_end+0x7dffff>
    f24c:	00f97933          	and	s2,s2,a5
    f250:	2e090663          	beqz	s2,f53c <__subdf3+0x3d8>
    f254:	00090513          	mv	a0,s2
    f258:	3ad030ef          	jal	12e04 <__clzsi2>
    f25c:	ff850793          	add	a5,a0,-8
    f260:	02000693          	li	a3,32
    f264:	40f68733          	sub	a4,a3,a5
    f268:	00e4d733          	srl	a4,s1,a4
    f26c:	00f91933          	sll	s2,s2,a5
    f270:	01276733          	or	a4,a4,s2
    f274:	00f494b3          	sll	s1,s1,a5
    f278:	3f37c463          	blt	a5,s3,f660 <__subdf3+0x4fc>
    f27c:	413787b3          	sub	a5,a5,s3
    f280:	00178793          	add	a5,a5,1
    f284:	40f686b3          	sub	a3,a3,a5
    f288:	00d49633          	sll	a2,s1,a3
    f28c:	00f4d933          	srl	s2,s1,a5
    f290:	00c03633          	snez	a2,a2
    f294:	00c96633          	or	a2,s2,a2
    f298:	00d716b3          	sll	a3,a4,a3
    f29c:	00c6e4b3          	or	s1,a3,a2
    f2a0:	00f75933          	srl	s2,a4,a5
    f2a4:	00000993          	li	s3,0
    f2a8:	0074f793          	and	a5,s1,7
    f2ac:	02078063          	beqz	a5,f2cc <__subdf3+0x168>
    f2b0:	00f4f793          	and	a5,s1,15
    f2b4:	00400713          	li	a4,4
    f2b8:	00e78a63          	beq	a5,a4,f2cc <__subdf3+0x168>
    f2bc:	00448793          	add	a5,s1,4
    f2c0:	0097b533          	sltu	a0,a5,s1
    f2c4:	00a90933          	add	s2,s2,a0
    f2c8:	00078493          	mv	s1,a5
    f2cc:	00891793          	sll	a5,s2,0x8
    f2d0:	6c07d063          	bgez	a5,f990 <__subdf3+0x82c>
    f2d4:	00198793          	add	a5,s3,1
    f2d8:	7ff00713          	li	a4,2047
    f2dc:	24e78663          	beq	a5,a4,f528 <__subdf3+0x3c4>
    f2e0:	ff800737          	lui	a4,0xff800
    f2e4:	fff70713          	add	a4,a4,-1 # ff7fffff <__alt_data_end+0xff7dffff>
    f2e8:	00e97733          	and	a4,s2,a4
    f2ec:	7ff7f793          	and	a5,a5,2047
    f2f0:	01d71813          	sll	a6,a4,0x1d
    f2f4:	0034d513          	srl	a0,s1,0x3
    f2f8:	00971713          	sll	a4,a4,0x9
    f2fc:	00a86833          	or	a6,a6,a0
    f300:	00c75713          	srl	a4,a4,0xc
    f304:	00147e13          	and	t3,s0,1
    f308:	01c12083          	lw	ra,28(sp)
    f30c:	01812403          	lw	s0,24(sp)
    f310:	01479793          	sll	a5,a5,0x14
    f314:	00e7e7b3          	or	a5,a5,a4
    f318:	01fe1713          	sll	a4,t3,0x1f
    f31c:	00e7e7b3          	or	a5,a5,a4
    f320:	01412483          	lw	s1,20(sp)
    f324:	01012903          	lw	s2,16(sp)
    f328:	00c12983          	lw	s3,12(sp)
    f32c:	00080513          	mv	a0,a6
    f330:	00078593          	mv	a1,a5
    f334:	02010113          	add	sp,sp,32
    f338:	00008067          	ret
    f33c:	70f05263          	blez	a5,fa40 <__subdf3+0x8dc>
    f340:	1c0f1663          	bnez	t5,f50c <__subdf3+0x3a8>
    f344:	01d5e6b3          	or	a3,a1,t4
    f348:	26068e63          	beqz	a3,f5c4 <__subdf3+0x460>
    f34c:	fff78693          	add	a3,a5,-1
    f350:	46068863          	beqz	a3,f7c0 <__subdf3+0x65c>
    f354:	24678c63          	beq	a5,t1,f5ac <__subdf3+0x448>
    f358:	03800793          	li	a5,56
    f35c:	00100913          	li	s2,1
    f360:	02d7cc63          	blt	a5,a3,f398 <__subdf3+0x234>
    f364:	00068793          	mv	a5,a3
    f368:	01f00693          	li	a3,31
    f36c:	48f6ca63          	blt	a3,a5,f800 <__subdf3+0x69c>
    f370:	02000693          	li	a3,32
    f374:	40f686b3          	sub	a3,a3,a5
    f378:	00d59933          	sll	s2,a1,a3
    f37c:	00fed633          	srl	a2,t4,a5
    f380:	00de96b3          	sll	a3,t4,a3
    f384:	00c96933          	or	s2,s2,a2
    f388:	00d036b3          	snez	a3,a3
    f38c:	00f5d7b3          	srl	a5,a1,a5
    f390:	00d96933          	or	s2,s2,a3
    f394:	00f70733          	add	a4,a4,a5
    f398:	01190633          	add	a2,s2,a7
    f39c:	01263933          	sltu	s2,a2,s2
    f3a0:	00060493          	mv	s1,a2
    f3a4:	00e90933          	add	s2,s2,a4
    f3a8:	00891793          	sll	a5,s2,0x8
    f3ac:	1e07d263          	bgez	a5,f590 <__subdf3+0x42c>
    f3b0:	00198993          	add	s3,s3,1
    f3b4:	7ff00793          	li	a5,2047
    f3b8:	16f98863          	beq	s3,a5,f528 <__subdf3+0x3c4>
    f3bc:	ff8007b7          	lui	a5,0xff800
    f3c0:	fff78793          	add	a5,a5,-1 # ff7fffff <__alt_data_end+0xff7dffff>
    f3c4:	0014f513          	and	a0,s1,1
    f3c8:	00f977b3          	and	a5,s2,a5
    f3cc:	0014d713          	srl	a4,s1,0x1
    f3d0:	00a76733          	or	a4,a4,a0
    f3d4:	01f79513          	sll	a0,a5,0x1f
    f3d8:	00e564b3          	or	s1,a0,a4
    f3dc:	0017d913          	srl	s2,a5,0x1
    f3e0:	ec9ff06f          	j	f2a8 <__subdf3+0x144>
    f3e4:	01d5e833          	or	a6,a1,t4
    f3e8:	80198313          	add	t1,s3,-2047
    f3ec:	06080863          	beqz	a6,f45c <__subdf3+0x2f8>
    f3f0:	06d40a63          	beq	s0,a3,f464 <__subdf3+0x300>
    f3f4:	0e030463          	beqz	t1,f4dc <__subdf3+0x378>
    f3f8:	26098e63          	beqz	s3,f674 <__subdf3+0x510>
    f3fc:	00361513          	sll	a0,a2,0x3
    f400:	00355513          	srl	a0,a0,0x3
    f404:	00068413          	mv	s0,a3
    f408:	00058713          	mv	a4,a1
    f40c:	01d71813          	sll	a6,a4,0x1d
    f410:	00a86833          	or	a6,a6,a0
    f414:	00375713          	srl	a4,a4,0x3
    f418:	01076733          	or	a4,a4,a6
    f41c:	10070663          	beqz	a4,f528 <__subdf3+0x3c4>
    f420:	00000e13          	li	t3,0
    f424:	7ff00793          	li	a5,2047
    f428:	00080737          	lui	a4,0x80
    f42c:	00000813          	li	a6,0
    f430:	ed9ff06f          	j	f308 <__subdf3+0x1a4>
    f434:	01d5e6b3          	or	a3,a1,t4
    f438:	18068663          	beqz	a3,f5c4 <__subdf3+0x460>
    f43c:	fff78693          	add	a3,a5,-1
    f440:	3a068263          	beqz	a3,f7e4 <__subdf3+0x680>
    f444:	16678463          	beq	a5,t1,f5ac <__subdf3+0x448>
    f448:	03800793          	li	a5,56
    f44c:	00100513          	li	a0,1
    f450:	dcd7cee3          	blt	a5,a3,f22c <__subdf3+0xc8>
    f454:	00068793          	mv	a5,a3
    f458:	da5ff06f          	j	f1fc <__subdf3+0x98>
    f45c:	0016c693          	xor	a3,a3,1
    f460:	f8d41ae3          	bne	s0,a3,f3f4 <__subdf3+0x290>
    f464:	18030863          	beqz	t1,f5f4 <__subdf3+0x490>
    f468:	2c099063          	bnez	s3,f728 <__subdf3+0x5c4>
    f46c:	7ff00793          	li	a5,2047
    f470:	011766b3          	or	a3,a4,a7
    f474:	48068863          	beqz	a3,f904 <__subdf3+0x7a0>
    f478:	fff78693          	add	a3,a5,-1
    f47c:	34068263          	beqz	a3,f7c0 <__subdf3+0x65c>
    f480:	7ff00513          	li	a0,2047
    f484:	2aa78263          	beq	a5,a0,f728 <__subdf3+0x5c4>
    f488:	03800793          	li	a5,56
    f48c:	00100913          	li	s2,1
    f490:	02d7ca63          	blt	a5,a3,f4c4 <__subdf3+0x360>
    f494:	01f00793          	li	a5,31
    f498:	4cd7c663          	blt	a5,a3,f964 <__subdf3+0x800>
    f49c:	02000793          	li	a5,32
    f4a0:	40d787b3          	sub	a5,a5,a3
    f4a4:	00f71933          	sll	s2,a4,a5
    f4a8:	00d8d633          	srl	a2,a7,a3
    f4ac:	00f897b3          	sll	a5,a7,a5
    f4b0:	00c96933          	or	s2,s2,a2
    f4b4:	00f037b3          	snez	a5,a5
    f4b8:	00d756b3          	srl	a3,a4,a3
    f4bc:	00f96933          	or	s2,s2,a5
    f4c0:	00d585b3          	add	a1,a1,a3
    f4c4:	01d90733          	add	a4,s2,t4
    f4c8:	01273933          	sltu	s2,a4,s2
    f4cc:	00070493          	mv	s1,a4
    f4d0:	00b90933          	add	s2,s2,a1
    f4d4:	000f0993          	mv	s3,t5
    f4d8:	ed1ff06f          	j	f3a8 <__subdf3+0x244>
    f4dc:	00198793          	add	a5,s3,1
    f4e0:	7fe7f793          	and	a5,a5,2046
    f4e4:	14079463          	bnez	a5,f62c <__subdf3+0x4c8>
    f4e8:	01d5e833          	or	a6,a1,t4
    f4ec:	011767b3          	or	a5,a4,a7
    f4f0:	2a099463          	bnez	s3,f798 <__subdf3+0x634>
    f4f4:	38078e63          	beqz	a5,f890 <__subdf3+0x72c>
    f4f8:	3c081063          	bnez	a6,f8b8 <__subdf3+0x754>
    f4fc:	00351513          	sll	a0,a0,0x3
    f500:	00355913          	srl	s2,a0,0x3
    f504:	00000793          	li	a5,0
    f508:	1140006f          	j	f61c <__subdf3+0x4b8>
    f50c:	0a698063          	beq	s3,t1,f5ac <__subdf3+0x448>
    f510:	03800693          	li	a3,56
    f514:	00100913          	li	s2,1
    f518:	e8f6c0e3          	blt	a3,a5,f398 <__subdf3+0x234>
    f51c:	008006b7          	lui	a3,0x800
    f520:	00d5e5b3          	or	a1,a1,a3
    f524:	e45ff06f          	j	f368 <__subdf3+0x204>
    f528:	00147e13          	and	t3,s0,1
    f52c:	7ff00793          	li	a5,2047
    f530:	00000713          	li	a4,0
    f534:	00000813          	li	a6,0
    f538:	dd1ff06f          	j	f308 <__subdf3+0x1a4>
    f53c:	00048513          	mv	a0,s1
    f540:	0c5030ef          	jal	12e04 <__clzsi2>
    f544:	01850793          	add	a5,a0,24
    f548:	01f00693          	li	a3,31
    f54c:	d0f6dae3          	bge	a3,a5,f260 <__subdf3+0xfc>
    f550:	ff850713          	add	a4,a0,-8
    f554:	00e49733          	sll	a4,s1,a4
    f558:	1b37ce63          	blt	a5,s3,f714 <__subdf3+0x5b0>
    f55c:	413789b3          	sub	s3,a5,s3
    f560:	00198793          	add	a5,s3,1
    f564:	42f6de63          	bge	a3,a5,f9a0 <__subdf3+0x83c>
    f568:	fe198993          	add	s3,s3,-31
    f56c:	02000693          	li	a3,32
    f570:	013754b3          	srl	s1,a4,s3
    f574:	00d78c63          	beq	a5,a3,f58c <__subdf3+0x428>
    f578:	04000693          	li	a3,64
    f57c:	40f687b3          	sub	a5,a3,a5
    f580:	00f71733          	sll	a4,a4,a5
    f584:	00e03733          	snez	a4,a4
    f588:	00e4e4b3          	or	s1,s1,a4
    f58c:	00000993          	li	s3,0
    f590:	0074f793          	and	a5,s1,7
    f594:	d0079ee3          	bnez	a5,f2b0 <__subdf3+0x14c>
    f598:	00098793          	mv	a5,s3
    f59c:	0034d513          	srl	a0,s1,0x3
    f5a0:	00090713          	mv	a4,s2
    f5a4:	0280006f          	j	f5cc <__subdf3+0x468>
    f5a8:	e6081ce3          	bnez	a6,f420 <__subdf3+0x2bc>
    f5ac:	00351513          	sll	a0,a0,0x3
    f5b0:	01d71813          	sll	a6,a4,0x1d
    f5b4:	00355513          	srl	a0,a0,0x3
    f5b8:	00a86833          	or	a6,a6,a0
    f5bc:	00375713          	srl	a4,a4,0x3
    f5c0:	e59ff06f          	j	f418 <__subdf3+0x2b4>
    f5c4:	00351513          	sll	a0,a0,0x3
    f5c8:	00355513          	srl	a0,a0,0x3
    f5cc:	01d71813          	sll	a6,a4,0x1d
    f5d0:	7ff00693          	li	a3,2047
    f5d4:	00a86833          	or	a6,a6,a0
    f5d8:	00375713          	srl	a4,a4,0x3
    f5dc:	e2d78ee3          	beq	a5,a3,f418 <__subdf3+0x2b4>
    f5e0:	00c71713          	sll	a4,a4,0xc
    f5e4:	00c75713          	srl	a4,a4,0xc
    f5e8:	7ff7f793          	and	a5,a5,2047
    f5ec:	00147e13          	and	t3,s0,1
    f5f0:	d19ff06f          	j	f308 <__subdf3+0x1a4>
    f5f4:	00198693          	add	a3,s3,1
    f5f8:	7fe6f793          	and	a5,a3,2046
    f5fc:	12079e63          	bnez	a5,f738 <__subdf3+0x5d4>
    f600:	011767b3          	or	a5,a4,a7
    f604:	24099a63          	bnez	s3,f858 <__subdf3+0x6f4>
    f608:	30078663          	beqz	a5,f914 <__subdf3+0x7b0>
    f60c:	01d5e7b3          	or	a5,a1,t4
    f610:	30079a63          	bnez	a5,f924 <__subdf3+0x7c0>
    f614:	00351513          	sll	a0,a0,0x3
    f618:	00355913          	srl	s2,a0,0x3
    f61c:	01d71813          	sll	a6,a4,0x1d
    f620:	01286833          	or	a6,a6,s2
    f624:	00375713          	srl	a4,a4,0x3
    f628:	fb9ff06f          	j	f5e0 <__subdf3+0x47c>
    f62c:	41d88833          	sub	a6,a7,t4
    f630:	0108b7b3          	sltu	a5,a7,a6
    f634:	40b70933          	sub	s2,a4,a1
    f638:	40f90933          	sub	s2,s2,a5
    f63c:	00891793          	sll	a5,s2,0x8
    f640:	00080493          	mv	s1,a6
    f644:	1207c263          	bltz	a5,f768 <__subdf3+0x604>
    f648:	01286833          	or	a6,a6,s2
    f64c:	c00812e3          	bnez	a6,f250 <__subdf3+0xec>
    f650:	00000e13          	li	t3,0
    f654:	00000793          	li	a5,0
    f658:	00000713          	li	a4,0
    f65c:	cadff06f          	j	f308 <__subdf3+0x1a4>
    f660:	ff800937          	lui	s2,0xff800
    f664:	fff90913          	add	s2,s2,-1 # ff7fffff <__alt_data_end+0xff7dffff>
    f668:	40f989b3          	sub	s3,s3,a5
    f66c:	01277933          	and	s2,a4,s2
    f670:	c39ff06f          	j	f2a8 <__subdf3+0x144>
    f674:	7ff00793          	li	a5,2047
    f678:	01176533          	or	a0,a4,a7
    f67c:	10050463          	beqz	a0,f784 <__subdf3+0x620>
    f680:	fff78813          	add	a6,a5,-1
    f684:	1e080263          	beqz	a6,f868 <__subdf3+0x704>
    f688:	7ff00513          	li	a0,2047
    f68c:	d6a788e3          	beq	a5,a0,f3fc <__subdf3+0x298>
    f690:	03800793          	li	a5,56
    f694:	00068413          	mv	s0,a3
    f698:	00100513          	li	a0,1
    f69c:	0307ca63          	blt	a5,a6,f6d0 <__subdf3+0x56c>
    f6a0:	01f00793          	li	a5,31
    f6a4:	1907c463          	blt	a5,a6,f82c <__subdf3+0x6c8>
    f6a8:	02000793          	li	a5,32
    f6ac:	410787b3          	sub	a5,a5,a6
    f6b0:	00f71533          	sll	a0,a4,a5
    f6b4:	0108d6b3          	srl	a3,a7,a6
    f6b8:	00f897b3          	sll	a5,a7,a5
    f6bc:	00d56533          	or	a0,a0,a3
    f6c0:	00f037b3          	snez	a5,a5
    f6c4:	01075833          	srl	a6,a4,a6
    f6c8:	00f56533          	or	a0,a0,a5
    f6cc:	410585b3          	sub	a1,a1,a6
    f6d0:	40ae8533          	sub	a0,t4,a0
    f6d4:	00aeb733          	sltu	a4,t4,a0
    f6d8:	00050493          	mv	s1,a0
    f6dc:	40e58933          	sub	s2,a1,a4
    f6e0:	000f0993          	mv	s3,t5
    f6e4:	b59ff06f          	j	f23c <__subdf3+0xd8>
    f6e8:	fe078693          	add	a3,a5,-32
    f6ec:	02000613          	li	a2,32
    f6f0:	00d5d6b3          	srl	a3,a1,a3
    f6f4:	00c78a63          	beq	a5,a2,f708 <__subdf3+0x5a4>
    f6f8:	04000613          	li	a2,64
    f6fc:	40f607b3          	sub	a5,a2,a5
    f700:	00f597b3          	sll	a5,a1,a5
    f704:	00feeeb3          	or	t4,t4,a5
    f708:	01d03533          	snez	a0,t4
    f70c:	00d56533          	or	a0,a0,a3
    f710:	b1dff06f          	j	f22c <__subdf3+0xc8>
    f714:	ff8006b7          	lui	a3,0xff800
    f718:	fff68693          	add	a3,a3,-1 # ff7fffff <__alt_data_end+0xff7dffff>
    f71c:	40f987b3          	sub	a5,s3,a5
    f720:	00d77733          	and	a4,a4,a3
    f724:	ef9ff06f          	j	f61c <__subdf3+0x4b8>
    f728:	00361513          	sll	a0,a2,0x3
    f72c:	00355513          	srl	a0,a0,0x3
    f730:	00058713          	mv	a4,a1
    f734:	cd9ff06f          	j	f40c <__subdf3+0x2a8>
    f738:	7ff00793          	li	a5,2047
    f73c:	def686e3          	beq	a3,a5,f528 <__subdf3+0x3c4>
    f740:	01d88eb3          	add	t4,a7,t4
    f744:	011eb633          	sltu	a2,t4,a7
    f748:	00b707b3          	add	a5,a4,a1
    f74c:	00c787b3          	add	a5,a5,a2
    f750:	01f79513          	sll	a0,a5,0x1f
    f754:	001ede93          	srl	t4,t4,0x1
    f758:	01d564b3          	or	s1,a0,t4
    f75c:	0017d913          	srl	s2,a5,0x1
    f760:	00068993          	mv	s3,a3
    f764:	b45ff06f          	j	f2a8 <__subdf3+0x144>
    f768:	411e8633          	sub	a2,t4,a7
    f76c:	40e587b3          	sub	a5,a1,a4
    f770:	00ceb733          	sltu	a4,t4,a2
    f774:	00060493          	mv	s1,a2
    f778:	40e78933          	sub	s2,a5,a4
    f77c:	00068413          	mv	s0,a3
    f780:	ad1ff06f          	j	f250 <__subdf3+0xec>
    f784:	00361613          	sll	a2,a2,0x3
    f788:	00365513          	srl	a0,a2,0x3
    f78c:	00068413          	mv	s0,a3
    f790:	00058713          	mv	a4,a1
    f794:	e39ff06f          	j	f5cc <__subdf3+0x468>
    f798:	e00798e3          	bnez	a5,f5a8 <__subdf3+0x444>
    f79c:	22080663          	beqz	a6,f9c8 <__subdf3+0x864>
    f7a0:	0035d713          	srl	a4,a1,0x3
    f7a4:	00361613          	sll	a2,a2,0x3
    f7a8:	01d59593          	sll	a1,a1,0x1d
    f7ac:	00b76733          	or	a4,a4,a1
    f7b0:	00365613          	srl	a2,a2,0x3
    f7b4:	00c76733          	or	a4,a4,a2
    f7b8:	00068413          	mv	s0,a3
    f7bc:	c61ff06f          	j	f41c <__subdf3+0x2b8>
    f7c0:	01d88eb3          	add	t4,a7,t4
    f7c4:	00b705b3          	add	a1,a4,a1
    f7c8:	011eb633          	sltu	a2,t4,a7
    f7cc:	00c58933          	add	s2,a1,a2
    f7d0:	00891793          	sll	a5,s2,0x8
    f7d4:	000e8493          	mv	s1,t4
    f7d8:	0a07d863          	bgez	a5,f888 <__subdf3+0x724>
    f7dc:	00200993          	li	s3,2
    f7e0:	bddff06f          	j	f3bc <__subdf3+0x258>
    f7e4:	41d88eb3          	sub	t4,a7,t4
    f7e8:	40b705b3          	sub	a1,a4,a1
    f7ec:	01d8b633          	sltu	a2,a7,t4
    f7f0:	000e8493          	mv	s1,t4
    f7f4:	40c58933          	sub	s2,a1,a2
    f7f8:	00100993          	li	s3,1
    f7fc:	a41ff06f          	j	f23c <__subdf3+0xd8>
    f800:	fe078693          	add	a3,a5,-32
    f804:	02000613          	li	a2,32
    f808:	00d5d6b3          	srl	a3,a1,a3
    f80c:	00c78a63          	beq	a5,a2,f820 <__subdf3+0x6bc>
    f810:	04000613          	li	a2,64
    f814:	40f607b3          	sub	a5,a2,a5
    f818:	00f597b3          	sll	a5,a1,a5
    f81c:	00feeeb3          	or	t4,t4,a5
    f820:	01d03933          	snez	s2,t4
    f824:	00d96933          	or	s2,s2,a3
    f828:	b71ff06f          	j	f398 <__subdf3+0x234>
    f82c:	fe080793          	add	a5,a6,-32
    f830:	02000693          	li	a3,32
    f834:	00f757b3          	srl	a5,a4,a5
    f838:	00d80a63          	beq	a6,a3,f84c <__subdf3+0x6e8>
    f83c:	04000693          	li	a3,64
    f840:	410686b3          	sub	a3,a3,a6
    f844:	00d71733          	sll	a4,a4,a3
    f848:	00e8e8b3          	or	a7,a7,a4
    f84c:	01103533          	snez	a0,a7
    f850:	00f56533          	or	a0,a0,a5
    f854:	e7dff06f          	j	f6d0 <__subdf3+0x56c>
    f858:	ec0788e3          	beqz	a5,f728 <__subdf3+0x5c4>
    f85c:	01d5eeb3          	or	t4,a1,t4
    f860:	bc0e90e3          	bnez	t4,f420 <__subdf3+0x2bc>
    f864:	d49ff06f          	j	f5ac <__subdf3+0x448>
    f868:	411e8633          	sub	a2,t4,a7
    f86c:	40e585b3          	sub	a1,a1,a4
    f870:	00ceb733          	sltu	a4,t4,a2
    f874:	00060493          	mv	s1,a2
    f878:	40e58933          	sub	s2,a1,a4
    f87c:	00068413          	mv	s0,a3
    f880:	00100993          	li	s3,1
    f884:	9b9ff06f          	j	f23c <__subdf3+0xd8>
    f888:	00100793          	li	a5,1
    f88c:	d11ff06f          	j	f59c <__subdf3+0x438>
    f890:	dc0800e3          	beqz	a6,f650 <__subdf3+0x4ec>
    f894:	00361613          	sll	a2,a2,0x3
    f898:	00365793          	srl	a5,a2,0x3
    f89c:	01d59813          	sll	a6,a1,0x1d
    f8a0:	00959713          	sll	a4,a1,0x9
    f8a4:	00f86833          	or	a6,a6,a5
    f8a8:	00c75713          	srl	a4,a4,0xc
    f8ac:	00068e13          	mv	t3,a3
    f8b0:	00000793          	li	a5,0
    f8b4:	a55ff06f          	j	f308 <__subdf3+0x1a4>
    f8b8:	41d88933          	sub	s2,a7,t4
    f8bc:	0128b7b3          	sltu	a5,a7,s2
    f8c0:	40b70633          	sub	a2,a4,a1
    f8c4:	40f60633          	sub	a2,a2,a5
    f8c8:	00861793          	sll	a5,a2,0x8
    f8cc:	0e07d263          	bgez	a5,f9b0 <__subdf3+0x84c>
    f8d0:	411e8633          	sub	a2,t4,a7
    f8d4:	40e58733          	sub	a4,a1,a4
    f8d8:	00cebeb3          	sltu	t4,t4,a2
    f8dc:	41d70733          	sub	a4,a4,t4
    f8e0:	00871793          	sll	a5,a4,0x8
    f8e4:	00060493          	mv	s1,a2
    f8e8:	1207de63          	bgez	a5,fa24 <__subdf3+0x8c0>
    f8ec:	ff8007b7          	lui	a5,0xff800
    f8f0:	fff78793          	add	a5,a5,-1 # ff7fffff <__alt_data_end+0xff7dffff>
    f8f4:	00f77733          	and	a4,a4,a5
    f8f8:	00068413          	mv	s0,a3
    f8fc:	00100793          	li	a5,1
    f900:	9f1ff06f          	j	f2f0 <__subdf3+0x18c>
    f904:	00361613          	sll	a2,a2,0x3
    f908:	00365513          	srl	a0,a2,0x3
    f90c:	00058713          	mv	a4,a1
    f910:	cbdff06f          	j	f5cc <__subdf3+0x468>
    f914:	00361613          	sll	a2,a2,0x3
    f918:	00365913          	srl	s2,a2,0x3
    f91c:	00058713          	mv	a4,a1
    f920:	cfdff06f          	j	f61c <__subdf3+0x4b8>
    f924:	01d886b3          	add	a3,a7,t4
    f928:	00b707b3          	add	a5,a4,a1
    f92c:	0116b633          	sltu	a2,a3,a7
    f930:	00c787b3          	add	a5,a5,a2
    f934:	00879713          	sll	a4,a5,0x8
    f938:	0036d813          	srl	a6,a3,0x3
    f93c:	08075e63          	bgez	a4,f9d8 <__subdf3+0x874>
    f940:	ff800737          	lui	a4,0xff800
    f944:	fff70713          	add	a4,a4,-1 # ff7fffff <__alt_data_end+0xff7dffff>
    f948:	00e7f7b3          	and	a5,a5,a4
    f94c:	01d79713          	sll	a4,a5,0x1d
    f950:	00979793          	sll	a5,a5,0x9
    f954:	01076833          	or	a6,a4,a6
    f958:	00c7d713          	srl	a4,a5,0xc
    f95c:	00100793          	li	a5,1
    f960:	9a9ff06f          	j	f308 <__subdf3+0x1a4>
    f964:	fe068793          	add	a5,a3,-32
    f968:	02000613          	li	a2,32
    f96c:	00f757b3          	srl	a5,a4,a5
    f970:	00c68a63          	beq	a3,a2,f984 <__subdf3+0x820>
    f974:	04000613          	li	a2,64
    f978:	40d606b3          	sub	a3,a2,a3
    f97c:	00d71733          	sll	a4,a4,a3
    f980:	00e8e8b3          	or	a7,a7,a4
    f984:	01103933          	snez	s2,a7
    f988:	00f96933          	or	s2,s2,a5
    f98c:	b39ff06f          	j	f4c4 <__subdf3+0x360>
    f990:	0034d513          	srl	a0,s1,0x3
    f994:	00098793          	mv	a5,s3
    f998:	00090713          	mv	a4,s2
    f99c:	c31ff06f          	j	f5cc <__subdf3+0x468>
    f9a0:	02000693          	li	a3,32
    f9a4:	40f686b3          	sub	a3,a3,a5
    f9a8:	00000613          	li	a2,0
    f9ac:	8e9ff06f          	j	f294 <__subdf3+0x130>
    f9b0:	00c96833          	or	a6,s2,a2
    f9b4:	c8080ee3          	beqz	a6,f650 <__subdf3+0x4ec>
    f9b8:	00395913          	srl	s2,s2,0x3
    f9bc:	00000793          	li	a5,0
    f9c0:	00060713          	mv	a4,a2
    f9c4:	c59ff06f          	j	f61c <__subdf3+0x4b8>
    f9c8:	00000e13          	li	t3,0
    f9cc:	7ff00793          	li	a5,2047
    f9d0:	00080737          	lui	a4,0x80
    f9d4:	935ff06f          	j	f308 <__subdf3+0x1a4>
    f9d8:	01d79713          	sll	a4,a5,0x1d
    f9dc:	00979793          	sll	a5,a5,0x9
    f9e0:	01076833          	or	a6,a4,a6
    f9e4:	00c7d713          	srl	a4,a5,0xc
    f9e8:	00000793          	li	a5,0
    f9ec:	91dff06f          	j	f308 <__subdf3+0x1a4>
    f9f0:	ae0786e3          	beqz	a5,f4dc <__subdf3+0x378>
    f9f4:	413f0833          	sub	a6,t5,s3
    f9f8:	00080793          	mv	a5,a6
    f9fc:	c6098ee3          	beqz	s3,f678 <__subdf3+0x514>
    fa00:	03800793          	li	a5,56
    fa04:	0107ca63          	blt	a5,a6,fa18 <__subdf3+0x8b4>
    fa08:	008007b7          	lui	a5,0x800
    fa0c:	00f76733          	or	a4,a4,a5
    fa10:	00068413          	mv	s0,a3
    fa14:	c8dff06f          	j	f6a0 <__subdf3+0x53c>
    fa18:	00068413          	mv	s0,a3
    fa1c:	00100513          	li	a0,1
    fa20:	cb1ff06f          	j	f6d0 <__subdf3+0x56c>
    fa24:	01d71813          	sll	a6,a4,0x1d
    fa28:	00365613          	srl	a2,a2,0x3
    fa2c:	00c86833          	or	a6,a6,a2
    fa30:	00375713          	srl	a4,a4,0x3
    fa34:	00000793          	li	a5,0
    fa38:	00068413          	mv	s0,a3
    fa3c:	ba5ff06f          	j	f5e0 <__subdf3+0x47c>
    fa40:	ba078ae3          	beqz	a5,f5f4 <__subdf3+0x490>
    fa44:	413f06b3          	sub	a3,t5,s3
    fa48:	00099663          	bnez	s3,fa54 <__subdf3+0x8f0>
    fa4c:	00068793          	mv	a5,a3
    fa50:	a21ff06f          	j	f470 <__subdf3+0x30c>
    fa54:	03800793          	li	a5,56
    fa58:	00100913          	li	s2,1
    fa5c:	a6d7c4e3          	blt	a5,a3,f4c4 <__subdf3+0x360>
    fa60:	008007b7          	lui	a5,0x800
    fa64:	00f76733          	or	a4,a4,a5
    fa68:	a2dff06f          	j	f494 <__subdf3+0x330>

0000fa6c <__fixdfsi>:
    fa6c:	0145d793          	srl	a5,a1,0x14
    fa70:	001006b7          	lui	a3,0x100
    fa74:	fff68713          	add	a4,a3,-1 # fffff <__alt_data_end+0xdffff>
    fa78:	7ff7f793          	and	a5,a5,2047
    fa7c:	3fe00613          	li	a2,1022
    fa80:	00b77733          	and	a4,a4,a1
    fa84:	01f5d593          	srl	a1,a1,0x1f
    fa88:	00f65e63          	bge	a2,a5,faa4 <__fixdfsi+0x38>
    fa8c:	41d00613          	li	a2,1053
    fa90:	00f65e63          	bge	a2,a5,faac <__fixdfsi+0x40>
    fa94:	80000537          	lui	a0,0x80000
    fa98:	fff50513          	add	a0,a0,-1 # 7fffffff <__alt_data_end+0x7ffdffff>
    fa9c:	00a58533          	add	a0,a1,a0
    faa0:	00008067          	ret
    faa4:	00000513          	li	a0,0
    faa8:	00008067          	ret
    faac:	43300613          	li	a2,1075
    fab0:	40f60633          	sub	a2,a2,a5
    fab4:	01f00813          	li	a6,31
    fab8:	00d76733          	or	a4,a4,a3
    fabc:	02c85063          	bge	a6,a2,fadc <__fixdfsi+0x70>
    fac0:	41300693          	li	a3,1043
    fac4:	40f687b3          	sub	a5,a3,a5
    fac8:	00f75733          	srl	a4,a4,a5
    facc:	40e00533          	neg	a0,a4
    fad0:	fc059ce3          	bnez	a1,faa8 <__fixdfsi+0x3c>
    fad4:	00070513          	mv	a0,a4
    fad8:	00008067          	ret
    fadc:	bed78793          	add	a5,a5,-1043 # 7ffbed <__alt_data_end+0x7dfbed>
    fae0:	00f71733          	sll	a4,a4,a5
    fae4:	00c55533          	srl	a0,a0,a2
    fae8:	00a76733          	or	a4,a4,a0
    faec:	fe1ff06f          	j	facc <__fixdfsi+0x60>

0000faf0 <__floatsidf>:
    faf0:	ff010113          	add	sp,sp,-16
    faf4:	00112623          	sw	ra,12(sp)
    faf8:	00812423          	sw	s0,8(sp)
    fafc:	00912223          	sw	s1,4(sp)
    fb00:	04050a63          	beqz	a0,fb54 <__floatsidf+0x64>
    fb04:	41f55713          	sra	a4,a0,0x1f
    fb08:	00a744b3          	xor	s1,a4,a0
    fb0c:	40e484b3          	sub	s1,s1,a4
    fb10:	00050793          	mv	a5,a0
    fb14:	00048513          	mv	a0,s1
    fb18:	01f7d413          	srl	s0,a5,0x1f
    fb1c:	2e8030ef          	jal	12e04 <__clzsi2>
    fb20:	41e00793          	li	a5,1054
    fb24:	40a787b3          	sub	a5,a5,a0
    fb28:	00a00713          	li	a4,10
    fb2c:	7ff7f793          	and	a5,a5,2047
    fb30:	06a74063          	blt	a4,a0,fb90 <__floatsidf+0xa0>
    fb34:	00b00713          	li	a4,11
    fb38:	40a70733          	sub	a4,a4,a0
    fb3c:	00e4d733          	srl	a4,s1,a4
    fb40:	01550513          	add	a0,a0,21
    fb44:	00c71713          	sll	a4,a4,0xc
    fb48:	00a494b3          	sll	s1,s1,a0
    fb4c:	00c75713          	srl	a4,a4,0xc
    fb50:	0140006f          	j	fb64 <__floatsidf+0x74>
    fb54:	00000413          	li	s0,0
    fb58:	00000793          	li	a5,0
    fb5c:	00000713          	li	a4,0
    fb60:	00000493          	li	s1,0
    fb64:	01479793          	sll	a5,a5,0x14
    fb68:	01f41413          	sll	s0,s0,0x1f
    fb6c:	00e7e7b3          	or	a5,a5,a4
    fb70:	00c12083          	lw	ra,12(sp)
    fb74:	0087e7b3          	or	a5,a5,s0
    fb78:	00812403          	lw	s0,8(sp)
    fb7c:	00048513          	mv	a0,s1
    fb80:	00078593          	mv	a1,a5
    fb84:	00412483          	lw	s1,4(sp)
    fb88:	01010113          	add	sp,sp,16
    fb8c:	00008067          	ret
    fb90:	ff550513          	add	a0,a0,-11
    fb94:	00a49733          	sll	a4,s1,a0
    fb98:	00c71713          	sll	a4,a4,0xc
    fb9c:	00c75713          	srl	a4,a4,0xc
    fba0:	00000493          	li	s1,0
    fba4:	fc1ff06f          	j	fb64 <__floatsidf+0x74>

0000fba8 <__eqtf2>:
    fba8:	00c52703          	lw	a4,12(a0)
    fbac:	00c5a683          	lw	a3,12(a1)
    fbb0:	000087b7          	lui	a5,0x8
    fbb4:	fff78793          	add	a5,a5,-1 # 7fff <_ldcheck+0x23>
    fbb8:	01075613          	srl	a2,a4,0x10
    fbbc:	0106d813          	srl	a6,a3,0x10
    fbc0:	01071293          	sll	t0,a4,0x10
    fbc4:	01069393          	sll	t2,a3,0x10
    fbc8:	00f67633          	and	a2,a2,a5
    fbcc:	00052883          	lw	a7,0(a0)
    fbd0:	00452e03          	lw	t3,4(a0)
    fbd4:	00852f03          	lw	t5,8(a0)
    fbd8:	0005a303          	lw	t1,0(a1)
    fbdc:	0045ae83          	lw	t4,4(a1)
    fbe0:	0085af83          	lw	t6,8(a1)
    fbe4:	ff010113          	add	sp,sp,-16
    fbe8:	0102d293          	srl	t0,t0,0x10
    fbec:	01f75713          	srl	a4,a4,0x1f
    fbf0:	0103d393          	srl	t2,t2,0x10
    fbf4:	00f875b3          	and	a1,a6,a5
    fbf8:	01f6d693          	srl	a3,a3,0x1f
    fbfc:	00100513          	li	a0,1
    fc00:	00f60c63          	beq	a2,a5,fc18 <__eqtf2+0x70>
    fc04:	00f58663          	beq	a1,a5,fc10 <__eqtf2+0x68>
    fc08:	00c59463          	bne	a1,a2,fc10 <__eqtf2+0x68>
    fc0c:	02688e63          	beq	a7,t1,fc48 <__eqtf2+0xa0>
    fc10:	01010113          	add	sp,sp,16
    fc14:	00008067          	ret
    fc18:	fec59ce3          	bne	a1,a2,fc10 <__eqtf2+0x68>
    fc1c:	01c8e7b3          	or	a5,a7,t3
    fc20:	01e7e7b3          	or	a5,a5,t5
    fc24:	0057e7b3          	or	a5,a5,t0
    fc28:	0067e7b3          	or	a5,a5,t1
    fc2c:	01d7e7b3          	or	a5,a5,t4
    fc30:	01f7e7b3          	or	a5,a5,t6
    fc34:	0077e7b3          	or	a5,a5,t2
    fc38:	fc079ce3          	bnez	a5,fc10 <__eqtf2+0x68>
    fc3c:	40d70733          	sub	a4,a4,a3
    fc40:	00e03533          	snez	a0,a4
    fc44:	fcdff06f          	j	fc10 <__eqtf2+0x68>
    fc48:	fdde14e3          	bne	t3,t4,fc10 <__eqtf2+0x68>
    fc4c:	fdff12e3          	bne	t5,t6,fc10 <__eqtf2+0x68>
    fc50:	fc7290e3          	bne	t0,t2,fc10 <__eqtf2+0x68>
    fc54:	00d70e63          	beq	a4,a3,fc70 <__eqtf2+0xc8>
    fc58:	fa059ce3          	bnez	a1,fc10 <__eqtf2+0x68>
    fc5c:	01c8e7b3          	or	a5,a7,t3
    fc60:	01e7e7b3          	or	a5,a5,t5
    fc64:	0057e7b3          	or	a5,a5,t0
    fc68:	00f03533          	snez	a0,a5
    fc6c:	fa5ff06f          	j	fc10 <__eqtf2+0x68>
    fc70:	00000513          	li	a0,0
    fc74:	f9dff06f          	j	fc10 <__eqtf2+0x68>

0000fc78 <__getf2>:
    fc78:	00c52303          	lw	t1,12(a0)
    fc7c:	00c5a883          	lw	a7,12(a1)
    fc80:	000087b7          	lui	a5,0x8
    fc84:	fff78793          	add	a5,a5,-1 # 7fff <_ldcheck+0x23>
    fc88:	01035613          	srl	a2,t1,0x10
    fc8c:	0108d713          	srl	a4,a7,0x10
    fc90:	01031f13          	sll	t5,t1,0x10
    fc94:	0005a683          	lw	a3,0(a1)
    fc98:	0045ae83          	lw	t4,4(a1)
    fc9c:	0085ae03          	lw	t3,8(a1)
    fca0:	00f67633          	and	a2,a2,a5
    fca4:	01089593          	sll	a1,a7,0x10
    fca8:	00052283          	lw	t0,0(a0)
    fcac:	00452803          	lw	a6,4(a0)
    fcb0:	00852f83          	lw	t6,8(a0)
    fcb4:	ff010113          	add	sp,sp,-16
    fcb8:	010f5f13          	srl	t5,t5,0x10
    fcbc:	01f35313          	srl	t1,t1,0x1f
    fcc0:	0105d593          	srl	a1,a1,0x10
    fcc4:	00f77533          	and	a0,a4,a5
    fcc8:	01f8d893          	srl	a7,a7,0x1f
    fccc:	06f60a63          	beq	a2,a5,fd40 <__getf2+0xc8>
    fcd0:	02f50e63          	beq	a0,a5,fd0c <__getf2+0x94>
    fcd4:	0c061c63          	bnez	a2,fdac <__getf2+0x134>
    fcd8:	005867b3          	or	a5,a6,t0
    fcdc:	01f7e7b3          	or	a5,a5,t6
    fce0:	01e7e7b3          	or	a5,a5,t5
    fce4:	0e051263          	bnez	a0,fdc8 <__getf2+0x150>
    fce8:	01d6e733          	or	a4,a3,t4
    fcec:	01c76733          	or	a4,a4,t3
    fcf0:	00b76733          	or	a4,a4,a1
    fcf4:	06071e63          	bnez	a4,fd70 <__getf2+0xf8>
    fcf8:	00078663          	beqz	a5,fd04 <__getf2+0x8c>
    fcfc:	02031e63          	bnez	t1,fd38 <__getf2+0xc0>
    fd00:	00100513          	li	a0,1
    fd04:	01010113          	add	sp,sp,16
    fd08:	00008067          	ret
    fd0c:	01d6e6b3          	or	a3,a3,t4
    fd10:	01c6e6b3          	or	a3,a3,t3
    fd14:	00b6e6b3          	or	a3,a3,a1
    fd18:	0a069463          	bnez	a3,fdc0 <__getf2+0x148>
    fd1c:	08061463          	bnez	a2,fda4 <__getf2+0x12c>
    fd20:	00586833          	or	a6,a6,t0
    fd24:	01f86833          	or	a6,a6,t6
    fd28:	01e86833          	or	a6,a6,t5
    fd2c:	06081c63          	bnez	a6,fda4 <__getf2+0x12c>
    fd30:	00100513          	li	a0,1
    fd34:	fc0898e3          	bnez	a7,fd04 <__getf2+0x8c>
    fd38:	fff00513          	li	a0,-1
    fd3c:	fc9ff06f          	j	fd04 <__getf2+0x8c>
    fd40:	00586833          	or	a6,a6,t0
    fd44:	01f86833          	or	a6,a6,t6
    fd48:	01e86833          	or	a6,a6,t5
    fd4c:	06081a63          	bnez	a6,fdc0 <__getf2+0x148>
    fd50:	fac516e3          	bne	a0,a2,fcfc <__getf2+0x84>
    fd54:	01d6e6b3          	or	a3,a3,t4
    fd58:	01c6e6b3          	or	a3,a3,t3
    fd5c:	00b6e6b3          	or	a3,a3,a1
    fd60:	06069063          	bnez	a3,fdc0 <__getf2+0x148>
    fd64:	f8689ce3          	bne	a7,t1,fcfc <__getf2+0x84>
    fd68:	00000513          	li	a0,0
    fd6c:	f99ff06f          	j	fd04 <__getf2+0x8c>
    fd70:	fc0780e3          	beqz	a5,fd30 <__getf2+0xb8>
    fd74:	f86894e3          	bne	a7,t1,fcfc <__getf2+0x84>
    fd78:	f9e5e2e3          	bltu	a1,t5,fcfc <__getf2+0x84>
    fd7c:	00bf1e63          	bne	t5,a1,fd98 <__getf2+0x120>
    fd80:	f7fe6ee3          	bltu	t3,t6,fcfc <__getf2+0x84>
    fd84:	01cf9a63          	bne	t6,t3,fd98 <__getf2+0x120>
    fd88:	f70eeae3          	bltu	t4,a6,fcfc <__getf2+0x84>
    fd8c:	01d81663          	bne	a6,t4,fd98 <__getf2+0x120>
    fd90:	f656e6e3          	bltu	a3,t0,fcfc <__getf2+0x84>
    fd94:	fcd2fae3          	bgeu	t0,a3,fd68 <__getf2+0xf0>
    fd98:	00100513          	li	a0,1
    fd9c:	f60314e3          	bnez	t1,fd04 <__getf2+0x8c>
    fda0:	f99ff06f          	j	fd38 <__getf2+0xc0>
    fda4:	f4689ce3          	bne	a7,t1,fcfc <__getf2+0x84>
    fda8:	ff1ff06f          	j	fd98 <__getf2+0x120>
    fdac:	f40508e3          	beqz	a0,fcfc <__getf2+0x84>
    fdb0:	f46896e3          	bne	a7,t1,fcfc <__getf2+0x84>
    fdb4:	f4c544e3          	blt	a0,a2,fcfc <__getf2+0x84>
    fdb8:	fca650e3          	bge	a2,a0,fd78 <__getf2+0x100>
    fdbc:	fddff06f          	j	fd98 <__getf2+0x120>
    fdc0:	ffe00513          	li	a0,-2
    fdc4:	f41ff06f          	j	fd04 <__getf2+0x8c>
    fdc8:	f60784e3          	beqz	a5,fd30 <__getf2+0xb8>
    fdcc:	f26898e3          	bne	a7,t1,fcfc <__getf2+0x84>
    fdd0:	faa654e3          	bge	a2,a0,fd78 <__getf2+0x100>
    fdd4:	fc5ff06f          	j	fd98 <__getf2+0x120>

0000fdd8 <__letf2>:
    fdd8:	00c52303          	lw	t1,12(a0)
    fddc:	00c5a883          	lw	a7,12(a1)
    fde0:	000087b7          	lui	a5,0x8
    fde4:	fff78793          	add	a5,a5,-1 # 7fff <_ldcheck+0x23>
    fde8:	01035693          	srl	a3,t1,0x10
    fdec:	0108d713          	srl	a4,a7,0x10
    fdf0:	01031f13          	sll	t5,t1,0x10
    fdf4:	0005a603          	lw	a2,0(a1)
    fdf8:	0045ae83          	lw	t4,4(a1)
    fdfc:	0085ae03          	lw	t3,8(a1)
    fe00:	00f6f6b3          	and	a3,a3,a5
    fe04:	01089593          	sll	a1,a7,0x10
    fe08:	00052283          	lw	t0,0(a0)
    fe0c:	00452803          	lw	a6,4(a0)
    fe10:	00852f83          	lw	t6,8(a0)
    fe14:	ff010113          	add	sp,sp,-16
    fe18:	010f5f13          	srl	t5,t5,0x10
    fe1c:	01f35313          	srl	t1,t1,0x1f
    fe20:	0105d593          	srl	a1,a1,0x10
    fe24:	00f77533          	and	a0,a4,a5
    fe28:	01f8d893          	srl	a7,a7,0x1f
    fe2c:	08f68463          	beq	a3,a5,feb4 <__letf2+0xdc>
    fe30:	02f50a63          	beq	a0,a5,fe64 <__letf2+0x8c>
    fe34:	0a069a63          	bnez	a3,fee8 <__letf2+0x110>
    fe38:	005867b3          	or	a5,a6,t0
    fe3c:	01f7e7b3          	or	a5,a5,t6
    fe40:	01e7e7b3          	or	a5,a5,t5
    fe44:	04051e63          	bnez	a0,fea0 <__letf2+0xc8>
    fe48:	01d66733          	or	a4,a2,t4
    fe4c:	01c76733          	or	a4,a4,t3
    fe50:	00b76733          	or	a4,a4,a1
    fe54:	04071663          	bnez	a4,fea0 <__letf2+0xc8>
    fe58:	02079c63          	bnez	a5,fe90 <__letf2+0xb8>
    fe5c:	01010113          	add	sp,sp,16
    fe60:	00008067          	ret
    fe64:	01d66633          	or	a2,a2,t4
    fe68:	01c66633          	or	a2,a2,t3
    fe6c:	00b66633          	or	a2,a2,a1
    fe70:	00200513          	li	a0,2
    fe74:	fe0614e3          	bnez	a2,fe5c <__letf2+0x84>
    fe78:	00069a63          	bnez	a3,fe8c <__letf2+0xb4>
    fe7c:	00586833          	or	a6,a6,t0
    fe80:	01f86833          	or	a6,a6,t6
    fe84:	01e86833          	or	a6,a6,t5
    fe88:	00080e63          	beqz	a6,fea4 <__letf2+0xcc>
    fe8c:	08688663          	beq	a7,t1,ff18 <__letf2+0x140>
    fe90:	00031e63          	bnez	t1,feac <__letf2+0xd4>
    fe94:	00100513          	li	a0,1
    fe98:	01010113          	add	sp,sp,16
    fe9c:	00008067          	ret
    fea0:	08079863          	bnez	a5,ff30 <__letf2+0x158>
    fea4:	00100513          	li	a0,1
    fea8:	fa089ae3          	bnez	a7,fe5c <__letf2+0x84>
    feac:	fff00513          	li	a0,-1
    feb0:	fadff06f          	j	fe5c <__letf2+0x84>
    feb4:	00586833          	or	a6,a6,t0
    feb8:	01f86833          	or	a6,a6,t6
    febc:	01e86833          	or	a6,a6,t5
    fec0:	06081263          	bnez	a6,ff24 <__letf2+0x14c>
    fec4:	fcd516e3          	bne	a0,a3,fe90 <__letf2+0xb8>
    fec8:	01d66633          	or	a2,a2,t4
    fecc:	01c66633          	or	a2,a2,t3
    fed0:	00b66633          	or	a2,a2,a1
    fed4:	00200513          	li	a0,2
    fed8:	f80612e3          	bnez	a2,fe5c <__letf2+0x84>
    fedc:	fa689ae3          	bne	a7,t1,fe90 <__letf2+0xb8>
    fee0:	00000513          	li	a0,0
    fee4:	f79ff06f          	j	fe5c <__letf2+0x84>
    fee8:	fa0504e3          	beqz	a0,fe90 <__letf2+0xb8>
    feec:	fa6892e3          	bne	a7,t1,fe90 <__letf2+0xb8>
    fef0:	fad540e3          	blt	a0,a3,fe90 <__letf2+0xb8>
    fef4:	02a6c263          	blt	a3,a0,ff18 <__letf2+0x140>
    fef8:	f9e5ece3          	bltu	a1,t5,fe90 <__letf2+0xb8>
    fefc:	00bf1e63          	bne	t5,a1,ff18 <__letf2+0x140>
    ff00:	f9fe68e3          	bltu	t3,t6,fe90 <__letf2+0xb8>
    ff04:	01cf9a63          	bne	t6,t3,ff18 <__letf2+0x140>
    ff08:	f90ee4e3          	bltu	t4,a6,fe90 <__letf2+0xb8>
    ff0c:	01d81663          	bne	a6,t4,ff18 <__letf2+0x140>
    ff10:	f85660e3          	bltu	a2,t0,fe90 <__letf2+0xb8>
    ff14:	fcc2f6e3          	bgeu	t0,a2,fee0 <__letf2+0x108>
    ff18:	00100513          	li	a0,1
    ff1c:	f40310e3          	bnez	t1,fe5c <__letf2+0x84>
    ff20:	f8dff06f          	j	feac <__letf2+0xd4>
    ff24:	00200513          	li	a0,2
    ff28:	01010113          	add	sp,sp,16
    ff2c:	00008067          	ret
    ff30:	f66890e3          	bne	a7,t1,fe90 <__letf2+0xb8>
    ff34:	fc1ff06f          	j	fef4 <__letf2+0x11c>

0000ff38 <__multf3>:
    ff38:	00c5a803          	lw	a6,12(a1)
    ff3c:	f4010113          	add	sp,sp,-192
    ff40:	0045a703          	lw	a4,4(a1)
    ff44:	0085a883          	lw	a7,8(a1)
    ff48:	0a912a23          	sw	s1,180(sp)
    ff4c:	0005a483          	lw	s1,0(a1)
    ff50:	01081793          	sll	a5,a6,0x10
    ff54:	000085b7          	lui	a1,0x8
    ff58:	0107d793          	srl	a5,a5,0x10
    ff5c:	01085693          	srl	a3,a6,0x10
    ff60:	fff58593          	add	a1,a1,-1 # 7fff <_ldcheck+0x23>
    ff64:	0a812c23          	sw	s0,184(sp)
    ff68:	0b212823          	sw	s2,176(sp)
    ff6c:	0b312623          	sw	s3,172(sp)
    ff70:	0b412423          	sw	s4,168(sp)
    ff74:	0b512223          	sw	s5,164(sp)
    ff78:	09712e23          	sw	s7,156(sp)
    ff7c:	0a112e23          	sw	ra,188(sp)
    ff80:	0b612023          	sw	s6,160(sp)
    ff84:	09812c23          	sw	s8,152(sp)
    ff88:	09b12623          	sw	s11,140(sp)
    ff8c:	06912023          	sw	s1,96(sp)
    ff90:	06e12223          	sw	a4,100(sp)
    ff94:	07112423          	sw	a7,104(sp)
    ff98:	07012623          	sw	a6,108(sp)
    ff9c:	02912823          	sw	s1,48(sp)
    ffa0:	02e12a23          	sw	a4,52(sp)
    ffa4:	03112c23          	sw	a7,56(sp)
    ffa8:	02f12e23          	sw	a5,60(sp)
    ffac:	00b6f6b3          	and	a3,a3,a1
    ffb0:	00062a83          	lw	s5,0(a2)
    ffb4:	00462983          	lw	s3,4(a2)
    ffb8:	00862b83          	lw	s7,8(a2)
    ffbc:	00c62903          	lw	s2,12(a2)
    ffc0:	00050413          	mv	s0,a0
    ffc4:	01f85a13          	srl	s4,a6,0x1f
    ffc8:	34068063          	beqz	a3,10308 <__multf3+0x3d0>
    ffcc:	18b68c63          	beq	a3,a1,10164 <__multf3+0x22c>
    ffd0:	00010737          	lui	a4,0x10
    ffd4:	00e7e7b3          	or	a5,a5,a4
    ffd8:	02f12e23          	sw	a5,60(sp)
    ffdc:	03010513          	add	a0,sp,48
    ffe0:	03c10713          	add	a4,sp,60
    ffe4:	00379593          	sll	a1,a5,0x3
    ffe8:	ffc72783          	lw	a5,-4(a4) # fffc <__multf3+0xc4>
    ffec:	ffc70713          	add	a4,a4,-4
    fff0:	01d7d613          	srl	a2,a5,0x1d
    fff4:	00b66633          	or	a2,a2,a1
    fff8:	00c72223          	sw	a2,4(a4)
    fffc:	fee514e3          	bne	a0,a4,ffe4 <__multf3+0xac>
   10000:	ffffc7b7          	lui	a5,0xffffc
   10004:	00349493          	sll	s1,s1,0x3
   10008:	00178793          	add	a5,a5,1 # ffffc001 <__alt_data_end+0xfffdc001>
   1000c:	02912823          	sw	s1,48(sp)
   10010:	00f68db3          	add	s11,a3,a5
   10014:	00000b13          	li	s6,0
   10018:	00000c13          	li	s8,0
   1001c:	01091513          	sll	a0,s2,0x10
   10020:	000086b7          	lui	a3,0x8
   10024:	01095793          	srl	a5,s2,0x10
   10028:	01055513          	srl	a0,a0,0x10
   1002c:	fff68713          	add	a4,a3,-1 # 7fff <_ldcheck+0x23>
   10030:	07212623          	sw	s2,108(sp)
   10034:	07512023          	sw	s5,96(sp)
   10038:	07312223          	sw	s3,100(sp)
   1003c:	07712423          	sw	s7,104(sp)
   10040:	05512023          	sw	s5,64(sp)
   10044:	05312223          	sw	s3,68(sp)
   10048:	05712423          	sw	s7,72(sp)
   1004c:	04a12623          	sw	a0,76(sp)
   10050:	00e7f7b3          	and	a5,a5,a4
   10054:	01f95913          	srl	s2,s2,0x1f
   10058:	1c078463          	beqz	a5,10220 <__multf3+0x2e8>
   1005c:	12e78463          	beq	a5,a4,10184 <__multf3+0x24c>
   10060:	00010737          	lui	a4,0x10
   10064:	00e56533          	or	a0,a0,a4
   10068:	04a12623          	sw	a0,76(sp)
   1006c:	04010593          	add	a1,sp,64
   10070:	04c10713          	add	a4,sp,76
   10074:	00351613          	sll	a2,a0,0x3
   10078:	ffc72503          	lw	a0,-4(a4) # fffc <__multf3+0xc4>
   1007c:	ffc70713          	add	a4,a4,-4
   10080:	01d55693          	srl	a3,a0,0x1d
   10084:	00c6e6b3          	or	a3,a3,a2
   10088:	00d72223          	sw	a3,4(a4)
   1008c:	fee594e3          	bne	a1,a4,10074 <__multf3+0x13c>
   10090:	ffffc737          	lui	a4,0xffffc
   10094:	00170713          	add	a4,a4,1 # ffffc001 <__alt_data_end+0xfffdc001>
   10098:	003a9a93          	sll	s5,s5,0x3
   1009c:	00e787b3          	add	a5,a5,a4
   100a0:	05512023          	sw	s5,64(sp)
   100a4:	01b787b3          	add	a5,a5,s11
   100a8:	00000613          	li	a2,0
   100ac:	00178693          	add	a3,a5,1
   100b0:	00a00713          	li	a4,10
   100b4:	00d12623          	sw	a3,12(sp)
   100b8:	25674463          	blt	a4,s6,10300 <__multf3+0x3c8>
   100bc:	012a4733          	xor	a4,s4,s2
   100c0:	00200693          	li	a3,2
   100c4:	00070813          	mv	a6,a4
   100c8:	3366dc63          	bge	a3,s6,10400 <__multf3+0x4c8>
   100cc:	00100693          	li	a3,1
   100d0:	016696b3          	sll	a3,a3,s6
   100d4:	5306f593          	and	a1,a3,1328
   100d8:	0e059863          	bnez	a1,101c8 <__multf3+0x290>
   100dc:	0886f593          	and	a1,a3,136
   100e0:	420592e3          	bnez	a1,10d04 <__multf3+0xdcc>
   100e4:	2406f693          	and	a3,a3,576
   100e8:	38068063          	beqz	a3,10468 <__multf3+0x530>
   100ec:	000087b7          	lui	a5,0x8
   100f0:	00000713          	li	a4,0
   100f4:	fff78793          	add	a5,a5,-1 # 7fff <_ldcheck+0x23>
   100f8:	000086b7          	lui	a3,0x8
   100fc:	00000613          	li	a2,0
   10100:	00000593          	li	a1,0
   10104:	00000513          	li	a0,0
   10108:	00f71713          	sll	a4,a4,0xf
   1010c:	00e7e7b3          	or	a5,a5,a4
   10110:	06d11623          	sh	a3,108(sp)
   10114:	06f11723          	sh	a5,110(sp)
   10118:	06c12783          	lw	a5,108(sp)
   1011c:	00a42023          	sw	a0,0(s0)
   10120:	0bc12083          	lw	ra,188(sp)
   10124:	00b42223          	sw	a1,4(s0)
   10128:	00c42423          	sw	a2,8(s0)
   1012c:	00f42623          	sw	a5,12(s0)
   10130:	00040513          	mv	a0,s0
   10134:	0b812403          	lw	s0,184(sp)
   10138:	0b412483          	lw	s1,180(sp)
   1013c:	0b012903          	lw	s2,176(sp)
   10140:	0ac12983          	lw	s3,172(sp)
   10144:	0a812a03          	lw	s4,168(sp)
   10148:	0a412a83          	lw	s5,164(sp)
   1014c:	0a012b03          	lw	s6,160(sp)
   10150:	09c12b83          	lw	s7,156(sp)
   10154:	09812c03          	lw	s8,152(sp)
   10158:	08c12d83          	lw	s11,140(sp)
   1015c:	0c010113          	add	sp,sp,192
   10160:	00008067          	ret
   10164:	00e4e733          	or	a4,s1,a4
   10168:	01176733          	or	a4,a4,a7
   1016c:	00f76733          	or	a4,a4,a5
   10170:	2c071e63          	bnez	a4,1044c <__multf3+0x514>
   10174:	00800b13          	li	s6,8
   10178:	00068d93          	mv	s11,a3
   1017c:	00200c13          	li	s8,2
   10180:	e9dff06f          	j	1001c <__multf3+0xe4>
   10184:	013ae9b3          	or	s3,s5,s3
   10188:	0179e9b3          	or	s3,s3,s7
   1018c:	00a9e9b3          	or	s3,s3,a0
   10190:	00fd87b3          	add	a5,s11,a5
   10194:	2c098463          	beqz	s3,1045c <__multf3+0x524>
   10198:	00dd86b3          	add	a3,s11,a3
   1019c:	012a4733          	xor	a4,s4,s2
   101a0:	003b6b13          	or	s6,s6,3
   101a4:	00a00613          	li	a2,10
   101a8:	00d12623          	sw	a3,12(sp)
   101ac:	00070813          	mv	a6,a4
   101b0:	356644e3          	blt	a2,s6,10cf8 <__multf3+0xdc0>
   101b4:	00100693          	li	a3,1
   101b8:	016696b3          	sll	a3,a3,s6
   101bc:	5306f593          	and	a1,a3,1328
   101c0:	00300613          	li	a2,3
   101c4:	f0058ce3          	beqz	a1,100dc <__multf3+0x1a4>
   101c8:	03412703          	lw	a4,52(sp)
   101cc:	03c12783          	lw	a5,60(sp)
   101d0:	000c0613          	mv	a2,s8
   101d4:	04e12a23          	sw	a4,84(sp)
   101d8:	03012703          	lw	a4,48(sp)
   101dc:	04e12823          	sw	a4,80(sp)
   101e0:	03812703          	lw	a4,56(sp)
   101e4:	04e12c23          	sw	a4,88(sp)
   101e8:	04f12e23          	sw	a5,92(sp)
   101ec:	00200793          	li	a5,2
   101f0:	1ef60863          	beq	a2,a5,103e0 <__multf3+0x4a8>
   101f4:	00300793          	li	a5,3
   101f8:	eef60ae3          	beq	a2,a5,100ec <__multf3+0x1b4>
   101fc:	00100793          	li	a5,1
   10200:	00080713          	mv	a4,a6
   10204:	20f616e3          	bne	a2,a5,10c10 <__multf3+0xcd8>
   10208:	00000793          	li	a5,0
   1020c:	00000693          	li	a3,0
   10210:	00000613          	li	a2,0
   10214:	00000593          	li	a1,0
   10218:	00000513          	li	a0,0
   1021c:	eedff06f          	j	10108 <__multf3+0x1d0>
   10220:	013ae7b3          	or	a5,s5,s3
   10224:	0177e7b3          	or	a5,a5,s7
   10228:	00a7e7b3          	or	a5,a5,a0
   1022c:	20078863          	beqz	a5,1043c <__multf3+0x504>
   10230:	4a0508e3          	beqz	a0,10ee0 <__multf3+0xfa8>
   10234:	3d1020ef          	jal	12e04 <__clzsi2>
   10238:	ff450813          	add	a6,a0,-12
   1023c:	02000313          	li	t1,32
   10240:	41030333          	sub	t1,t1,a6
   10244:	00000613          	li	a2,0
   10248:	010a9ab3          	sll	s5,s5,a6
   1024c:	40c008b3          	neg	a7,a2
   10250:	00289893          	sll	a7,a7,0x2
   10254:	04010693          	add	a3,sp,64
   10258:	01168733          	add	a4,a3,a7
   1025c:	00300593          	li	a1,3
   10260:	411008b3          	neg	a7,a7
   10264:	00c72783          	lw	a5,12(a4)
   10268:	00872e03          	lw	t3,8(a4)
   1026c:	01170eb3          	add	t4,a4,a7
   10270:	010797b3          	sll	a5,a5,a6
   10274:	006e5e33          	srl	t3,t3,t1
   10278:	01c7e7b3          	or	a5,a5,t3
   1027c:	00fea623          	sw	a5,12(t4)
   10280:	fff58593          	add	a1,a1,-1
   10284:	ffc70713          	add	a4,a4,-4
   10288:	fcb64ee3          	blt	a2,a1,10264 <__multf3+0x32c>
   1028c:	00261713          	sll	a4,a2,0x2
   10290:	05070793          	add	a5,a4,80
   10294:	03010713          	add	a4,sp,48
   10298:	00e78733          	add	a4,a5,a4
   1029c:	fd572023          	sw	s5,-64(a4)
   102a0:	fff60793          	add	a5,a2,-1
   102a4:	fff00713          	li	a4,-1
   102a8:	02e78a63          	beq	a5,a4,102dc <__multf3+0x3a4>
   102ac:	00178793          	add	a5,a5,1
   102b0:	00279793          	sll	a5,a5,0x2
   102b4:	00800613          	li	a2,8
   102b8:	00068713          	mv	a4,a3
   102bc:	00c7ea63          	bltu	a5,a2,102d0 <__multf3+0x398>
   102c0:	04012023          	sw	zero,64(sp)
   102c4:	0006a223          	sw	zero,4(a3) # 8004 <_ldcheck+0x28>
   102c8:	ff878793          	add	a5,a5,-8
   102cc:	04810713          	add	a4,sp,72
   102d0:	00400693          	li	a3,4
   102d4:	00d7e463          	bltu	a5,a3,102dc <__multf3+0x3a4>
   102d8:	00072023          	sw	zero,0(a4)
   102dc:	ffffc7b7          	lui	a5,0xffffc
   102e0:	01178793          	add	a5,a5,17 # ffffc011 <__alt_data_end+0xfffdc011>
   102e4:	40a787b3          	sub	a5,a5,a0
   102e8:	01b787b3          	add	a5,a5,s11
   102ec:	00178693          	add	a3,a5,1
   102f0:	00a00713          	li	a4,10
   102f4:	00d12623          	sw	a3,12(sp)
   102f8:	00000613          	li	a2,0
   102fc:	dd6750e3          	bge	a4,s6,100bc <__multf3+0x184>
   10300:	000a0813          	mv	a6,s4
   10304:	ec5ff06f          	j	101c8 <__multf3+0x290>
   10308:	00e4e6b3          	or	a3,s1,a4
   1030c:	0116e6b3          	or	a3,a3,a7
   10310:	00f6e6b3          	or	a3,a3,a5
   10314:	10068c63          	beqz	a3,1042c <__multf3+0x4f4>
   10318:	360786e3          	beqz	a5,10e84 <__multf3+0xf4c>
   1031c:	00078513          	mv	a0,a5
   10320:	2e5020ef          	jal	12e04 <__clzsi2>
   10324:	ff450813          	add	a6,a0,-12
   10328:	02000313          	li	t1,32
   1032c:	41030333          	sub	t1,t1,a6
   10330:	00000613          	li	a2,0
   10334:	010494b3          	sll	s1,s1,a6
   10338:	40c008b3          	neg	a7,a2
   1033c:	00289893          	sll	a7,a7,0x2
   10340:	03010693          	add	a3,sp,48
   10344:	01168733          	add	a4,a3,a7
   10348:	00300593          	li	a1,3
   1034c:	411008b3          	neg	a7,a7
   10350:	00c72783          	lw	a5,12(a4)
   10354:	00872e03          	lw	t3,8(a4)
   10358:	01170eb3          	add	t4,a4,a7
   1035c:	010797b3          	sll	a5,a5,a6
   10360:	006e5e33          	srl	t3,t3,t1
   10364:	01c7e7b3          	or	a5,a5,t3
   10368:	00fea623          	sw	a5,12(t4)
   1036c:	fff58593          	add	a1,a1,-1
   10370:	ffc70713          	add	a4,a4,-4
   10374:	fcb64ee3          	blt	a2,a1,10350 <__multf3+0x418>
   10378:	00261713          	sll	a4,a2,0x2
   1037c:	05070793          	add	a5,a4,80
   10380:	03010713          	add	a4,sp,48
   10384:	00e78733          	add	a4,a5,a4
   10388:	fa972823          	sw	s1,-80(a4)
   1038c:	fff60793          	add	a5,a2,-1
   10390:	fff00713          	li	a4,-1
   10394:	02e78a63          	beq	a5,a4,103c8 <__multf3+0x490>
   10398:	00178793          	add	a5,a5,1
   1039c:	00279793          	sll	a5,a5,0x2
   103a0:	00800613          	li	a2,8
   103a4:	00068713          	mv	a4,a3
   103a8:	00c7ea63          	bltu	a5,a2,103bc <__multf3+0x484>
   103ac:	02012823          	sw	zero,48(sp)
   103b0:	0006a223          	sw	zero,4(a3)
   103b4:	ff878793          	add	a5,a5,-8
   103b8:	03810713          	add	a4,sp,56
   103bc:	00400693          	li	a3,4
   103c0:	00d7e463          	bltu	a5,a3,103c8 <__multf3+0x490>
   103c4:	00072023          	sw	zero,0(a4)
   103c8:	ffffc6b7          	lui	a3,0xffffc
   103cc:	01168693          	add	a3,a3,17 # ffffc011 <__alt_data_end+0xfffdc011>
   103d0:	40a68db3          	sub	s11,a3,a0
   103d4:	00000b13          	li	s6,0
   103d8:	00000c13          	li	s8,0
   103dc:	c41ff06f          	j	1001c <__multf3+0xe4>
   103e0:	000087b7          	lui	a5,0x8
   103e4:	00080713          	mv	a4,a6
   103e8:	fff78793          	add	a5,a5,-1 # 7fff <_ldcheck+0x23>
   103ec:	00000693          	li	a3,0
   103f0:	00000613          	li	a2,0
   103f4:	00000593          	li	a1,0
   103f8:	00000513          	li	a0,0
   103fc:	d0dff06f          	j	10108 <__multf3+0x1d0>
   10400:	fffb0b13          	add	s6,s6,-1
   10404:	00100693          	li	a3,1
   10408:	0766e063          	bltu	a3,s6,10468 <__multf3+0x530>
   1040c:	04412703          	lw	a4,68(sp)
   10410:	04c12783          	lw	a5,76(sp)
   10414:	04e12a23          	sw	a4,84(sp)
   10418:	04012703          	lw	a4,64(sp)
   1041c:	04e12823          	sw	a4,80(sp)
   10420:	04812703          	lw	a4,72(sp)
   10424:	04e12c23          	sw	a4,88(sp)
   10428:	dc1ff06f          	j	101e8 <__multf3+0x2b0>
   1042c:	00400b13          	li	s6,4
   10430:	00000d93          	li	s11,0
   10434:	00100c13          	li	s8,1
   10438:	be5ff06f          	j	1001c <__multf3+0xe4>
   1043c:	001b6b13          	or	s6,s6,1
   10440:	000d8793          	mv	a5,s11
   10444:	00100613          	li	a2,1
   10448:	c65ff06f          	j	100ac <__multf3+0x174>
   1044c:	00c00b13          	li	s6,12
   10450:	00068d93          	mv	s11,a3
   10454:	00300c13          	li	s8,3
   10458:	bc5ff06f          	j	1001c <__multf3+0xe4>
   1045c:	002b6b13          	or	s6,s6,2
   10460:	00200613          	li	a2,2
   10464:	c49ff06f          	j	100ac <__multf3+0x174>
   10468:	03012303          	lw	t1,48(sp)
   1046c:	04012f83          	lw	t6,64(sp)
   10470:	00010837          	lui	a6,0x10
   10474:	fff80693          	add	a3,a6,-1 # ffff <__multf3+0xc7>
   10478:	01035913          	srl	s2,t1,0x10
   1047c:	010fd493          	srl	s1,t6,0x10
   10480:	00d37333          	and	t1,t1,a3
   10484:	00dfffb3          	and	t6,t6,a3
   10488:	026f86b3          	mul	a3,t6,t1
   1048c:	09912a23          	sw	s9,148(sp)
   10490:	09a12823          	sw	s10,144(sp)
   10494:	03f90533          	mul	a0,s2,t6
   10498:	0106de93          	srl	t4,a3,0x10
   1049c:	02648633          	mul	a2,s1,t1
   104a0:	00a60633          	add	a2,a2,a0
   104a4:	00ce8eb3          	add	t4,t4,a2
   104a8:	029905b3          	mul	a1,s2,s1
   104ac:	00aef463          	bgeu	t4,a0,104b4 <__multf3+0x57c>
   104b0:	010585b3          	add	a1,a1,a6
   104b4:	000108b7          	lui	a7,0x10
   104b8:	fff88813          	add	a6,a7,-1 # ffff <__multf3+0xc7>
   104bc:	04412f03          	lw	t5,68(sp)
   104c0:	010ef533          	and	a0,t4,a6
   104c4:	01051513          	sll	a0,a0,0x10
   104c8:	0106f6b3          	and	a3,a3,a6
   104cc:	010f5e13          	srl	t3,t5,0x10
   104d0:	00d506b3          	add	a3,a0,a3
   104d4:	010f7f33          	and	t5,t5,a6
   104d8:	026f0633          	mul	a2,t5,t1
   104dc:	00d12e23          	sw	a3,28(sp)
   104e0:	06d12023          	sw	a3,96(sp)
   104e4:	01c12823          	sw	t3,16(sp)
   104e8:	010ede93          	srl	t4,t4,0x10
   104ec:	03e90533          	mul	a0,s2,t5
   104f0:	01065293          	srl	t0,a2,0x10
   104f4:	026e06b3          	mul	a3,t3,t1
   104f8:	00a686b3          	add	a3,a3,a0
   104fc:	00d282b3          	add	t0,t0,a3
   10500:	03c90b33          	mul	s6,s2,t3
   10504:	00a2f463          	bgeu	t0,a0,1050c <__multf3+0x5d4>
   10508:	011b0b33          	add	s6,s6,a7
   1050c:	03412883          	lw	a7,52(sp)
   10510:	00010837          	lui	a6,0x10
   10514:	fff80513          	add	a0,a6,-1 # ffff <__multf3+0xc7>
   10518:	0108d393          	srl	t2,a7,0x10
   1051c:	00a8f8b3          	and	a7,a7,a0
   10520:	00a2f9b3          	and	s3,t0,a0
   10524:	00a67633          	and	a2,a2,a0
   10528:	03f886b3          	mul	a3,a7,t6
   1052c:	01099993          	sll	s3,s3,0x10
   10530:	00c989b3          	add	s3,s3,a2
   10534:	0102d293          	srl	t0,t0,0x10
   10538:	013e8eb3          	add	t4,t4,s3
   1053c:	03f38e33          	mul	t3,t2,t6
   10540:	0106d613          	srl	a2,a3,0x10
   10544:	03148533          	mul	a0,s1,a7
   10548:	01c50533          	add	a0,a0,t3
   1054c:	00a60633          	add	a2,a2,a0
   10550:	02748533          	mul	a0,s1,t2
   10554:	01c67463          	bgeu	a2,t3,1055c <__multf3+0x624>
   10558:	01050533          	add	a0,a0,a6
   1055c:	01012b83          	lw	s7,16(sp)
   10560:	00010e37          	lui	t3,0x10
   10564:	fffe0813          	add	a6,t3,-1 # ffff <__multf3+0xc7>
   10568:	01067a33          	and	s4,a2,a6
   1056c:	01065613          	srl	a2,a2,0x10
   10570:	0106f6b3          	and	a3,a3,a6
   10574:	00a60633          	add	a2,a2,a0
   10578:	031b8ab3          	mul	s5,s7,a7
   1057c:	010a1a13          	sll	s4,s4,0x10
   10580:	00da0a33          	add	s4,s4,a3
   10584:	031f0533          	mul	a0,t5,a7
   10588:	03e38833          	mul	a6,t2,t5
   1058c:	01055693          	srl	a3,a0,0x10
   10590:	010a8ab3          	add	s5,s5,a6
   10594:	015686b3          	add	a3,a3,s5
   10598:	027b8bb3          	mul	s7,s7,t2
   1059c:	0106f463          	bgeu	a3,a6,105a4 <__multf3+0x66c>
   105a0:	01cb8bb3          	add	s7,s7,t3
   105a4:	00010837          	lui	a6,0x10
   105a8:	04812e03          	lw	t3,72(sp)
   105ac:	fff80c13          	add	s8,a6,-1 # ffff <__multf3+0xc7>
   105b0:	0186fab3          	and	s5,a3,s8
   105b4:	0106d693          	srl	a3,a3,0x10
   105b8:	017686b3          	add	a3,a3,s7
   105bc:	010a9a93          	sll	s5,s5,0x10
   105c0:	01857533          	and	a0,a0,s8
   105c4:	010e5d13          	srl	s10,t3,0x10
   105c8:	018e7cb3          	and	s9,t3,s8
   105cc:	02d12023          	sw	a3,32(sp)
   105d0:	00aa86b3          	add	a3,s5,a0
   105d4:	026c8e33          	mul	t3,s9,t1
   105d8:	02d12223          	sw	a3,36(sp)
   105dc:	026d0ab3          	mul	s5,s10,t1
   105e0:	010e5513          	srl	a0,t3,0x10
   105e4:	039906b3          	mul	a3,s2,s9
   105e8:	00da8ab3          	add	s5,s5,a3
   105ec:	01550533          	add	a0,a0,s5
   105f0:	03a90bb3          	mul	s7,s2,s10
   105f4:	00d57463          	bgeu	a0,a3,105fc <__multf3+0x6c4>
   105f8:	010b8bb3          	add	s7,s7,a6
   105fc:	03812803          	lw	a6,56(sp)
   10600:	000106b7          	lui	a3,0x10
   10604:	fff68c13          	add	s8,a3,-1 # ffff <__multf3+0xc7>
   10608:	01085d93          	srl	s11,a6,0x10
   1060c:	01887833          	and	a6,a6,s8
   10610:	018576b3          	and	a3,a0,s8
   10614:	01055513          	srl	a0,a0,0x10
   10618:	03f80ab3          	mul	s5,a6,t6
   1061c:	01750bb3          	add	s7,a0,s7
   10620:	018e7e33          	and	t3,t3,s8
   10624:	01069693          	sll	a3,a3,0x10
   10628:	03712423          	sw	s7,40(sp)
   1062c:	01c686b3          	add	a3,a3,t3
   10630:	03fd8bb3          	mul	s7,s11,t6
   10634:	010ade13          	srl	t3,s5,0x10
   10638:	03512623          	sw	s5,44(sp)
   1063c:	03048c33          	mul	s8,s1,a6
   10640:	03b48ab3          	mul	s5,s1,s11
   10644:	017c0c33          	add	s8,s8,s7
   10648:	018e0e33          	add	t3,t3,s8
   1064c:	01512a23          	sw	s5,20(sp)
   10650:	017e7863          	bgeu	t3,s7,10660 <__multf3+0x728>
   10654:	00010537          	lui	a0,0x10
   10658:	00aa8533          	add	a0,s5,a0
   1065c:	00a12a23          	sw	a0,20(sp)
   10660:	01d585b3          	add	a1,a1,t4
   10664:	0135b9b3          	sltu	s3,a1,s3
   10668:	013282b3          	add	t0,t0,s3
   1066c:	016282b3          	add	t0,t0,s6
   10670:	01458b33          	add	s6,a1,s4
   10674:	00c28633          	add	a2,t0,a2
   10678:	00bb35b3          	sltu	a1,s6,a1
   1067c:	00b605b3          	add	a1,a2,a1
   10680:	04c12e83          	lw	t4,76(sp)
   10684:	00563bb3          	sltu	s7,a2,t0
   10688:	00010ab7          	lui	s5,0x10
   1068c:	00c5b633          	sltu	a2,a1,a2
   10690:	fffa8a93          	add	s5,s5,-1 # ffff <__multf3+0xc7>
   10694:	0132b9b3          	sltu	s3,t0,s3
   10698:	02c12503          	lw	a0,44(sp)
   1069c:	00cbe633          	or	a2,s7,a2
   106a0:	02412283          	lw	t0,36(sp)
   106a4:	010eda13          	srl	s4,t4,0x10
   106a8:	01360633          	add	a2,a2,s3
   106ac:	015efeb3          	and	t4,t4,s5
   106b0:	02012983          	lw	s3,32(sp)
   106b4:	015e7bb3          	and	s7,t3,s5
   106b8:	03d90c33          	mul	s8,s2,t4
   106bc:	01612c23          	sw	s6,24(sp)
   106c0:	005582b3          	add	t0,a1,t0
   106c4:	010b9b93          	sll	s7,s7,0x10
   106c8:	01557ab3          	and	s5,a0,s5
   106cc:	02812503          	lw	a0,40(sp)
   106d0:	013609b3          	add	s3,a2,s3
   106d4:	00b2b5b3          	sltu	a1,t0,a1
   106d8:	015b8ab3          	add	s5,s7,s5
   106dc:	01412b83          	lw	s7,20(sp)
   106e0:	026e8b33          	mul	s6,t4,t1
   106e4:	00b985b3          	add	a1,s3,a1
   106e8:	00d286b3          	add	a3,t0,a3
   106ec:	00a58533          	add	a0,a1,a0
   106f0:	0056b2b3          	sltu	t0,a3,t0
   106f4:	010e5e13          	srl	t3,t3,0x10
   106f8:	005502b3          	add	t0,a0,t0
   106fc:	01568ab3          	add	s5,a3,s5
   10700:	017e0e33          	add	t3,t3,s7
   10704:	01c28e33          	add	t3,t0,t3
   10708:	026a0333          	mul	t1,s4,t1
   1070c:	00c9b633          	sltu	a2,s3,a2
   10710:	00dab6b3          	sltu	a3,s5,a3
   10714:	0135b9b3          	sltu	s3,a1,s3
   10718:	00b535b3          	sltu	a1,a0,a1
   1071c:	00a2b533          	sltu	a0,t0,a0
   10720:	00a5e533          	or	a0,a1,a0
   10724:	00de06b3          	add	a3,t3,a3
   10728:	01812583          	lw	a1,24(sp)
   1072c:	013669b3          	or	s3,a2,s3
   10730:	005e32b3          	sltu	t0,t3,t0
   10734:	01c6be33          	sltu	t3,a3,t3
   10738:	00a989b3          	add	s3,s3,a0
   1073c:	01c2e2b3          	or	t0,t0,t3
   10740:	01830333          	add	t1,t1,s8
   10744:	010b5613          	srl	a2,s6,0x10
   10748:	06b12223          	sw	a1,100(sp)
   1074c:	013285b3          	add	a1,t0,s3
   10750:	03512023          	sw	s5,32(sp)
   10754:	07512423          	sw	s5,104(sp)
   10758:	00660633          	add	a2,a2,t1
   1075c:	00b12a23          	sw	a1,20(sp)
   10760:	03490933          	mul	s2,s2,s4
   10764:	01867663          	bgeu	a2,s8,10770 <__multf3+0x838>
   10768:	00010ab7          	lui	s5,0x10
   1076c:	01590933          	add	s2,s2,s5
   10770:	03c12283          	lw	t0,60(sp)
   10774:	00010537          	lui	a0,0x10
   10778:	fff50313          	add	t1,a0,-1 # ffff <__multf3+0xc7>
   1077c:	0102d993          	srl	s3,t0,0x10
   10780:	00667ab3          	and	s5,a2,t1
   10784:	0062f2b3          	and	t0,t0,t1
   10788:	01065613          	srl	a2,a2,0x10
   1078c:	03f285b3          	mul	a1,t0,t6
   10790:	01260933          	add	s2,a2,s2
   10794:	006b7b33          	and	s6,s6,t1
   10798:	010a9a93          	sll	s5,s5,0x10
   1079c:	016a8ab3          	add	s5,s5,s6
   107a0:	02548633          	mul	a2,s1,t0
   107a4:	0105d313          	srl	t1,a1,0x10
   107a8:	03f98fb3          	mul	t6,s3,t6
   107ac:	01f60633          	add	a2,a2,t6
   107b0:	00c30333          	add	t1,t1,a2
   107b4:	033484b3          	mul	s1,s1,s3
   107b8:	01f37463          	bgeu	t1,t6,107c0 <__multf3+0x888>
   107bc:	00a484b3          	add	s1,s1,a0
   107c0:	00010637          	lui	a2,0x10
   107c4:	fff60513          	add	a0,a2,-1 # ffff <__multf3+0xc7>
   107c8:	00a37e33          	and	t3,t1,a0
   107cc:	01035313          	srl	t1,t1,0x10
   107d0:	00a5f533          	and	a0,a1,a0
   107d4:	00930333          	add	t1,t1,s1
   107d8:	010e1e13          	sll	t3,t3,0x10
   107dc:	039885b3          	mul	a1,a7,s9
   107e0:	00ae0e33          	add	t3,t3,a0
   107e4:	03938fb3          	mul	t6,t2,s9
   107e8:	0105d513          	srl	a0,a1,0x10
   107ec:	031d04b3          	mul	s1,s10,a7
   107f0:	01f484b3          	add	s1,s1,t6
   107f4:	00950533          	add	a0,a0,s1
   107f8:	03a38b33          	mul	s6,t2,s10
   107fc:	01f57463          	bgeu	a0,t6,10804 <__multf3+0x8cc>
   10800:	00cb0b33          	add	s6,s6,a2
   10804:	01012c03          	lw	s8,16(sp)
   10808:	000104b7          	lui	s1,0x10
   1080c:	fff48f93          	add	t6,s1,-1 # ffff <__multf3+0xc7>
   10810:	01f57633          	and	a2,a0,t6
   10814:	01055513          	srl	a0,a0,0x10
   10818:	01f5f5b3          	and	a1,a1,t6
   1081c:	01650533          	add	a0,a0,s6
   10820:	03ed8fb3          	mul	t6,s11,t5
   10824:	01061613          	sll	a2,a2,0x10
   10828:	00b60633          	add	a2,a2,a1
   1082c:	030f0b33          	mul	s6,t5,a6
   10830:	030c0bb3          	mul	s7,s8,a6
   10834:	010b5593          	srl	a1,s6,0x10
   10838:	01fb8bb3          	add	s7,s7,t6
   1083c:	017585b3          	add	a1,a1,s7
   10840:	03bc0bb3          	mul	s7,s8,s11
   10844:	01f5f463          	bgeu	a1,t6,1084c <__multf3+0x914>
   10848:	009b8bb3          	add	s7,s7,s1
   1084c:	01412483          	lw	s1,20(sp)
   10850:	01568fb3          	add	t6,a3,s5
   10854:	00dfb6b3          	sltu	a3,t6,a3
   10858:	012484b3          	add	s1,s1,s2
   1085c:	00d48933          	add	s2,s1,a3
   10860:	000106b7          	lui	a3,0x10
   10864:	fff68693          	add	a3,a3,-1 # ffff <__multf3+0xc7>
   10868:	00d5fab3          	and	s5,a1,a3
   1086c:	010a9a93          	sll	s5,s5,0x10
   10870:	00db76b3          	and	a3,s6,a3
   10874:	00da86b3          	add	a3,s5,a3
   10878:	01412a83          	lw	s5,20(sp)
   1087c:	0105d593          	srl	a1,a1,0x10
   10880:	017585b3          	add	a1,a1,s7
   10884:	030c8c33          	mul	s8,s9,a6
   10888:	0154bbb3          	sltu	s7,s1,s5
   1088c:	01cf8e33          	add	t3,t6,t3
   10890:	00690333          	add	t1,s2,t1
   10894:	01fe3fb3          	sltu	t6,t3,t6
   10898:	01f30fb3          	add	t6,t1,t6
   1089c:	00ce0633          	add	a2,t3,a2
   108a0:	00af8533          	add	a0,t6,a0
   108a4:	01c63e33          	sltu	t3,a2,t3
   108a8:	01c50e33          	add	t3,a0,t3
   108ac:	039d8b33          	mul	s6,s11,s9
   108b0:	00d606b3          	add	a3,a2,a3
   108b4:	00be05b3          	add	a1,t3,a1
   108b8:	009934b3          	sltu	s1,s2,s1
   108bc:	00c6b633          	sltu	a2,a3,a2
   108c0:	01233933          	sltu	s2,t1,s2
   108c4:	006fb333          	sltu	t1,t6,t1
   108c8:	009bebb3          	or	s7,s7,s1
   108cc:	01f53fb3          	sltu	t6,a0,t6
   108d0:	00696333          	or	t1,s2,t1
   108d4:	030d0ab3          	mul	s5,s10,a6
   108d8:	00ae3533          	sltu	a0,t3,a0
   108dc:	00c58633          	add	a2,a1,a2
   108e0:	01c5be33          	sltu	t3,a1,t3
   108e4:	006b8333          	add	t1,s7,t1
   108e8:	00afe533          	or	a0,t6,a0
   108ec:	00b635b3          	sltu	a1,a2,a1
   108f0:	010c5f93          	srl	t6,s8,0x10
   108f4:	00650533          	add	a0,a0,t1
   108f8:	00be65b3          	or	a1,t3,a1
   108fc:	016a8ab3          	add	s5,s5,s6
   10900:	06d12623          	sw	a3,108(sp)
   10904:	015f8ab3          	add	s5,t6,s5
   10908:	03bd0e33          	mul	t3,s10,s11
   1090c:	00068313          	mv	t1,a3
   10910:	00a585b3          	add	a1,a1,a0
   10914:	016af663          	bgeu	s5,s6,10920 <__multf3+0x9e8>
   10918:	00010537          	lui	a0,0x10
   1091c:	00ae0e33          	add	t3,t3,a0
   10920:	000104b7          	lui	s1,0x10
   10924:	fff48513          	add	a0,s1,-1 # ffff <__multf3+0xc7>
   10928:	00aaffb3          	and	t6,s5,a0
   1092c:	010f9f93          	sll	t6,t6,0x10
   10930:	00ac7533          	and	a0,s8,a0
   10934:	031e8933          	mul	s2,t4,a7
   10938:	00af8533          	add	a0,t6,a0
   1093c:	010ada93          	srl	s5,s5,0x10
   10940:	01ca8ab3          	add	s5,s5,t3
   10944:	03d38fb3          	mul	t6,t2,t4
   10948:	01095e13          	srl	t3,s2,0x10
   1094c:	031a08b3          	mul	a7,s4,a7
   10950:	01f888b3          	add	a7,a7,t6
   10954:	011e0e33          	add	t3,t3,a7
   10958:	034383b3          	mul	t2,t2,s4
   1095c:	01fe7463          	bgeu	t3,t6,10964 <__multf3+0xa2c>
   10960:	009383b3          	add	t2,t2,s1
   10964:	01012b03          	lw	s6,16(sp)
   10968:	00010fb7          	lui	t6,0x10
   1096c:	ffff8893          	add	a7,t6,-1 # ffff <__multf3+0xc7>
   10970:	011e74b3          	and	s1,t3,a7
   10974:	010e5e13          	srl	t3,t3,0x10
   10978:	011978b3          	and	a7,s2,a7
   1097c:	007e0e33          	add	t3,t3,t2
   10980:	025b0933          	mul	s2,s6,t0
   10984:	01049493          	sll	s1,s1,0x10
   10988:	011484b3          	add	s1,s1,a7
   1098c:	03e283b3          	mul	t2,t0,t5
   10990:	03e98f33          	mul	t5,s3,t5
   10994:	0103d893          	srl	a7,t2,0x10
   10998:	01e90933          	add	s2,s2,t5
   1099c:	012888b3          	add	a7,a7,s2
   109a0:	033b0933          	mul	s2,s6,s3
   109a4:	01e8f463          	bgeu	a7,t5,109ac <__multf3+0xa74>
   109a8:	01f90933          	add	s2,s2,t6
   109ac:	00010b37          	lui	s6,0x10
   109b0:	fffb0f13          	add	t5,s6,-1 # ffff <__multf3+0xc7>
   109b4:	01e8ffb3          	and	t6,a7,t5
   109b8:	0108d893          	srl	a7,a7,0x10
   109bc:	01e3ff33          	and	t5,t2,t5
   109c0:	012888b3          	add	a7,a7,s2
   109c4:	010f9f93          	sll	t6,t6,0x10
   109c8:	030e83b3          	mul	t2,t4,a6
   109cc:	01ef8f33          	add	t5,t6,t5
   109d0:	03dd8933          	mul	s2,s11,t4
   109d4:	0103df93          	srl	t6,t2,0x10
   109d8:	030a0833          	mul	a6,s4,a6
   109dc:	01280833          	add	a6,a6,s2
   109e0:	010f8fb3          	add	t6,t6,a6
   109e4:	034d8bb3          	mul	s7,s11,s4
   109e8:	012ff463          	bgeu	t6,s2,109f0 <__multf3+0xab8>
   109ec:	016b8bb3          	add	s7,s7,s6
   109f0:	00010b37          	lui	s6,0x10
   109f4:	fffb0813          	add	a6,s6,-1 # ffff <__multf3+0xc7>
   109f8:	010ff933          	and	s2,t6,a6
   109fc:	010fdf93          	srl	t6,t6,0x10
   10a00:	0103f833          	and	a6,t2,a6
   10a04:	017f8fb3          	add	t6,t6,s7
   10a08:	01091913          	sll	s2,s2,0x10
   10a0c:	039283b3          	mul	t2,t0,s9
   10a10:	01090833          	add	a6,s2,a6
   10a14:	03998c33          	mul	s8,s3,s9
   10a18:	0103d913          	srl	s2,t2,0x10
   10a1c:	025d0bb3          	mul	s7,s10,t0
   10a20:	018b8bb3          	add	s7,s7,s8
   10a24:	01790933          	add	s2,s2,s7
   10a28:	033d0bb3          	mul	s7,s10,s3
   10a2c:	01897463          	bgeu	s2,s8,10a34 <__multf3+0xafc>
   10a30:	016b8bb3          	add	s7,s7,s6
   10a34:	00a60533          	add	a0,a2,a0
   10a38:	01558ab3          	add	s5,a1,s5
   10a3c:	00c53633          	sltu	a2,a0,a2
   10a40:	00ca8633          	add	a2,s5,a2
   10a44:	009504b3          	add	s1,a0,s1
   10a48:	01c60e33          	add	t3,a2,t3
   10a4c:	00a4b533          	sltu	a0,s1,a0
   10a50:	025e8c33          	mul	s8,t4,t0
   10a54:	00ae0b33          	add	s6,t3,a0
   10a58:	01e48f33          	add	t5,s1,t5
   10a5c:	011b08b3          	add	a7,s6,a7
   10a60:	009f34b3          	sltu	s1,t5,s1
   10a64:	00988533          	add	a0,a7,s1
   10a68:	00bab5b3          	sltu	a1,s5,a1
   10a6c:	000104b7          	lui	s1,0x10
   10a70:	01563ab3          	sltu	s5,a2,s5
   10a74:	00ce3633          	sltu	a2,t3,a2
   10a78:	03d98eb3          	mul	t4,s3,t4
   10a7c:	01cb3e33          	sltu	t3,s6,t3
   10a80:	fff48c93          	add	s9,s1,-1 # ffff <__multf3+0xc7>
   10a84:	0155eab3          	or	s5,a1,s5
   10a88:	01c66e33          	or	t3,a2,t3
   10a8c:	0168bb33          	sltu	s6,a7,s6
   10a90:	011538b3          	sltu	a7,a0,a7
   10a94:	01997633          	and	a2,s2,s9
   10a98:	01ca8e33          	add	t3,s5,t3
   10a9c:	011b68b3          	or	a7,s6,a7
   10aa0:	025a02b3          	mul	t0,s4,t0
   10aa4:	01050833          	add	a6,a0,a6
   10aa8:	01c888b3          	add	a7,a7,t3
   10aac:	01061613          	sll	a2,a2,0x10
   10ab0:	0193f3b3          	and	t2,t2,s9
   10ab4:	01f88fb3          	add	t6,a7,t6
   10ab8:	00a835b3          	sltu	a1,a6,a0
   10abc:	00760633          	add	a2,a2,t2
   10ac0:	01095913          	srl	s2,s2,0x10
   10ac4:	00bf85b3          	add	a1,t6,a1
   10ac8:	00c80533          	add	a0,a6,a2
   10acc:	01790933          	add	s2,s2,s7
   10ad0:	01258933          	add	s2,a1,s2
   10ad4:	01053633          	sltu	a2,a0,a6
   10ad8:	00c90633          	add	a2,s2,a2
   10adc:	01d282b3          	add	t0,t0,t4
   10ae0:	010c5813          	srl	a6,s8,0x10
   10ae4:	011fb8b3          	sltu	a7,t6,a7
   10ae8:	07e12823          	sw	t5,112(sp)
   10aec:	01f5bfb3          	sltu	t6,a1,t6
   10af0:	06a12a23          	sw	a0,116(sp)
   10af4:	00b935b3          	sltu	a1,s2,a1
   10af8:	00580833          	add	a6,a6,t0
   10afc:	01263933          	sltu	s2,a2,s2
   10b00:	033a09b3          	mul	s3,s4,s3
   10b04:	01f8ef33          	or	t5,a7,t6
   10b08:	0125e5b3          	or	a1,a1,s2
   10b0c:	01d87463          	bgeu	a6,t4,10b14 <__multf3+0xbdc>
   10b10:	009989b3          	add	s3,s3,s1
   10b14:	00010e37          	lui	t3,0x10
   10b18:	fffe0e13          	add	t3,t3,-1 # ffff <__multf3+0xc7>
   10b1c:	01c87533          	and	a0,a6,t3
   10b20:	01051513          	sll	a0,a0,0x10
   10b24:	01cc7c33          	and	s8,s8,t3
   10b28:	01085893          	srl	a7,a6,0x10
   10b2c:	01850533          	add	a0,a0,s8
   10b30:	00a60533          	add	a0,a2,a0
   10b34:	01e888b3          	add	a7,a7,t5
   10b38:	011585b3          	add	a1,a1,a7
   10b3c:	00c53633          	sltu	a2,a0,a2
   10b40:	01812803          	lw	a6,24(sp)
   10b44:	00b60633          	add	a2,a2,a1
   10b48:	01c12583          	lw	a1,28(sp)
   10b4c:	01360633          	add	a2,a2,s3
   10b50:	00d69693          	sll	a3,a3,0xd
   10b54:	0105e5b3          	or	a1,a1,a6
   10b58:	02012803          	lw	a6,32(sp)
   10b5c:	06c12e23          	sw	a2,124(sp)
   10b60:	06a12c23          	sw	a0,120(sp)
   10b64:	0105e5b3          	or	a1,a1,a6
   10b68:	00b6e6b3          	or	a3,a3,a1
   10b6c:	06010613          	add	a2,sp,96
   10b70:	07010813          	add	a6,sp,112
   10b74:	01335513          	srl	a0,t1,0x13
   10b78:	01062303          	lw	t1,16(a2)
   10b7c:	00460613          	add	a2,a2,4
   10b80:	00d31593          	sll	a1,t1,0xd
   10b84:	00a5e5b3          	or	a1,a1,a0
   10b88:	feb62e23          	sw	a1,-4(a2)
   10b8c:	fec814e3          	bne	a6,a2,10b74 <__multf3+0xc3c>
   10b90:	06012603          	lw	a2,96(sp)
   10b94:	00d036b3          	snez	a3,a3
   10b98:	06c12583          	lw	a1,108(sp)
   10b9c:	00c6e6b3          	or	a3,a3,a2
   10ba0:	06812603          	lw	a2,104(sp)
   10ba4:	04b12e23          	sw	a1,92(sp)
   10ba8:	04d12823          	sw	a3,80(sp)
   10bac:	04c12c23          	sw	a2,88(sp)
   10bb0:	06412603          	lw	a2,100(sp)
   10bb4:	04c12a23          	sw	a2,84(sp)
   10bb8:	00b59613          	sll	a2,a1,0xb
   10bbc:	38065063          	bgez	a2,10f3c <__multf3+0x1004>
   10bc0:	01f69513          	sll	a0,a3,0x1f
   10bc4:	05010793          	add	a5,sp,80
   10bc8:	05c10813          	add	a6,sp,92
   10bcc:	0016d893          	srl	a7,a3,0x1
   10bd0:	0047a683          	lw	a3,4(a5)
   10bd4:	00478793          	add	a5,a5,4
   10bd8:	01f69613          	sll	a2,a3,0x1f
   10bdc:	01166633          	or	a2,a2,a7
   10be0:	fec7ae23          	sw	a2,-4(a5)
   10be4:	ff0794e3          	bne	a5,a6,10bcc <__multf3+0xc94>
   10be8:	05012783          	lw	a5,80(sp)
   10bec:	00a036b3          	snez	a3,a0
   10bf0:	0015d593          	srl	a1,a1,0x1
   10bf4:	00d7e7b3          	or	a5,a5,a3
   10bf8:	04f12823          	sw	a5,80(sp)
   10bfc:	09412c83          	lw	s9,148(sp)
   10c00:	00c12783          	lw	a5,12(sp)
   10c04:	09012d03          	lw	s10,144(sp)
   10c08:	04b12e23          	sw	a1,92(sp)
   10c0c:	0080006f          	j	10c14 <__multf3+0xcdc>
   10c10:	00c12783          	lw	a5,12(sp)
   10c14:	00004637          	lui	a2,0x4
   10c18:	fff60613          	add	a2,a2,-1 # 3fff <_vfprintf_r+0x2d3>
   10c1c:	00c78633          	add	a2,a5,a2
   10c20:	10c05463          	blez	a2,10d28 <__multf3+0xdf0>
   10c24:	05012583          	lw	a1,80(sp)
   10c28:	05c12683          	lw	a3,92(sp)
   10c2c:	0075f513          	and	a0,a1,7
   10c30:	04050263          	beqz	a0,10c74 <__multf3+0xd3c>
   10c34:	00f5f513          	and	a0,a1,15
   10c38:	00400813          	li	a6,4
   10c3c:	03050c63          	beq	a0,a6,10c74 <__multf3+0xd3c>
   10c40:	05412803          	lw	a6,84(sp)
   10c44:	00458593          	add	a1,a1,4
   10c48:	05812883          	lw	a7,88(sp)
   10c4c:	0045b513          	sltiu	a0,a1,4
   10c50:	01050833          	add	a6,a0,a6
   10c54:	00a83533          	sltu	a0,a6,a0
   10c58:	00a88533          	add	a0,a7,a0
   10c5c:	011538b3          	sltu	a7,a0,a7
   10c60:	011686b3          	add	a3,a3,a7
   10c64:	04b12823          	sw	a1,80(sp)
   10c68:	05012a23          	sw	a6,84(sp)
   10c6c:	04a12c23          	sw	a0,88(sp)
   10c70:	04d12e23          	sw	a3,92(sp)
   10c74:	00b69593          	sll	a1,a3,0xb
   10c78:	0005de63          	bgez	a1,10c94 <__multf3+0xd5c>
   10c7c:	fff00637          	lui	a2,0xfff00
   10c80:	fff60613          	add	a2,a2,-1 # ffefffff <__alt_data_end+0xffedffff>
   10c84:	00c6f6b3          	and	a3,a3,a2
   10c88:	00004637          	lui	a2,0x4
   10c8c:	04d12e23          	sw	a3,92(sp)
   10c90:	00c78633          	add	a2,a5,a2
   10c94:	05012503          	lw	a0,80(sp)
   10c98:	05010793          	add	a5,sp,80
   10c9c:	05c10893          	add	a7,sp,92
   10ca0:	00355813          	srl	a6,a0,0x3
   10ca4:	0047a503          	lw	a0,4(a5)
   10ca8:	00478793          	add	a5,a5,4
   10cac:	01d51593          	sll	a1,a0,0x1d
   10cb0:	0105e5b3          	or	a1,a1,a6
   10cb4:	feb7ae23          	sw	a1,-4(a5)
   10cb8:	ff1794e3          	bne	a5,a7,10ca0 <__multf3+0xd68>
   10cbc:	000085b7          	lui	a1,0x8
   10cc0:	000087b7          	lui	a5,0x8
   10cc4:	ffe58593          	add	a1,a1,-2 # 7ffe <_ldcheck+0x22>
   10cc8:	fff78793          	add	a5,a5,-1 # 7fff <_ldcheck+0x23>
   10ccc:	d4c5c063          	blt	a1,a2,1020c <__multf3+0x2d4>
   10cd0:	00f677b3          	and	a5,a2,a5
   10cd4:	0036d693          	srl	a3,a3,0x3
   10cd8:	01069693          	sll	a3,a3,0x10
   10cdc:	01079793          	sll	a5,a5,0x10
   10ce0:	05012503          	lw	a0,80(sp)
   10ce4:	05412583          	lw	a1,84(sp)
   10ce8:	05812603          	lw	a2,88(sp)
   10cec:	0106d693          	srl	a3,a3,0x10
   10cf0:	0107d793          	srl	a5,a5,0x10
   10cf4:	c14ff06f          	j	10108 <__multf3+0x1d0>
   10cf8:	00f00793          	li	a5,15
   10cfc:	00300613          	li	a2,3
   10d00:	befb0663          	beq	s6,a5,100ec <__multf3+0x1b4>
   10d04:	04412703          	lw	a4,68(sp)
   10d08:	04c12783          	lw	a5,76(sp)
   10d0c:	00090813          	mv	a6,s2
   10d10:	04e12a23          	sw	a4,84(sp)
   10d14:	04012703          	lw	a4,64(sp)
   10d18:	04e12823          	sw	a4,80(sp)
   10d1c:	04812703          	lw	a4,72(sp)
   10d20:	04e12c23          	sw	a4,88(sp)
   10d24:	cc4ff06f          	j	101e8 <__multf3+0x2b0>
   10d28:	22061063          	bnez	a2,10f48 <__multf3+0x1010>
   10d2c:	05012783          	lw	a5,80(sp)
   10d30:	05c12303          	lw	t1,92(sp)
   10d34:	00300693          	li	a3,3
   10d38:	01f79793          	sll	a5,a5,0x1f
   10d3c:	00135313          	srl	t1,t1,0x1
   10d40:	00100513          	li	a0,1
   10d44:	01f00e13          	li	t3,31
   10d48:	05010593          	add	a1,sp,80
   10d4c:	00261613          	sll	a2,a2,0x2
   10d50:	00269f13          	sll	t5,a3,0x2
   10d54:	00c58833          	add	a6,a1,a2
   10d58:	00058893          	mv	a7,a1
   10d5c:	01e58eb3          	add	t4,a1,t5
   10d60:	00082603          	lw	a2,0(a6)
   10d64:	00482f83          	lw	t6,4(a6)
   10d68:	00488893          	add	a7,a7,4
   10d6c:	00a65633          	srl	a2,a2,a0
   10d70:	01cf9fb3          	sll	t6,t6,t3
   10d74:	01f66633          	or	a2,a2,t6
   10d78:	fec8ae23          	sw	a2,-4(a7)
   10d7c:	00480813          	add	a6,a6,4
   10d80:	ffd890e3          	bne	a7,t4,10d60 <__multf3+0xe28>
   10d84:	050f0613          	add	a2,t5,80
   10d88:	03010513          	add	a0,sp,48
   10d8c:	00a60f33          	add	t5,a2,a0
   10d90:	00168693          	add	a3,a3,1
   10d94:	fc6f2823          	sw	t1,-48(t5)
   10d98:	00400613          	li	a2,4
   10d9c:	05012303          	lw	t1,80(sp)
   10da0:	02c68e63          	beq	a3,a2,10ddc <__multf3+0xea4>
   10da4:	00400613          	li	a2,4
   10da8:	40d60633          	sub	a2,a2,a3
   10dac:	00261613          	sll	a2,a2,0x2
   10db0:	00269693          	sll	a3,a3,0x2
   10db4:	00800513          	li	a0,8
   10db8:	00d586b3          	add	a3,a1,a3
   10dbc:	00a66a63          	bltu	a2,a0,10dd0 <__multf3+0xe98>
   10dc0:	0006a023          	sw	zero,0(a3)
   10dc4:	0006a223          	sw	zero,4(a3)
   10dc8:	ff860613          	add	a2,a2,-8 # 3ff8 <_vfprintf_r+0x2cc>
   10dcc:	00868693          	add	a3,a3,8
   10dd0:	00400513          	li	a0,4
   10dd4:	00a66463          	bltu	a2,a0,10ddc <__multf3+0xea4>
   10dd8:	0006a023          	sw	zero,0(a3)
   10ddc:	00f037b3          	snez	a5,a5
   10de0:	0067e7b3          	or	a5,a5,t1
   10de4:	04f12823          	sw	a5,80(sp)
   10de8:	0077f613          	and	a2,a5,7
   10dec:	05c12683          	lw	a3,92(sp)
   10df0:	04060263          	beqz	a2,10e34 <__multf3+0xefc>
   10df4:	00f7f613          	and	a2,a5,15
   10df8:	00400513          	li	a0,4
   10dfc:	02a60c63          	beq	a2,a0,10e34 <__multf3+0xefc>
   10e00:	05412603          	lw	a2,84(sp)
   10e04:	00478793          	add	a5,a5,4
   10e08:	05812803          	lw	a6,88(sp)
   10e0c:	0047b513          	sltiu	a0,a5,4
   10e10:	00a60533          	add	a0,a2,a0
   10e14:	00c53633          	sltu	a2,a0,a2
   10e18:	00c80633          	add	a2,a6,a2
   10e1c:	01063833          	sltu	a6,a2,a6
   10e20:	010686b3          	add	a3,a3,a6
   10e24:	04f12823          	sw	a5,80(sp)
   10e28:	04a12a23          	sw	a0,84(sp)
   10e2c:	04c12c23          	sw	a2,88(sp)
   10e30:	04d12e23          	sw	a3,92(sp)
   10e34:	00c69793          	sll	a5,a3,0xc
   10e38:	1a07ca63          	bltz	a5,10fec <__multf3+0x10b4>
   10e3c:	05012503          	lw	a0,80(sp)
   10e40:	00058793          	mv	a5,a1
   10e44:	05c10813          	add	a6,sp,92
   10e48:	00355593          	srl	a1,a0,0x3
   10e4c:	0047a503          	lw	a0,4(a5)
   10e50:	00478793          	add	a5,a5,4
   10e54:	01d51613          	sll	a2,a0,0x1d
   10e58:	00b66633          	or	a2,a2,a1
   10e5c:	fec7ae23          	sw	a2,-4(a5)
   10e60:	ff0794e3          	bne	a5,a6,10e48 <__multf3+0xf10>
   10e64:	0036d693          	srl	a3,a3,0x3
   10e68:	01069693          	sll	a3,a3,0x10
   10e6c:	05012503          	lw	a0,80(sp)
   10e70:	05412583          	lw	a1,84(sp)
   10e74:	05812603          	lw	a2,88(sp)
   10e78:	0106d693          	srl	a3,a3,0x10
   10e7c:	00000793          	li	a5,0
   10e80:	a88ff06f          	j	10108 <__multf3+0x1d0>
   10e84:	14089c63          	bnez	a7,10fdc <__multf3+0x10a4>
   10e88:	1a070863          	beqz	a4,11038 <__multf3+0x1100>
   10e8c:	00070513          	mv	a0,a4
   10e90:	775010ef          	jal	12e04 <__clzsi2>
   10e94:	04050513          	add	a0,a0,64 # 10040 <__multf3+0x108>
   10e98:	ff450793          	add	a5,a0,-12
   10e9c:	01f7f813          	and	a6,a5,31
   10ea0:	4057d613          	sra	a2,a5,0x5
   10ea4:	20081c63          	bnez	a6,110bc <__multf3+0x1184>
   10ea8:	40c00733          	neg	a4,a2
   10eac:	00271713          	sll	a4,a4,0x2
   10eb0:	00c70793          	add	a5,a4,12
   10eb4:	03010693          	add	a3,sp,48
   10eb8:	00f687b3          	add	a5,a3,a5
   10ebc:	40e00733          	neg	a4,a4
   10ec0:	0007a883          	lw	a7,0(a5)
   10ec4:	00e78833          	add	a6,a5,a4
   10ec8:	00078593          	mv	a1,a5
   10ecc:	01182023          	sw	a7,0(a6)
   10ed0:	ffc78793          	add	a5,a5,-4
   10ed4:	feb696e3          	bne	a3,a1,10ec0 <__multf3+0xf88>
   10ed8:	fff60793          	add	a5,a2,-1
   10edc:	cb4ff06f          	j	10390 <__multf3+0x458>
   10ee0:	0e0b9663          	bnez	s7,10fcc <__multf3+0x1094>
   10ee4:	12098063          	beqz	s3,11004 <__multf3+0x10cc>
   10ee8:	00098513          	mv	a0,s3
   10eec:	719010ef          	jal	12e04 <__clzsi2>
   10ef0:	04050513          	add	a0,a0,64
   10ef4:	ff450793          	add	a5,a0,-12
   10ef8:	01f7f813          	and	a6,a5,31
   10efc:	4057d613          	sra	a2,a5,0x5
   10f00:	1c081e63          	bnez	a6,110dc <__multf3+0x11a4>
   10f04:	40c00733          	neg	a4,a2
   10f08:	00271713          	sll	a4,a4,0x2
   10f0c:	00c70793          	add	a5,a4,12
   10f10:	04010693          	add	a3,sp,64
   10f14:	00f687b3          	add	a5,a3,a5
   10f18:	40e00733          	neg	a4,a4
   10f1c:	0007a883          	lw	a7,0(a5)
   10f20:	00e78833          	add	a6,a5,a4
   10f24:	00078593          	mv	a1,a5
   10f28:	01182023          	sw	a7,0(a6)
   10f2c:	ffc78793          	add	a5,a5,-4
   10f30:	feb696e3          	bne	a3,a1,10f1c <__multf3+0xfe4>
   10f34:	fff60793          	add	a5,a2,-1
   10f38:	b6cff06f          	j	102a4 <__multf3+0x36c>
   10f3c:	09412c83          	lw	s9,148(sp)
   10f40:	09012d03          	lw	s10,144(sp)
   10f44:	cd1ff06f          	j	10c14 <__multf3+0xcdc>
   10f48:	00100793          	li	a5,1
   10f4c:	40c787b3          	sub	a5,a5,a2
   10f50:	07400693          	li	a3,116
   10f54:	aaf6ca63          	blt	a3,a5,10208 <__multf3+0x2d0>
   10f58:	01f7f513          	and	a0,a5,31
   10f5c:	02000e13          	li	t3,32
   10f60:	4057d613          	sra	a2,a5,0x5
   10f64:	40ae0e33          	sub	t3,t3,a0
   10f68:	16060263          	beqz	a2,110cc <__multf3+0x1194>
   10f6c:	05010593          	add	a1,sp,80
   10f70:	00261893          	sll	a7,a2,0x2
   10f74:	00058693          	mv	a3,a1
   10f78:	00b888b3          	add	a7,a7,a1
   10f7c:	00000793          	li	a5,0
   10f80:	0006a803          	lw	a6,0(a3)
   10f84:	00468693          	add	a3,a3,4
   10f88:	0107e7b3          	or	a5,a5,a6
   10f8c:	ff169ae3          	bne	a3,a7,10f80 <__multf3+0x1048>
   10f90:	00060893          	mv	a7,a2
   10f94:	00300693          	li	a3,3
   10f98:	40c686b3          	sub	a3,a3,a2
   10f9c:	00058813          	mv	a6,a1
   10fa0:	00261313          	sll	t1,a2,0x2
   10fa4:	0e051463          	bnez	a0,1108c <__multf3+0x1154>
   10fa8:	006808b3          	add	a7,a6,t1
   10fac:	0008a883          	lw	a7,0(a7)
   10fb0:	00150513          	add	a0,a0,1
   10fb4:	00480813          	add	a6,a6,4
   10fb8:	ff182e23          	sw	a7,-4(a6)
   10fbc:	fea6d6e3          	bge	a3,a0,10fa8 <__multf3+0x1070>
   10fc0:	00400693          	li	a3,4
   10fc4:	40c686b3          	sub	a3,a3,a2
   10fc8:	dd1ff06f          	j	10d98 <__multf3+0xe60>
   10fcc:	000b8513          	mv	a0,s7
   10fd0:	635010ef          	jal	12e04 <__clzsi2>
   10fd4:	02050513          	add	a0,a0,32
   10fd8:	f1dff06f          	j	10ef4 <__multf3+0xfbc>
   10fdc:	00088513          	mv	a0,a7
   10fe0:	625010ef          	jal	12e04 <__clzsi2>
   10fe4:	02050513          	add	a0,a0,32
   10fe8:	eb1ff06f          	j	10e98 <__multf3+0xf60>
   10fec:	00100793          	li	a5,1
   10ff0:	00000693          	li	a3,0
   10ff4:	00000613          	li	a2,0
   10ff8:	00000593          	li	a1,0
   10ffc:	00000513          	li	a0,0
   11000:	908ff06f          	j	10108 <__multf3+0x1d0>
   11004:	000a8513          	mv	a0,s5
   11008:	5fd010ef          	jal	12e04 <__clzsi2>
   1100c:	05450793          	add	a5,a0,84
   11010:	01f7f813          	and	a6,a5,31
   11014:	06050513          	add	a0,a0,96
   11018:	4057d613          	sra	a2,a5,0x5
   1101c:	ee0804e3          	beqz	a6,10f04 <__multf3+0xfcc>
   11020:	00200793          	li	a5,2
   11024:	010a9ab3          	sll	s5,s5,a6
   11028:	04f61263          	bne	a2,a5,1106c <__multf3+0x1134>
   1102c:	02000313          	li	t1,32
   11030:	41030333          	sub	t1,t1,a6
   11034:	a18ff06f          	j	1024c <__multf3+0x314>
   11038:	00048513          	mv	a0,s1
   1103c:	5c9010ef          	jal	12e04 <__clzsi2>
   11040:	05450793          	add	a5,a0,84
   11044:	01f7f813          	and	a6,a5,31
   11048:	06050513          	add	a0,a0,96
   1104c:	4057d613          	sra	a2,a5,0x5
   11050:	e4080ce3          	beqz	a6,10ea8 <__multf3+0xf70>
   11054:	00200793          	li	a5,2
   11058:	010494b3          	sll	s1,s1,a6
   1105c:	02f61063          	bne	a2,a5,1107c <__multf3+0x1144>
   11060:	02000313          	li	t1,32
   11064:	41030333          	sub	t1,t1,a6
   11068:	ad0ff06f          	j	10338 <__multf3+0x400>
   1106c:	05512623          	sw	s5,76(sp)
   11070:	00200793          	li	a5,2
   11074:	04010693          	add	a3,sp,64
   11078:	a34ff06f          	j	102ac <__multf3+0x374>
   1107c:	02912e23          	sw	s1,60(sp)
   11080:	00200793          	li	a5,2
   11084:	03010693          	add	a3,sp,48
   11088:	b10ff06f          	j	10398 <__multf3+0x460>
   1108c:	00289813          	sll	a6,a7,0x2
   11090:	05080813          	add	a6,a6,80
   11094:	03010893          	add	a7,sp,48
   11098:	01180833          	add	a6,a6,a7
   1109c:	fd082803          	lw	a6,-48(a6)
   110a0:	05c12303          	lw	t1,92(sp)
   110a4:	01c81833          	sll	a6,a6,t3
   110a8:	0107e7b3          	or	a5,a5,a6
   110ac:	00a35333          	srl	t1,t1,a0
   110b0:	c8069ee3          	bnez	a3,10d4c <__multf3+0xe14>
   110b4:	00100693          	li	a3,1
   110b8:	cedff06f          	j	10da4 <__multf3+0xe6c>
   110bc:	02000313          	li	t1,32
   110c0:	41030333          	sub	t1,t1,a6
   110c4:	010494b3          	sll	s1,s1,a6
   110c8:	a70ff06f          	j	10338 <__multf3+0x400>
   110cc:	00000893          	li	a7,0
   110d0:	00000793          	li	a5,0
   110d4:	05010593          	add	a1,sp,80
   110d8:	ebdff06f          	j	10f94 <__multf3+0x105c>
   110dc:	02000313          	li	t1,32
   110e0:	41030333          	sub	t1,t1,a6
   110e4:	010a9ab3          	sll	s5,s5,a6
   110e8:	964ff06f          	j	1024c <__multf3+0x314>

000110ec <__subtf3>:
   110ec:	fa010113          	add	sp,sp,-96
   110f0:	04912a23          	sw	s1,84(sp)
   110f4:	00c5a483          	lw	s1,12(a1)
   110f8:	0045a703          	lw	a4,4(a1)
   110fc:	0005a803          	lw	a6,0(a1)
   11100:	0085a783          	lw	a5,8(a1)
   11104:	01049693          	sll	a3,s1,0x10
   11108:	00062303          	lw	t1,0(a2)
   1110c:	00462f83          	lw	t6,4(a2)
   11110:	00862e03          	lw	t3,8(a2)
   11114:	00c62583          	lw	a1,12(a2)
   11118:	04812c23          	sw	s0,88(sp)
   1111c:	0106d693          	srl	a3,a3,0x10
   11120:	00149413          	sll	s0,s1,0x1
   11124:	05212823          	sw	s2,80(sp)
   11128:	02e12a23          	sw	a4,52(sp)
   1112c:	02912e23          	sw	s1,60(sp)
   11130:	00e12a23          	sw	a4,20(sp)
   11134:	04112e23          	sw	ra,92(sp)
   11138:	00050913          	mv	s2,a0
   1113c:	03012823          	sw	a6,48(sp)
   11140:	02f12c23          	sw	a5,56(sp)
   11144:	01012823          	sw	a6,16(sp)
   11148:	00f12c23          	sw	a5,24(sp)
   1114c:	00d12e23          	sw	a3,28(sp)
   11150:	01145413          	srl	s0,s0,0x11
   11154:	01f4d493          	srl	s1,s1,0x1f
   11158:	01010e93          	add	t4,sp,16
   1115c:	01c10713          	add	a4,sp,28
   11160:	00369613          	sll	a2,a3,0x3
   11164:	ffc72683          	lw	a3,-4(a4)
   11168:	00070f13          	mv	t5,a4
   1116c:	ffc70713          	add	a4,a4,-4
   11170:	01d6d793          	srl	a5,a3,0x1d
   11174:	00c7e7b3          	or	a5,a5,a2
   11178:	00f72223          	sw	a5,4(a4)
   1117c:	feee92e3          	bne	t4,a4,11160 <__subtf3+0x74>
   11180:	01059613          	sll	a2,a1,0x10
   11184:	00381893          	sll	a7,a6,0x3
   11188:	01065613          	srl	a2,a2,0x10
   1118c:	00159813          	sll	a6,a1,0x1
   11190:	03f12a23          	sw	t6,52(sp)
   11194:	02b12e23          	sw	a1,60(sp)
   11198:	03f12223          	sw	t6,36(sp)
   1119c:	01112823          	sw	a7,16(sp)
   111a0:	02612823          	sw	t1,48(sp)
   111a4:	03c12c23          	sw	t3,56(sp)
   111a8:	02612023          	sw	t1,32(sp)
   111ac:	03c12423          	sw	t3,40(sp)
   111b0:	02c12623          	sw	a2,44(sp)
   111b4:	01185813          	srl	a6,a6,0x11
   111b8:	01f5d593          	srl	a1,a1,0x1f
   111bc:	02010f93          	add	t6,sp,32
   111c0:	02c10793          	add	a5,sp,44
   111c4:	00361513          	sll	a0,a2,0x3
   111c8:	ffc7a603          	lw	a2,-4(a5)
   111cc:	ffc78793          	add	a5,a5,-4
   111d0:	01d65693          	srl	a3,a2,0x1d
   111d4:	00a6e6b3          	or	a3,a3,a0
   111d8:	00d7a223          	sw	a3,4(a5)
   111dc:	feff94e3          	bne	t6,a5,111c4 <__subtf3+0xd8>
   111e0:	00331313          	sll	t1,t1,0x3
   111e4:	00008637          	lui	a2,0x8
   111e8:	02612023          	sw	t1,32(sp)
   111ec:	fff60613          	add	a2,a2,-1 # 7fff <_ldcheck+0x23>
   111f0:	1cc80e63          	beq	a6,a2,113cc <__subtf3+0x2e0>
   111f4:	0015c593          	xor	a1,a1,1
   111f8:	410406b3          	sub	a3,s0,a6
   111fc:	0cb48a63          	beq	s1,a1,112d0 <__subtf3+0x1e4>
   11200:	00d04463          	bgtz	a3,11208 <__subtf3+0x11c>
   11204:	6580106f          	j	1285c <__subtf3+0x1770>
   11208:	01412503          	lw	a0,20(sp)
   1120c:	01812e83          	lw	t4,24(sp)
   11210:	01c12e03          	lw	t3,28(sp)
   11214:	30080663          	beqz	a6,11520 <__subtf3+0x434>
   11218:	00c41463          	bne	s0,a2,11220 <__subtf3+0x134>
   1121c:	0000106f          	j	1221c <__subtf3+0x1130>
   11220:	02c12583          	lw	a1,44(sp)
   11224:	00080637          	lui	a2,0x80
   11228:	07400713          	li	a4,116
   1122c:	00c5e5b3          	or	a1,a1,a2
   11230:	02b12623          	sw	a1,44(sp)
   11234:	32d75063          	bge	a4,a3,11554 <__subtf3+0x468>
   11238:	00000613          	li	a2,0
   1123c:	00000693          	li	a3,0
   11240:	00000813          	li	a6,0
   11244:	00100713          	li	a4,1
   11248:	410507b3          	sub	a5,a0,a6
   1124c:	40e88733          	sub	a4,a7,a4
   11250:	00f53333          	sltu	t1,a0,a5
   11254:	00e8b5b3          	sltu	a1,a7,a4
   11258:	00030f13          	mv	t5,t1
   1125c:	40b787b3          	sub	a5,a5,a1
   11260:	00e8f463          	bgeu	a7,a4,11268 <__subtf3+0x17c>
   11264:	00a808e3          	beq	a6,a0,11a74 <__subtf3+0x988>
   11268:	40de8533          	sub	a0,t4,a3
   1126c:	00aeb5b3          	sltu	a1,t4,a0
   11270:	41e50533          	sub	a0,a0,t5
   11274:	000316e3          	bnez	t1,11a80 <__subtf3+0x994>
   11278:	00b606b3          	add	a3,a2,a1
   1127c:	40de0e33          	sub	t3,t3,a3
   11280:	02f12a23          	sw	a5,52(sp)
   11284:	03c12e23          	sw	t3,60(sp)
   11288:	02a12c23          	sw	a0,56(sp)
   1128c:	02e12823          	sw	a4,48(sp)
   11290:	00ce1793          	sll	a5,t3,0xc
   11294:	5007d663          	bgez	a5,117a0 <__subtf3+0x6b4>
   11298:	00080537          	lui	a0,0x80
   1129c:	fff50513          	add	a0,a0,-1 # 7ffff <__alt_data_end+0x5ffff>
   112a0:	00ae7533          	and	a0,t3,a0
   112a4:	02a12e23          	sw	a0,60(sp)
   112a8:	1c0512e3          	bnez	a0,11c6c <__subtf3+0xb80>
   112ac:	03812503          	lw	a0,56(sp)
   112b0:	14050ce3          	beqz	a0,11c08 <__subtf3+0xb1c>
   112b4:	351010ef          	jal	12e04 <__clzsi2>
   112b8:	01450613          	add	a2,a0,20
   112bc:	01f67893          	and	a7,a2,31
   112c0:	48089ee3          	bnez	a7,11f5c <__subtf3+0xe70>
   112c4:	00100593          	li	a1,1
   112c8:	02000613          	li	a2,32
   112cc:	1690006f          	j	11c34 <__subtf3+0xb48>
   112d0:	00d04463          	bgtz	a3,112d8 <__subtf3+0x1ec>
   112d4:	5980106f          	j	1286c <__subtf3+0x1780>
   112d8:	01412e83          	lw	t4,20(sp)
   112dc:	01812503          	lw	a0,24(sp)
   112e0:	01c12e03          	lw	t3,28(sp)
   112e4:	44081063          	bnez	a6,11724 <__subtf3+0x638>
   112e8:	02412703          	lw	a4,36(sp)
   112ec:	02812f03          	lw	t5,40(sp)
   112f0:	02c12583          	lw	a1,44(sp)
   112f4:	01e76833          	or	a6,a4,t5
   112f8:	00b86833          	or	a6,a6,a1
   112fc:	00686833          	or	a6,a6,t1
   11300:	6a080ce3          	beqz	a6,121b8 <__subtf3+0x10cc>
   11304:	fff68813          	add	a6,a3,-1
   11308:	640804e3          	beqz	a6,12150 <__subtf3+0x1064>
   1130c:	6ac686e3          	beq	a3,a2,121b8 <__subtf3+0x10cc>
   11310:	07400713          	li	a4,116
   11314:	43074663          	blt	a4,a6,11740 <__subtf3+0x654>
   11318:	00080693          	mv	a3,a6
   1131c:	4056df13          	sra	t5,a3,0x5
   11320:	01f6f693          	and	a3,a3,31
   11324:	660f08e3          	beqz	t5,12194 <__subtf3+0x10a8>
   11328:	002f1313          	sll	t1,t5,0x2
   1132c:	00f302b3          	add	t0,t1,a5
   11330:	00078713          	mv	a4,a5
   11334:	00000613          	li	a2,0
   11338:	00072803          	lw	a6,0(a4)
   1133c:	00470713          	add	a4,a4,4
   11340:	01066633          	or	a2,a2,a6
   11344:	fee29ae3          	bne	t0,a4,11338 <__subtf3+0x24c>
   11348:	00300713          	li	a4,3
   1134c:	41e70733          	sub	a4,a4,t5
   11350:	320686e3          	beqz	a3,11e7c <__subtf3+0xd90>
   11354:	04030813          	add	a6,t1,64
   11358:	00280833          	add	a6,a6,sp
   1135c:	fe082803          	lw	a6,-32(a6)
   11360:	02000393          	li	t2,32
   11364:	40d383b3          	sub	t2,t2,a3
   11368:	00781833          	sll	a6,a6,t2
   1136c:	01066633          	or	a2,a2,a6
   11370:	00d5d5b3          	srl	a1,a1,a3
   11374:	00071463          	bnez	a4,1137c <__subtf3+0x290>
   11378:	3e00106f          	j	12758 <__subtf3+0x166c>
   1137c:	05312623          	sw	s3,76(sp)
   11380:	00271813          	sll	a6,a4,0x2
   11384:	006f8333          	add	t1,t6,t1
   11388:	00f809b3          	add	s3,a6,a5
   1138c:	00032703          	lw	a4,0(t1)
   11390:	00432283          	lw	t0,4(t1)
   11394:	00478793          	add	a5,a5,4
   11398:	00d75733          	srl	a4,a4,a3
   1139c:	007292b3          	sll	t0,t0,t2
   113a0:	00576733          	or	a4,a4,t0
   113a4:	fee7ae23          	sw	a4,-4(a5)
   113a8:	00430313          	add	t1,t1,4
   113ac:	ff3790e3          	bne	a5,s3,1138c <__subtf3+0x2a0>
   113b0:	04080793          	add	a5,a6,64
   113b4:	00278733          	add	a4,a5,sp
   113b8:	00400793          	li	a5,4
   113bc:	04c12983          	lw	s3,76(sp)
   113c0:	41e787b3          	sub	a5,a5,t5
   113c4:	feb72023          	sw	a1,-32(a4)
   113c8:	2d50006f          	j	11e9c <__subtf3+0xdb0>
   113cc:	02412783          	lw	a5,36(sp)
   113d0:	02812f83          	lw	t6,40(sp)
   113d4:	02c12e03          	lw	t3,44(sp)
   113d8:	410406b3          	sub	a3,s0,a6
   113dc:	01f7e633          	or	a2,a5,t6
   113e0:	01c66633          	or	a2,a2,t3
   113e4:	00666633          	or	a2,a2,t1
   113e8:	20061c63          	bnez	a2,11600 <__subtf3+0x514>
   113ec:	0015c593          	xor	a1,a1,1
   113f0:	00000e13          	li	t3,0
   113f4:	00000f93          	li	t6,0
   113f8:	20b48863          	beq	s1,a1,11608 <__subtf3+0x51c>
   113fc:	58068663          	beqz	a3,11988 <__subtf3+0x89c>
   11400:	408803b3          	sub	t2,a6,s0
   11404:	70041463          	bnez	s0,11b0c <__subtf3+0xa20>
   11408:	01812483          	lw	s1,24(sp)
   1140c:	05312623          	sw	s3,76(sp)
   11410:	01412983          	lw	s3,20(sp)
   11414:	01c12683          	lw	a3,28(sp)
   11418:	0099e7b3          	or	a5,s3,s1
   1141c:	00d7e7b3          	or	a5,a5,a3
   11420:	0117e7b3          	or	a5,a5,a7
   11424:	48078ee3          	beqz	a5,120c0 <__subtf3+0xfd4>
   11428:	fff38293          	add	t0,t2,-1
   1142c:	740280e3          	beqz	t0,1236c <__subtf3+0x1280>
   11430:	000087b7          	lui	a5,0x8
   11434:	fff78793          	add	a5,a5,-1 # 7fff <_ldcheck+0x23>
   11438:	00f39463          	bne	t2,a5,11440 <__subtf3+0x354>
   1143c:	1940106f          	j	125d0 <__subtf3+0x14e4>
   11440:	07400793          	li	a5,116
   11444:	0057d463          	bge	a5,t0,1144c <__subtf3+0x360>
   11448:	1b00106f          	j	125f8 <__subtf3+0x150c>
   1144c:	01f00793          	li	a5,31
   11450:	6257d4e3          	bge	a5,t0,12278 <__subtf3+0x118c>
   11454:	04c12983          	lw	s3,76(sp)
   11458:	4052d513          	sra	a0,t0,0x5
   1145c:	00028393          	mv	t2,t0
   11460:	00070293          	mv	t0,a4
   11464:	00000793          	li	a5,0
   11468:	00000893          	li	a7,0
   1146c:	0002a403          	lw	s0,0(t0)
   11470:	00188893          	add	a7,a7,1
   11474:	00428293          	add	t0,t0,4
   11478:	0087e7b3          	or	a5,a5,s0
   1147c:	fea8c8e3          	blt	a7,a0,1146c <__subtf3+0x380>
   11480:	00050413          	mv	s0,a0
   11484:	00300893          	li	a7,3
   11488:	01f3f293          	and	t0,t2,31
   1148c:	408888b3          	sub	a7,a7,s0
   11490:	5e029ee3          	bnez	t0,1228c <__subtf3+0x11a0>
   11494:	00241513          	sll	a0,s0,0x2
   11498:	00a706b3          	add	a3,a4,a0
   1149c:	0006a683          	lw	a3,0(a3)
   114a0:	00128293          	add	t0,t0,1
   114a4:	00470713          	add	a4,a4,4
   114a8:	fed72e23          	sw	a3,-4(a4)
   114ac:	fe58d6e3          	bge	a7,t0,11498 <__subtf3+0x3ac>
   114b0:	00400713          	li	a4,4
   114b4:	40870733          	sub	a4,a4,s0
   114b8:	00300693          	li	a3,3
   114bc:	01012283          	lw	t0,16(sp)
   114c0:	02e6ce63          	blt	a3,a4,114fc <__subtf3+0x410>
   114c4:	00400693          	li	a3,4
   114c8:	40e686b3          	sub	a3,a3,a4
   114cc:	00269693          	sll	a3,a3,0x2
   114d0:	00271713          	sll	a4,a4,0x2
   114d4:	00800513          	li	a0,8
   114d8:	00ee8733          	add	a4,t4,a4
   114dc:	00a6ea63          	bltu	a3,a0,114f0 <__subtf3+0x404>
   114e0:	00072023          	sw	zero,0(a4)
   114e4:	00072223          	sw	zero,4(a4)
   114e8:	ff868693          	add	a3,a3,-8
   114ec:	00870713          	add	a4,a4,8
   114f0:	00400513          	li	a0,4
   114f4:	00a6e463          	bltu	a3,a0,114fc <__subtf3+0x410>
   114f8:	00072023          	sw	zero,0(a4)
   114fc:	00f03733          	snez	a4,a5
   11500:	01412883          	lw	a7,20(sp)
   11504:	01812683          	lw	a3,24(sp)
   11508:	01c12783          	lw	a5,28(sp)
   1150c:	00576733          	or	a4,a4,t0
   11510:	41160eb3          	sub	t4,a2,a7
   11514:	40df8533          	sub	a0,t6,a3
   11518:	40fe0e33          	sub	t3,t3,a5
   1151c:	6280006f          	j	11b44 <__subtf3+0xa58>
   11520:	02412f03          	lw	t5,36(sp)
   11524:	02812803          	lw	a6,40(sp)
   11528:	02c12583          	lw	a1,44(sp)
   1152c:	010f6733          	or	a4,t5,a6
   11530:	00b76733          	or	a4,a4,a1
   11534:	00676733          	or	a4,a4,t1
   11538:	54070c63          	beqz	a4,11a90 <__subtf3+0x9a4>
   1153c:	fff68713          	add	a4,a3,-1
   11540:	48070ae3          	beqz	a4,121d4 <__subtf3+0x10e8>
   11544:	54c68663          	beq	a3,a2,11a90 <__subtf3+0x9a4>
   11548:	07400693          	li	a3,116
   1154c:	cee6c6e3          	blt	a3,a4,11238 <__subtf3+0x14c>
   11550:	00070693          	mv	a3,a4
   11554:	4056d293          	sra	t0,a3,0x5
   11558:	01f6f693          	and	a3,a3,31
   1155c:	76028ee3          	beqz	t0,124d8 <__subtf3+0x13ec>
   11560:	00229313          	sll	t1,t0,0x2
   11564:	00f30f33          	add	t5,t1,a5
   11568:	00078713          	mv	a4,a5
   1156c:	00000613          	li	a2,0
   11570:	00072803          	lw	a6,0(a4)
   11574:	00470713          	add	a4,a4,4
   11578:	01066633          	or	a2,a2,a6
   1157c:	feef1ae3          	bne	t5,a4,11570 <__subtf3+0x484>
   11580:	00300713          	li	a4,3
   11584:	40570733          	sub	a4,a4,t0
   11588:	46068863          	beqz	a3,119f8 <__subtf3+0x90c>
   1158c:	04030813          	add	a6,t1,64
   11590:	00280833          	add	a6,a6,sp
   11594:	fe082803          	lw	a6,-32(a6)
   11598:	02000393          	li	t2,32
   1159c:	40d383b3          	sub	t2,t2,a3
   115a0:	00781833          	sll	a6,a6,t2
   115a4:	01066633          	or	a2,a2,a6
   115a8:	00d5d5b3          	srl	a1,a1,a3
   115ac:	720702e3          	beqz	a4,124d0 <__subtf3+0x13e4>
   115b0:	05312623          	sw	s3,76(sp)
   115b4:	00271813          	sll	a6,a4,0x2
   115b8:	006f8333          	add	t1,t6,t1
   115bc:	00f809b3          	add	s3,a6,a5
   115c0:	00032703          	lw	a4,0(t1)
   115c4:	00432f03          	lw	t5,4(t1)
   115c8:	00478793          	add	a5,a5,4
   115cc:	00d75733          	srl	a4,a4,a3
   115d0:	007f1f33          	sll	t5,t5,t2
   115d4:	01e76733          	or	a4,a4,t5
   115d8:	fee7ae23          	sw	a4,-4(a5)
   115dc:	00430313          	add	t1,t1,4
   115e0:	fef990e3          	bne	s3,a5,115c0 <__subtf3+0x4d4>
   115e4:	04080793          	add	a5,a6,64
   115e8:	00278733          	add	a4,a5,sp
   115ec:	00400793          	li	a5,4
   115f0:	04c12983          	lw	s3,76(sp)
   115f4:	405787b3          	sub	a5,a5,t0
   115f8:	feb72023          	sw	a1,-32(a4)
   115fc:	41c0006f          	j	11a18 <__subtf3+0x92c>
   11600:	00078613          	mv	a2,a5
   11604:	deb49ce3          	bne	s1,a1,113fc <__subtf3+0x310>
   11608:	4a068263          	beqz	a3,11aac <__subtf3+0x9c0>
   1160c:	40880533          	sub	a0,a6,s0
   11610:	0e0414e3          	bnez	s0,11ef8 <__subtf3+0xe0c>
   11614:	01412783          	lw	a5,20(sp)
   11618:	01812283          	lw	t0,24(sp)
   1161c:	01c12683          	lw	a3,28(sp)
   11620:	0057e5b3          	or	a1,a5,t0
   11624:	00d5e5b3          	or	a1,a1,a3
   11628:	0115e5b3          	or	a1,a1,a7
   1162c:	6c0588e3          	beqz	a1,124fc <__subtf3+0x1410>
   11630:	fff50593          	add	a1,a0,-1
   11634:	00059463          	bnez	a1,1163c <__subtf3+0x550>
   11638:	09c0106f          	j	126d4 <__subtf3+0x15e8>
   1163c:	000087b7          	lui	a5,0x8
   11640:	fff78793          	add	a5,a5,-1 # 7fff <_ldcheck+0x23>
   11644:	00f51463          	bne	a0,a5,1164c <__subtf3+0x560>
   11648:	1740106f          	j	127bc <__subtf3+0x16d0>
   1164c:	07400793          	li	a5,116
   11650:	0cb7c6e3          	blt	a5,a1,11f1c <__subtf3+0xe30>
   11654:	01f00793          	li	a5,31
   11658:	7ab7d4e3          	bge	a5,a1,12600 <__subtf3+0x1514>
   1165c:	4055d413          	sra	s0,a1,0x5
   11660:	00058513          	mv	a0,a1
   11664:	00070893          	mv	a7,a4
   11668:	00000793          	li	a5,0
   1166c:	00000593          	li	a1,0
   11670:	0008a283          	lw	t0,0(a7)
   11674:	00158593          	add	a1,a1,1
   11678:	00488893          	add	a7,a7,4
   1167c:	0057e7b3          	or	a5,a5,t0
   11680:	fe85c8e3          	blt	a1,s0,11670 <__subtf3+0x584>
   11684:	00040893          	mv	a7,s0
   11688:	00300393          	li	t2,3
   1168c:	01f57593          	and	a1,a0,31
   11690:	411383b3          	sub	t2,t2,a7
   11694:	76059ee3          	bnez	a1,12610 <__subtf3+0x1524>
   11698:	00289513          	sll	a0,a7,0x2
   1169c:	00a706b3          	add	a3,a4,a0
   116a0:	0006a683          	lw	a3,0(a3)
   116a4:	00158593          	add	a1,a1,1
   116a8:	00470713          	add	a4,a4,4
   116ac:	fed72e23          	sw	a3,-4(a4)
   116b0:	feb3d6e3          	bge	t2,a1,1169c <__subtf3+0x5b0>
   116b4:	00400713          	li	a4,4
   116b8:	411708b3          	sub	a7,a4,a7
   116bc:	00300713          	li	a4,3
   116c0:	01012583          	lw	a1,16(sp)
   116c4:	03174e63          	blt	a4,a7,11700 <__subtf3+0x614>
   116c8:	00400693          	li	a3,4
   116cc:	411686b3          	sub	a3,a3,a7
   116d0:	00269693          	sll	a3,a3,0x2
   116d4:	00289893          	sll	a7,a7,0x2
   116d8:	00800513          	li	a0,8
   116dc:	011e8733          	add	a4,t4,a7
   116e0:	00a6ea63          	bltu	a3,a0,116f4 <__subtf3+0x608>
   116e4:	00072023          	sw	zero,0(a4)
   116e8:	00072223          	sw	zero,4(a4)
   116ec:	ff868693          	add	a3,a3,-8
   116f0:	00870713          	add	a4,a4,8
   116f4:	00400513          	li	a0,4
   116f8:	00a6e463          	bltu	a3,a0,11700 <__subtf3+0x614>
   116fc:	00072023          	sw	zero,0(a4)
   11700:	00f03733          	snez	a4,a5
   11704:	01c12683          	lw	a3,28(sp)
   11708:	01412783          	lw	a5,20(sp)
   1170c:	00b76733          	or	a4,a4,a1
   11710:	01812583          	lw	a1,24(sp)
   11714:	00f607b3          	add	a5,a2,a5
   11718:	00de0e33          	add	t3,t3,a3
   1171c:	00bf85b3          	add	a1,t6,a1
   11720:	0090006f          	j	11f28 <__subtf3+0xe3c>
   11724:	32c40ee3          	beq	s0,a2,12260 <__subtf3+0x1174>
   11728:	02c12583          	lw	a1,44(sp)
   1172c:	00080637          	lui	a2,0x80
   11730:	07400713          	li	a4,116
   11734:	00c5e5b3          	or	a1,a1,a2
   11738:	02b12623          	sw	a1,44(sp)
   1173c:	bed750e3          	bge	a4,a3,1131c <__subtf3+0x230>
   11740:	00000813          	li	a6,0
   11744:	00000693          	li	a3,0
   11748:	00000793          	li	a5,0
   1174c:	00100713          	li	a4,1
   11750:	00e88733          	add	a4,a7,a4
   11754:	01d785b3          	add	a1,a5,t4
   11758:	011738b3          	sltu	a7,a4,a7
   1175c:	011588b3          	add	a7,a1,a7
   11760:	00f5b7b3          	sltu	a5,a1,a5
   11764:	00b8b5b3          	sltu	a1,a7,a1
   11768:	00a68633          	add	a2,a3,a0
   1176c:	00b7e7b3          	or	a5,a5,a1
   11770:	00f607b3          	add	a5,a2,a5
   11774:	00d636b3          	sltu	a3,a2,a3
   11778:	00c7b633          	sltu	a2,a5,a2
   1177c:	00c6e6b3          	or	a3,a3,a2
   11780:	01c80633          	add	a2,a6,t3
   11784:	00c68e33          	add	t3,a3,a2
   11788:	02f12c23          	sw	a5,56(sp)
   1178c:	02e12823          	sw	a4,48(sp)
   11790:	03112a23          	sw	a7,52(sp)
   11794:	00ce1793          	sll	a5,t3,0xc
   11798:	1007ca63          	bltz	a5,118ac <__subtf3+0x7c0>
   1179c:	03c12e23          	sw	t3,60(sp)
   117a0:	00777693          	and	a3,a4,7
   117a4:	03010793          	add	a5,sp,48
   117a8:	24068263          	beqz	a3,119ec <__subtf3+0x900>
   117ac:	00f77693          	and	a3,a4,15
   117b0:	00400613          	li	a2,4
   117b4:	02c68c63          	beq	a3,a2,117ec <__subtf3+0x700>
   117b8:	03412683          	lw	a3,52(sp)
   117bc:	00470713          	add	a4,a4,4
   117c0:	03812583          	lw	a1,56(sp)
   117c4:	00473613          	sltiu	a2,a4,4
   117c8:	00c68633          	add	a2,a3,a2
   117cc:	00d636b3          	sltu	a3,a2,a3
   117d0:	00d586b3          	add	a3,a1,a3
   117d4:	00b6b5b3          	sltu	a1,a3,a1
   117d8:	00be0e33          	add	t3,t3,a1
   117dc:	02e12823          	sw	a4,48(sp)
   117e0:	02c12a23          	sw	a2,52(sp)
   117e4:	02d12c23          	sw	a3,56(sp)
   117e8:	03c12e23          	sw	t3,60(sp)
   117ec:	00080737          	lui	a4,0x80
   117f0:	00ee7733          	and	a4,t3,a4
   117f4:	12070c63          	beqz	a4,1192c <__subtf3+0x840>
   117f8:	00008737          	lui	a4,0x8
   117fc:	00140413          	add	s0,s0,1
   11800:	fff70713          	add	a4,a4,-1 # 7fff <_ldcheck+0x23>
   11804:	14e40a63          	beq	s0,a4,11958 <__subtf3+0x86c>
   11808:	fff80637          	lui	a2,0xfff80
   1180c:	fff60613          	add	a2,a2,-1 # fff7ffff <__alt_data_end+0xfff5ffff>
   11810:	00ce7633          	and	a2,t3,a2
   11814:	02c12e23          	sw	a2,60(sp)
   11818:	00365613          	srl	a2,a2,0x3
   1181c:	03012683          	lw	a3,48(sp)
   11820:	03c10513          	add	a0,sp,60
   11824:	0036d593          	srl	a1,a3,0x3
   11828:	0047a683          	lw	a3,4(a5)
   1182c:	00478793          	add	a5,a5,4
   11830:	01d69713          	sll	a4,a3,0x1d
   11834:	00b76733          	or	a4,a4,a1
   11838:	fee7ae23          	sw	a4,-4(a5)
   1183c:	fea794e3          	bne	a5,a0,11824 <__subtf3+0x738>
   11840:	000087b7          	lui	a5,0x8
   11844:	fff78793          	add	a5,a5,-1 # 7fff <_ldcheck+0x23>
   11848:	03012703          	lw	a4,48(sp)
   1184c:	03412583          	lw	a1,52(sp)
   11850:	03812683          	lw	a3,56(sp)
   11854:	0ef40063          	beq	s0,a5,11934 <__subtf3+0x848>
   11858:	01061793          	sll	a5,a2,0x10
   1185c:	0107d793          	srl	a5,a5,0x10
   11860:	0014f493          	and	s1,s1,1
   11864:	01141413          	sll	s0,s0,0x11
   11868:	01145413          	srl	s0,s0,0x11
   1186c:	00f49493          	sll	s1,s1,0xf
   11870:	0084e4b3          	or	s1,s1,s0
   11874:	00911723          	sh	s1,14(sp)
   11878:	00f11623          	sh	a5,12(sp)
   1187c:	00c12783          	lw	a5,12(sp)
   11880:	05c12083          	lw	ra,92(sp)
   11884:	05812403          	lw	s0,88(sp)
   11888:	00e92023          	sw	a4,0(s2)
   1188c:	00b92223          	sw	a1,4(s2)
   11890:	00d92423          	sw	a3,8(s2)
   11894:	00f92623          	sw	a5,12(s2)
   11898:	05412483          	lw	s1,84(sp)
   1189c:	00090513          	mv	a0,s2
   118a0:	05012903          	lw	s2,80(sp)
   118a4:	06010113          	add	sp,sp,96
   118a8:	00008067          	ret
   118ac:	fff807b7          	lui	a5,0xfff80
   118b0:	fff78793          	add	a5,a5,-1 # fff7ffff <__alt_data_end+0xfff5ffff>
   118b4:	00fe75b3          	and	a1,t3,a5
   118b8:	03010793          	add	a5,sp,48
   118bc:	02b12e23          	sw	a1,60(sp)
   118c0:	00140413          	add	s0,s0,1
   118c4:	01f71813          	sll	a6,a4,0x1f
   118c8:	00078693          	mv	a3,a5
   118cc:	03c10893          	add	a7,sp,60
   118d0:	00175513          	srl	a0,a4,0x1
   118d4:	0046a703          	lw	a4,4(a3)
   118d8:	00468693          	add	a3,a3,4
   118dc:	01f71613          	sll	a2,a4,0x1f
   118e0:	00a66633          	or	a2,a2,a0
   118e4:	fec6ae23          	sw	a2,-4(a3)
   118e8:	ff1694e3          	bne	a3,a7,118d0 <__subtf3+0x7e4>
   118ec:	03012703          	lw	a4,48(sp)
   118f0:	010036b3          	snez	a3,a6
   118f4:	0015de13          	srl	t3,a1,0x1
   118f8:	00e6e733          	or	a4,a3,a4
   118fc:	000086b7          	lui	a3,0x8
   11900:	03c12e23          	sw	t3,60(sp)
   11904:	02e12823          	sw	a4,48(sp)
   11908:	fff68693          	add	a3,a3,-1 # 7fff <_ldcheck+0x23>
   1190c:	56d41263          	bne	s0,a3,11e70 <__subtf3+0xd84>
   11910:	00008437          	lui	s0,0x8
   11914:	02012e23          	sw	zero,60(sp)
   11918:	02012c23          	sw	zero,56(sp)
   1191c:	02012a23          	sw	zero,52(sp)
   11920:	02012823          	sw	zero,48(sp)
   11924:	fff40413          	add	s0,s0,-1 # 7fff <_ldcheck+0x23>
   11928:	00000e13          	li	t3,0
   1192c:	003e5613          	srl	a2,t3,0x3
   11930:	eedff06f          	j	1181c <__subtf3+0x730>
   11934:	00b76733          	or	a4,a4,a1
   11938:	00d76733          	or	a4,a4,a3
   1193c:	00c76733          	or	a4,a4,a2
   11940:	02071863          	bnez	a4,11970 <__subtf3+0x884>
   11944:	0014f493          	and	s1,s1,1
   11948:	00000693          	li	a3,0
   1194c:	00000593          	li	a1,0
   11950:	00000793          	li	a5,0
   11954:	f11ff06f          	j	11864 <__subtf3+0x778>
   11958:	02012e23          	sw	zero,60(sp)
   1195c:	02012c23          	sw	zero,56(sp)
   11960:	02012a23          	sw	zero,52(sp)
   11964:	02012823          	sw	zero,48(sp)
   11968:	00000613          	li	a2,0
   1196c:	eb1ff06f          	j	1181c <__subtf3+0x730>
   11970:	00000493          	li	s1,0
   11974:	000087b7          	lui	a5,0x8
   11978:	00000693          	li	a3,0
   1197c:	00000593          	li	a1,0
   11980:	00000713          	li	a4,0
   11984:	ee1ff06f          	j	11864 <__subtf3+0x778>
   11988:	00140793          	add	a5,s0,1
   1198c:	01179713          	sll	a4,a5,0x11
   11990:	01275713          	srl	a4,a4,0x12
   11994:	01412e83          	lw	t4,20(sp)
   11998:	01812f03          	lw	t5,24(sp)
   1199c:	01c12683          	lw	a3,28(sp)
   119a0:	00008537          	lui	a0,0x8
   119a4:	1c071a63          	bnez	a4,11b78 <__subtf3+0xa8c>
   119a8:	01f66733          	or	a4,a2,t6
   119ac:	01eee7b3          	or	a5,t4,t5
   119b0:	00676733          	or	a4,a4,t1
   119b4:	00d7e7b3          	or	a5,a5,a3
   119b8:	01c76733          	or	a4,a4,t3
   119bc:	0117e7b3          	or	a5,a5,a7
   119c0:	68041e63          	bnez	s0,1205c <__subtf3+0xf70>
   119c4:	16078ee3          	beqz	a5,12340 <__subtf3+0x1254>
   119c8:	1e0718e3          	bnez	a4,123b8 <__subtf3+0x12cc>
   119cc:	03112823          	sw	a7,48(sp)
   119d0:	03d12a23          	sw	t4,52(sp)
   119d4:	03e12c23          	sw	t5,56(sp)
   119d8:	02d12e23          	sw	a3,60(sp)
   119dc:	00068e13          	mv	t3,a3
   119e0:	03010793          	add	a5,sp,48
   119e4:	e09ff06f          	j	117ec <__subtf3+0x700>
   119e8:	03c12e23          	sw	t3,60(sp)
   119ec:	003e5613          	srl	a2,t3,0x3
   119f0:	03010793          	add	a5,sp,48
   119f4:	e29ff06f          	j	1181c <__subtf3+0x730>
   119f8:	006785b3          	add	a1,a5,t1
   119fc:	0005a583          	lw	a1,0(a1)
   11a00:	00168693          	add	a3,a3,1
   11a04:	00478793          	add	a5,a5,4 # 8004 <_ldcheck+0x28>
   11a08:	feb7ae23          	sw	a1,-4(a5)
   11a0c:	fed756e3          	bge	a4,a3,119f8 <__subtf3+0x90c>
   11a10:	00400793          	li	a5,4
   11a14:	405787b3          	sub	a5,a5,t0
   11a18:	00400713          	li	a4,4
   11a1c:	02012583          	lw	a1,32(sp)
   11a20:	02e78e63          	beq	a5,a4,11a5c <__subtf3+0x970>
   11a24:	00400713          	li	a4,4
   11a28:	40f70733          	sub	a4,a4,a5
   11a2c:	00271713          	sll	a4,a4,0x2
   11a30:	00279793          	sll	a5,a5,0x2
   11a34:	00800693          	li	a3,8
   11a38:	00ff87b3          	add	a5,t6,a5
   11a3c:	00d76a63          	bltu	a4,a3,11a50 <__subtf3+0x964>
   11a40:	0007a023          	sw	zero,0(a5)
   11a44:	0007a223          	sw	zero,4(a5)
   11a48:	ff870713          	add	a4,a4,-8
   11a4c:	00878793          	add	a5,a5,8
   11a50:	00400693          	li	a3,4
   11a54:	00d76463          	bltu	a4,a3,11a5c <__subtf3+0x970>
   11a58:	0007a023          	sw	zero,0(a5)
   11a5c:	00c03733          	snez	a4,a2
   11a60:	02412803          	lw	a6,36(sp)
   11a64:	02812683          	lw	a3,40(sp)
   11a68:	02c12603          	lw	a2,44(sp)
   11a6c:	00b76733          	or	a4,a4,a1
   11a70:	fd8ff06f          	j	11248 <__subtf3+0x15c>
   11a74:	fffe8513          	add	a0,t4,-1
   11a78:	00deb5b3          	sltu	a1,t4,a3
   11a7c:	40d50533          	sub	a0,a0,a3
   11a80:	41d686b3          	sub	a3,a3,t4
   11a84:	0016b693          	seqz	a3,a3
   11a88:	00d5e5b3          	or	a1,a1,a3
   11a8c:	fecff06f          	j	11278 <__subtf3+0x18c>
   11a90:	03112823          	sw	a7,48(sp)
   11a94:	02a12a23          	sw	a0,52(sp)
   11a98:	03d12c23          	sw	t4,56(sp)
   11a9c:	03c12e23          	sw	t3,60(sp)
   11aa0:	00068413          	mv	s0,a3
   11aa4:	03010793          	add	a5,sp,48
   11aa8:	d45ff06f          	j	117ec <__subtf3+0x700>
   11aac:	00140513          	add	a0,s0,1
   11ab0:	01151693          	sll	a3,a0,0x11
   11ab4:	0126d693          	srl	a3,a3,0x12
   11ab8:	01412783          	lw	a5,20(sp)
   11abc:	01812703          	lw	a4,24(sp)
   11ac0:	01c12583          	lw	a1,28(sp)
   11ac4:	00008837          	lui	a6,0x8
   11ac8:	50069263          	bnez	a3,11fcc <__subtf3+0xee0>
   11acc:	00e7e6b3          	or	a3,a5,a4
   11ad0:	00b6e6b3          	or	a3,a3,a1
   11ad4:	0116e6b3          	or	a3,a3,a7
   11ad8:	040414e3          	bnez	s0,12320 <__subtf3+0x1234>
   11adc:	260688e3          	beqz	a3,1254c <__subtf3+0x1460>
   11ae0:	01f666b3          	or	a3,a2,t6
   11ae4:	0066e6b3          	or	a3,a3,t1
   11ae8:	01c6e6b3          	or	a3,a3,t3
   11aec:	26069ce3          	bnez	a3,12564 <__subtf3+0x1478>
   11af0:	02f12a23          	sw	a5,52(sp)
   11af4:	03112823          	sw	a7,48(sp)
   11af8:	02e12c23          	sw	a4,56(sp)
   11afc:	02b12e23          	sw	a1,60(sp)
   11b00:	00058e13          	mv	t3,a1
   11b04:	03010793          	add	a5,sp,48
   11b08:	ce5ff06f          	j	117ec <__subtf3+0x700>
   11b0c:	000087b7          	lui	a5,0x8
   11b10:	fff78793          	add	a5,a5,-1 # 7fff <_ldcheck+0x23>
   11b14:	2cf800e3          	beq	a6,a5,125d4 <__subtf3+0x14e8>
   11b18:	01c12683          	lw	a3,28(sp)
   11b1c:	00080537          	lui	a0,0x80
   11b20:	07400793          	li	a5,116
   11b24:	00a6e6b3          	or	a3,a3,a0
   11b28:	00d12e23          	sw	a3,28(sp)
   11b2c:	4677dc63          	bge	a5,t2,11fa4 <__subtf3+0xeb8>
   11b30:	000f8513          	mv	a0,t6
   11b34:	00060e93          	mv	t4,a2
   11b38:	00000693          	li	a3,0
   11b3c:	00000893          	li	a7,0
   11b40:	00100713          	li	a4,1
   11b44:	40e30733          	sub	a4,t1,a4
   11b48:	00e337b3          	sltu	a5,t1,a4
   11b4c:	01d63f33          	sltu	t5,a2,t4
   11b50:	40fe87b3          	sub	a5,t4,a5
   11b54:	00e37463          	bgeu	t1,a4,11b5c <__subtf3+0xa70>
   11b58:	6d160e63          	beq	a2,a7,12234 <__subtf3+0x1148>
   11b5c:	00afb8b3          	sltu	a7,t6,a0
   11b60:	41e50533          	sub	a0,a0,t5
   11b64:	6dd66c63          	bltu	a2,t4,1223c <__subtf3+0x1150>
   11b68:	411e0e33          	sub	t3,t3,a7
   11b6c:	00080413          	mv	s0,a6
   11b70:	00058493          	mv	s1,a1
   11b74:	f0cff06f          	j	11280 <__subtf3+0x194>
   11b78:	40ce8733          	sub	a4,t4,a2
   11b7c:	406887b3          	sub	a5,a7,t1
   11b80:	00eeb3b3          	sltu	t2,t4,a4
   11b84:	05312623          	sw	s3,76(sp)
   11b88:	00f8b533          	sltu	a0,a7,a5
   11b8c:	00038993          	mv	s3,t2
   11b90:	40a70733          	sub	a4,a4,a0
   11b94:	41ff0833          	sub	a6,t5,t6
   11b98:	01ff32b3          	sltu	t0,t5,t6
   11b9c:	06f8f063          	bgeu	a7,a5,11bfc <__subtf3+0xb10>
   11ba0:	05d61e63          	bne	a2,t4,11bfc <__subtf3+0xb10>
   11ba4:	fff80813          	add	a6,a6,-1 # 7fff <_ldcheck+0x23>
   11ba8:	41ef8533          	sub	a0,t6,t5
   11bac:	00153513          	seqz	a0,a0
   11bb0:	00a2e2b3          	or	t0,t0,a0
   11bb4:	41c68533          	sub	a0,a3,t3
   11bb8:	40550533          	sub	a0,a0,t0
   11bbc:	02a12e23          	sw	a0,60(sp)
   11bc0:	03012c23          	sw	a6,56(sp)
   11bc4:	02e12a23          	sw	a4,52(sp)
   11bc8:	02f12823          	sw	a5,48(sp)
   11bcc:	00c51293          	sll	t0,a0,0xc
   11bd0:	5002ca63          	bltz	t0,120e4 <__subtf3+0xff8>
   11bd4:	00e7e7b3          	or	a5,a5,a4
   11bd8:	0107e7b3          	or	a5,a5,a6
   11bdc:	00a7e7b3          	or	a5,a5,a0
   11be0:	54079863          	bnez	a5,12130 <__subtf3+0x1044>
   11be4:	04c12983          	lw	s3,76(sp)
   11be8:	00000413          	li	s0,0
   11bec:	00000493          	li	s1,0
   11bf0:	03010793          	add	a5,sp,48
   11bf4:	00000e13          	li	t3,0
   11bf8:	d35ff06f          	j	1192c <__subtf3+0x840>
   11bfc:	41380833          	sub	a6,a6,s3
   11c00:	fa038ae3          	beqz	t2,11bb4 <__subtf3+0xac8>
   11c04:	fa5ff06f          	j	11ba8 <__subtf3+0xabc>
   11c08:	03412503          	lw	a0,52(sp)
   11c0c:	36051663          	bnez	a0,11f78 <__subtf3+0xe8c>
   11c10:	05312623          	sw	s3,76(sp)
   11c14:	03012983          	lw	s3,48(sp)
   11c18:	00098513          	mv	a0,s3
   11c1c:	1e8010ef          	jal	12e04 <__clzsi2>
   11c20:	05450613          	add	a2,a0,84 # 80054 <__alt_data_end+0x60054>
   11c24:	01f67893          	and	a7,a2,31
   11c28:	060890e3          	bnez	a7,12488 <__subtf3+0x139c>
   11c2c:	04c12983          	lw	s3,76(sp)
   11c30:	40565593          	sra	a1,a2,0x5
   11c34:	40b006b3          	neg	a3,a1
   11c38:	00269693          	sll	a3,a3,0x2
   11c3c:	00c68713          	add	a4,a3,12
   11c40:	03010793          	add	a5,sp,48
   11c44:	00e78733          	add	a4,a5,a4
   11c48:	40d006b3          	neg	a3,a3
   11c4c:	00072883          	lw	a7,0(a4)
   11c50:	00d70833          	add	a6,a4,a3
   11c54:	00070513          	mv	a0,a4
   11c58:	01182023          	sw	a7,0(a6)
   11c5c:	ffc70713          	add	a4,a4,-4
   11c60:	fef516e3          	bne	a0,a5,11c4c <__subtf3+0xb60>
   11c64:	fff58713          	add	a4,a1,-1
   11c68:	07c0006f          	j	11ce4 <__subtf3+0xbf8>
   11c6c:	05312623          	sw	s3,76(sp)
   11c70:	194010ef          	jal	12e04 <__clzsi2>
   11c74:	ff450613          	add	a2,a0,-12
   11c78:	00060893          	mv	a7,a2
   11c7c:	03012983          	lw	s3,48(sp)
   11c80:	02000e13          	li	t3,32
   11c84:	40ce0e33          	sub	t3,t3,a2
   11c88:	00000593          	li	a1,0
   11c8c:	011999b3          	sll	s3,s3,a7
   11c90:	40b00833          	neg	a6,a1
   11c94:	00281813          	sll	a6,a6,0x2
   11c98:	00c80713          	add	a4,a6,12
   11c9c:	03010793          	add	a5,sp,48
   11ca0:	00e78733          	add	a4,a5,a4
   11ca4:	41000833          	neg	a6,a6
   11ca8:	00072683          	lw	a3,0(a4)
   11cac:	ffc72503          	lw	a0,-4(a4)
   11cb0:	01070333          	add	t1,a4,a6
   11cb4:	011696b3          	sll	a3,a3,a7
   11cb8:	01c55533          	srl	a0,a0,t3
   11cbc:	00a6e6b3          	or	a3,a3,a0
   11cc0:	00d32023          	sw	a3,0(t1)
   11cc4:	ffc70713          	add	a4,a4,-4
   11cc8:	fee790e3          	bne	a5,a4,11ca8 <__subtf3+0xbbc>
   11ccc:	00259693          	sll	a3,a1,0x2
   11cd0:	04068713          	add	a4,a3,64
   11cd4:	002706b3          	add	a3,a4,sp
   11cd8:	ff36a823          	sw	s3,-16(a3)
   11cdc:	04c12983          	lw	s3,76(sp)
   11ce0:	fff58713          	add	a4,a1,-1
   11ce4:	fff00693          	li	a3,-1
   11ce8:	02d70a63          	beq	a4,a3,11d1c <__subtf3+0xc30>
   11cec:	00170713          	add	a4,a4,1
   11cf0:	00271713          	sll	a4,a4,0x2
   11cf4:	00800593          	li	a1,8
   11cf8:	00078693          	mv	a3,a5
   11cfc:	00b76a63          	bltu	a4,a1,11d10 <__subtf3+0xc24>
   11d00:	02012823          	sw	zero,48(sp)
   11d04:	0007a223          	sw	zero,4(a5)
   11d08:	03810693          	add	a3,sp,56
   11d0c:	ff870713          	add	a4,a4,-8
   11d10:	00400593          	li	a1,4
   11d14:	00b76463          	bltu	a4,a1,11d1c <__subtf3+0xc30>
   11d18:	0006a023          	sw	zero,0(a3)
   11d1c:	12864c63          	blt	a2,s0,11e54 <__subtf3+0xd68>
   11d20:	408606b3          	sub	a3,a2,s0
   11d24:	00168693          	add	a3,a3,1
   11d28:	4056d313          	sra	t1,a3,0x5
   11d2c:	01f6f693          	and	a3,a3,31
   11d30:	72030a63          	beqz	t1,12464 <__subtf3+0x1378>
   11d34:	00231593          	sll	a1,t1,0x2
   11d38:	00078613          	mv	a2,a5
   11d3c:	00f58833          	add	a6,a1,a5
   11d40:	00000713          	li	a4,0
   11d44:	00062503          	lw	a0,0(a2)
   11d48:	00460613          	add	a2,a2,4
   11d4c:	00a76733          	or	a4,a4,a0
   11d50:	fec81ae3          	bne	a6,a2,11d44 <__subtf3+0xc58>
   11d54:	00300513          	li	a0,3
   11d58:	40650533          	sub	a0,a0,t1
   11d5c:	06068c63          	beqz	a3,11dd4 <__subtf3+0xce8>
   11d60:	04058613          	add	a2,a1,64
   11d64:	00260633          	add	a2,a2,sp
   11d68:	ff062603          	lw	a2,-16(a2)
   11d6c:	03c12e83          	lw	t4,60(sp)
   11d70:	02000e13          	li	t3,32
   11d74:	40de0e33          	sub	t3,t3,a3
   11d78:	01c61633          	sll	a2,a2,t3
   11d7c:	00c76733          	or	a4,a4,a2
   11d80:	00dedeb3          	srl	t4,t4,a3
   11d84:	6c050c63          	beqz	a0,1245c <__subtf3+0x1370>
   11d88:	00251513          	sll	a0,a0,0x2
   11d8c:	00b78633          	add	a2,a5,a1
   11d90:	00078813          	mv	a6,a5
   11d94:	00a78f33          	add	t5,a5,a0
   11d98:	00062583          	lw	a1,0(a2)
   11d9c:	00462883          	lw	a7,4(a2)
   11da0:	00480813          	add	a6,a6,4
   11da4:	00d5d5b3          	srl	a1,a1,a3
   11da8:	01c898b3          	sll	a7,a7,t3
   11dac:	0115e5b3          	or	a1,a1,a7
   11db0:	feb82e23          	sw	a1,-4(a6)
   11db4:	00460613          	add	a2,a2,4
   11db8:	ff0f10e3          	bne	t5,a6,11d98 <__subtf3+0xcac>
   11dbc:	04050693          	add	a3,a0,64
   11dc0:	00268533          	add	a0,a3,sp
   11dc4:	00400693          	li	a3,4
   11dc8:	406686b3          	sub	a3,a3,t1
   11dcc:	ffd52823          	sw	t4,-16(a0)
   11dd0:	0280006f          	j	11df8 <__subtf3+0xd0c>
   11dd4:	00078613          	mv	a2,a5
   11dd8:	00b60833          	add	a6,a2,a1
   11ddc:	00082803          	lw	a6,0(a6)
   11de0:	00168693          	add	a3,a3,1
   11de4:	00460613          	add	a2,a2,4
   11de8:	ff062e23          	sw	a6,-4(a2)
   11dec:	fed556e3          	bge	a0,a3,11dd8 <__subtf3+0xcec>
   11df0:	00400693          	li	a3,4
   11df4:	406686b3          	sub	a3,a3,t1
   11df8:	00400613          	li	a2,4
   11dfc:	03012e83          	lw	t4,48(sp)
   11e00:	02c68e63          	beq	a3,a2,11e3c <__subtf3+0xd50>
   11e04:	00400613          	li	a2,4
   11e08:	40d60633          	sub	a2,a2,a3
   11e0c:	00261613          	sll	a2,a2,0x2
   11e10:	00269693          	sll	a3,a3,0x2
   11e14:	00800593          	li	a1,8
   11e18:	00d786b3          	add	a3,a5,a3
   11e1c:	00b66a63          	bltu	a2,a1,11e30 <__subtf3+0xd44>
   11e20:	0006a023          	sw	zero,0(a3)
   11e24:	0006a223          	sw	zero,4(a3)
   11e28:	ff860613          	add	a2,a2,-8
   11e2c:	00868693          	add	a3,a3,8
   11e30:	00400593          	li	a1,4
   11e34:	00b66463          	bltu	a2,a1,11e3c <__subtf3+0xd50>
   11e38:	0006a023          	sw	zero,0(a3)
   11e3c:	00e03733          	snez	a4,a4
   11e40:	01d76733          	or	a4,a4,t4
   11e44:	03c12e03          	lw	t3,60(sp)
   11e48:	02e12823          	sw	a4,48(sp)
   11e4c:	00000413          	li	s0,0
   11e50:	0200006f          	j	11e70 <__subtf3+0xd84>
   11e54:	03c12e03          	lw	t3,60(sp)
   11e58:	fff806b7          	lui	a3,0xfff80
   11e5c:	fff68693          	add	a3,a3,-1 # fff7ffff <__alt_data_end+0xfff5ffff>
   11e60:	03012703          	lw	a4,48(sp)
   11e64:	00de7e33          	and	t3,t3,a3
   11e68:	40c40433          	sub	s0,s0,a2
   11e6c:	03c12e23          	sw	t3,60(sp)
   11e70:	00777693          	and	a3,a4,7
   11e74:	92069ce3          	bnez	a3,117ac <__subtf3+0x6c0>
   11e78:	975ff06f          	j	117ec <__subtf3+0x700>
   11e7c:	006785b3          	add	a1,a5,t1
   11e80:	0005a583          	lw	a1,0(a1)
   11e84:	00168693          	add	a3,a3,1
   11e88:	00478793          	add	a5,a5,4
   11e8c:	feb7ae23          	sw	a1,-4(a5)
   11e90:	fed756e3          	bge	a4,a3,11e7c <__subtf3+0xd90>
   11e94:	00400793          	li	a5,4
   11e98:	41e787b3          	sub	a5,a5,t5
   11e9c:	00400713          	li	a4,4
   11ea0:	02012583          	lw	a1,32(sp)
   11ea4:	02e78e63          	beq	a5,a4,11ee0 <__subtf3+0xdf4>
   11ea8:	00400713          	li	a4,4
   11eac:	40f70733          	sub	a4,a4,a5
   11eb0:	00271713          	sll	a4,a4,0x2
   11eb4:	00279793          	sll	a5,a5,0x2
   11eb8:	00800693          	li	a3,8
   11ebc:	00ff87b3          	add	a5,t6,a5
   11ec0:	00d76a63          	bltu	a4,a3,11ed4 <__subtf3+0xde8>
   11ec4:	0007a023          	sw	zero,0(a5)
   11ec8:	0007a223          	sw	zero,4(a5)
   11ecc:	ff870713          	add	a4,a4,-8
   11ed0:	00878793          	add	a5,a5,8
   11ed4:	00400693          	li	a3,4
   11ed8:	00d76463          	bltu	a4,a3,11ee0 <__subtf3+0xdf4>
   11edc:	0007a023          	sw	zero,0(a5)
   11ee0:	00c03733          	snez	a4,a2
   11ee4:	02412783          	lw	a5,36(sp)
   11ee8:	02812683          	lw	a3,40(sp)
   11eec:	02c12803          	lw	a6,44(sp)
   11ef0:	00b76733          	or	a4,a4,a1
   11ef4:	85dff06f          	j	11750 <__subtf3+0x664>
   11ef8:	000087b7          	lui	a5,0x8
   11efc:	fff78793          	add	a5,a5,-1 # 7fff <_ldcheck+0x23>
   11f00:	0af80ee3          	beq	a6,a5,127bc <__subtf3+0x16d0>
   11f04:	01c12683          	lw	a3,28(sp)
   11f08:	000805b7          	lui	a1,0x80
   11f0c:	07400793          	li	a5,116
   11f10:	00b6e6b3          	or	a3,a3,a1
   11f14:	00d12e23          	sw	a3,28(sp)
   11f18:	58a7d863          	bge	a5,a0,124a8 <__subtf3+0x13bc>
   11f1c:	000f8593          	mv	a1,t6
   11f20:	00060793          	mv	a5,a2
   11f24:	00100713          	li	a4,1
   11f28:	00e30733          	add	a4,t1,a4
   11f2c:	00673333          	sltu	t1,a4,t1
   11f30:	00f308b3          	add	a7,t1,a5
   11f34:	0068b333          	sltu	t1,a7,t1
   11f38:	00c7b7b3          	sltu	a5,a5,a2
   11f3c:	0067e6b3          	or	a3,a5,t1
   11f40:	00b687b3          	add	a5,a3,a1
   11f44:	00d7b6b3          	sltu	a3,a5,a3
   11f48:	01f5b5b3          	sltu	a1,a1,t6
   11f4c:	00d5e6b3          	or	a3,a1,a3
   11f50:	00de0e33          	add	t3,t3,a3
   11f54:	00080413          	mv	s0,a6
   11f58:	831ff06f          	j	11788 <__subtf3+0x69c>
   11f5c:	05312623          	sw	s3,76(sp)
   11f60:	03012983          	lw	s3,48(sp)
   11f64:	02000e13          	li	t3,32
   11f68:	40565593          	sra	a1,a2,0x5
   11f6c:	411e0e33          	sub	t3,t3,a7
   11f70:	011999b3          	sll	s3,s3,a7
   11f74:	d1dff06f          	j	11c90 <__subtf3+0xba4>
   11f78:	68d000ef          	jal	12e04 <__clzsi2>
   11f7c:	03450613          	add	a2,a0,52
   11f80:	01f67893          	and	a7,a2,31
   11f84:	40565593          	sra	a1,a2,0x5
   11f88:	ca0886e3          	beqz	a7,11c34 <__subtf3+0xb48>
   11f8c:	05312623          	sw	s3,76(sp)
   11f90:	03012983          	lw	s3,48(sp)
   11f94:	02000e13          	li	t3,32
   11f98:	411e0e33          	sub	t3,t3,a7
   11f9c:	011999b3          	sll	s3,s3,a7
   11fa0:	cf1ff06f          	j	11c90 <__subtf3+0xba4>
   11fa4:	41f3d513          	sra	a0,t2,0x1f
   11fa8:	01f57513          	and	a0,a0,31
   11fac:	00750533          	add	a0,a0,t2
   11fb0:	01f00793          	li	a5,31
   11fb4:	40555513          	sra	a0,a0,0x5
   11fb8:	ca77c463          	blt	a5,t2,11460 <__subtf3+0x374>
   11fbc:	00050413          	mv	s0,a0
   11fc0:	00000793          	li	a5,0
   11fc4:	00000513          	li	a0,0
   11fc8:	cbcff06f          	j	11484 <__subtf3+0x398>
   11fcc:	00688333          	add	t1,a7,t1
   11fd0:	00f607b3          	add	a5,a2,a5
   11fd4:	01133833          	sltu	a6,t1,a7
   11fd8:	01078833          	add	a6,a5,a6
   11fdc:	00c7b6b3          	sltu	a3,a5,a2
   11fe0:	00f837b3          	sltu	a5,a6,a5
   11fe4:	00ef8733          	add	a4,t6,a4
   11fe8:	00f6e6b3          	or	a3,a3,a5
   11fec:	00d706b3          	add	a3,a4,a3
   11ff0:	01f73633          	sltu	a2,a4,t6
   11ff4:	00e6b733          	sltu	a4,a3,a4
   11ff8:	00e66633          	or	a2,a2,a4
   11ffc:	00be05b3          	add	a1,t3,a1
   12000:	00b60633          	add	a2,a2,a1
   12004:	03010793          	add	a5,sp,48
   12008:	03012a23          	sw	a6,52(sp)
   1200c:	02612823          	sw	t1,48(sp)
   12010:	02d12c23          	sw	a3,56(sp)
   12014:	02c12e23          	sw	a2,60(sp)
   12018:	00078713          	mv	a4,a5
   1201c:	03c10813          	add	a6,sp,60
   12020:	00135593          	srl	a1,t1,0x1
   12024:	00472303          	lw	t1,4(a4)
   12028:	00470713          	add	a4,a4,4
   1202c:	01f31693          	sll	a3,t1,0x1f
   12030:	00b6e6b3          	or	a3,a3,a1
   12034:	fed72e23          	sw	a3,-4(a4)
   12038:	fee814e3          	bne	a6,a4,12020 <__subtf3+0xf34>
   1203c:	00165e13          	srl	t3,a2,0x1
   12040:	00008737          	lui	a4,0x8
   12044:	03c12e23          	sw	t3,60(sp)
   12048:	fff70713          	add	a4,a4,-1 # 7fff <_ldcheck+0x23>
   1204c:	8ce502e3          	beq	a0,a4,11910 <__subtf3+0x824>
   12050:	03012703          	lw	a4,48(sp)
   12054:	00050413          	mv	s0,a0
   12058:	e19ff06f          	j	11e70 <__subtf3+0xd84>
   1205c:	4a079e63          	bnez	a5,12518 <__subtf3+0x142c>
   12060:	72071e63          	bnez	a4,1279c <__subtf3+0x16b0>
   12064:	02a12e23          	sw	a0,60(sp)
   12068:	02012c23          	sw	zero,56(sp)
   1206c:	02012a23          	sw	zero,52(sp)
   12070:	02012823          	sw	zero,48(sp)
   12074:	03010793          	add	a5,sp,48
   12078:	03c10713          	add	a4,sp,60
   1207c:	00008637          	lui	a2,0x8
   12080:	00361593          	sll	a1,a2,0x3
   12084:	ffc72603          	lw	a2,-4(a4)
   12088:	ffc70713          	add	a4,a4,-4
   1208c:	01d65693          	srl	a3,a2,0x1d
   12090:	00b6e6b3          	or	a3,a3,a1
   12094:	00d72223          	sw	a3,4(a4)
   12098:	fee794e3          	bne	a5,a4,12080 <__subtf3+0xf94>
   1209c:	03c12e03          	lw	t3,60(sp)
   120a0:	00080737          	lui	a4,0x80
   120a4:	00000493          	li	s1,0
   120a8:	00ee7733          	and	a4,t3,a4
   120ac:	00008437          	lui	s0,0x8
   120b0:	f4071c63          	bnez	a4,11808 <__subtf3+0x71c>
   120b4:	fff40413          	add	s0,s0,-1 # 7fff <_ldcheck+0x23>
   120b8:	003e5613          	srl	a2,t3,0x3
   120bc:	f60ff06f          	j	1181c <__subtf3+0x730>
   120c0:	04c12983          	lw	s3,76(sp)
   120c4:	02612823          	sw	t1,48(sp)
   120c8:	02c12a23          	sw	a2,52(sp)
   120cc:	03f12c23          	sw	t6,56(sp)
   120d0:	03c12e23          	sw	t3,60(sp)
   120d4:	00038413          	mv	s0,t2
   120d8:	00058493          	mv	s1,a1
   120dc:	03010793          	add	a5,sp,48
   120e0:	f0cff06f          	j	117ec <__subtf3+0x700>
   120e4:	41130833          	sub	a6,t1,a7
   120e8:	41d607b3          	sub	a5,a2,t4
   120ec:	01033733          	sltu	a4,t1,a6
   120f0:	41ef8f33          	sub	t5,t6,t5
   120f4:	00f632b3          	sltu	t0,a2,a5
   120f8:	00028893          	mv	a7,t0
   120fc:	40e78733          	sub	a4,a5,a4
   12100:	01efb533          	sltu	a0,t6,t5
   12104:	01037463          	bgeu	t1,a6,1210c <__subtf3+0x1020>
   12108:	43d60a63          	beq	a2,t4,1253c <__subtf3+0x1450>
   1210c:	411f0633          	sub	a2,t5,a7
   12110:	42029863          	bnez	t0,12540 <__subtf3+0x1454>
   12114:	40de07b3          	sub	a5,t3,a3
   12118:	40a78533          	sub	a0,a5,a0
   1211c:	02a12e23          	sw	a0,60(sp)
   12120:	02c12c23          	sw	a2,56(sp)
   12124:	02e12a23          	sw	a4,52(sp)
   12128:	03012823          	sw	a6,48(sp)
   1212c:	00058493          	mv	s1,a1
   12130:	74050c63          	beqz	a0,12888 <__subtf3+0x179c>
   12134:	4d1000ef          	jal	12e04 <__clzsi2>
   12138:	ff450793          	add	a5,a0,-12
   1213c:	01f7f613          	and	a2,a5,31
   12140:	00000593          	li	a1,0
   12144:	72061c63          	bnez	a2,1287c <__subtf3+0x1790>
   12148:	04c12983          	lw	s3,76(sp)
   1214c:	ae9ff06f          	j	11c34 <__subtf3+0xb48>
   12150:	00688333          	add	t1,a7,t1
   12154:	01d70eb3          	add	t4,a4,t4
   12158:	011338b3          	sltu	a7,t1,a7
   1215c:	011e88b3          	add	a7,t4,a7
   12160:	00eeb7b3          	sltu	a5,t4,a4
   12164:	01d8beb3          	sltu	t4,a7,t4
   12168:	00af0633          	add	a2,t5,a0
   1216c:	01d7e7b3          	or	a5,a5,t4
   12170:	00f607b3          	add	a5,a2,a5
   12174:	01e636b3          	sltu	a3,a2,t5
   12178:	00c7b633          	sltu	a2,a5,a2
   1217c:	00c6e6b3          	or	a3,a3,a2
   12180:	01c585b3          	add	a1,a1,t3
   12184:	00030713          	mv	a4,t1
   12188:	00b68e33          	add	t3,a3,a1
   1218c:	00100413          	li	s0,1
   12190:	df8ff06f          	j	11788 <__subtf3+0x69c>
   12194:	02012703          	lw	a4,32(sp)
   12198:	02000393          	li	t2,32
   1219c:	40d383b3          	sub	t2,t2,a3
   121a0:	00771633          	sll	a2,a4,t2
   121a4:	05312623          	sw	s3,76(sp)
   121a8:	00d5d5b3          	srl	a1,a1,a3
   121ac:	00300713          	li	a4,3
   121b0:	00000313          	li	t1,0
   121b4:	9ccff06f          	j	11380 <__subtf3+0x294>
   121b8:	03112823          	sw	a7,48(sp)
   121bc:	03d12a23          	sw	t4,52(sp)
   121c0:	02a12c23          	sw	a0,56(sp)
   121c4:	03c12e23          	sw	t3,60(sp)
   121c8:	00068413          	mv	s0,a3
   121cc:	03010793          	add	a5,sp,48
   121d0:	e1cff06f          	j	117ec <__subtf3+0x700>
   121d4:	40688333          	sub	t1,a7,t1
   121d8:	41e507b3          	sub	a5,a0,t5
   121dc:	0068b6b3          	sltu	a3,a7,t1
   121e0:	00030713          	mv	a4,t1
   121e4:	00f53333          	sltu	t1,a0,a5
   121e8:	00030f93          	mv	t6,t1
   121ec:	40d787b3          	sub	a5,a5,a3
   121f0:	010eb633          	sltu	a2,t4,a6
   121f4:	410e86b3          	sub	a3,t4,a6
   121f8:	00e8f463          	bgeu	a7,a4,12200 <__subtf3+0x1114>
   121fc:	04af0863          	beq	t5,a0,1224c <__subtf3+0x1160>
   12200:	41f68533          	sub	a0,a3,t6
   12204:	00060693          	mv	a3,a2
   12208:	04031463          	bnez	t1,12250 <__subtf3+0x1164>
   1220c:	40be05b3          	sub	a1,t3,a1
   12210:	40d58e33          	sub	t3,a1,a3
   12214:	00100413          	li	s0,1
   12218:	868ff06f          	j	11280 <__subtf3+0x194>
   1221c:	03112823          	sw	a7,48(sp)
   12220:	02a12a23          	sw	a0,52(sp)
   12224:	03d12c23          	sw	t4,56(sp)
   12228:	03c12e23          	sw	t3,60(sp)
   1222c:	03010793          	add	a5,sp,48
   12230:	dbcff06f          	j	117ec <__subtf3+0x700>
   12234:	00afb8b3          	sltu	a7,t6,a0
   12238:	fff50513          	add	a0,a0,-1
   1223c:	40df86b3          	sub	a3,t6,a3
   12240:	0016b693          	seqz	a3,a3
   12244:	00d8e8b3          	or	a7,a7,a3
   12248:	921ff06f          	j	11b68 <__subtf3+0xa7c>
   1224c:	fff68513          	add	a0,a3,-1
   12250:	41d806b3          	sub	a3,a6,t4
   12254:	0016b693          	seqz	a3,a3
   12258:	00d666b3          	or	a3,a2,a3
   1225c:	fb1ff06f          	j	1220c <__subtf3+0x1120>
   12260:	03112823          	sw	a7,48(sp)
   12264:	03d12a23          	sw	t4,52(sp)
   12268:	02a12c23          	sw	a0,56(sp)
   1226c:	03c12e23          	sw	t3,60(sp)
   12270:	03010793          	add	a5,sp,48
   12274:	d78ff06f          	j	117ec <__subtf3+0x700>
   12278:	04c12983          	lw	s3,76(sp)
   1227c:	00028393          	mv	t2,t0
   12280:	00000513          	li	a0,0
   12284:	00300893          	li	a7,3
   12288:	00000793          	li	a5,0
   1228c:	41f3d493          	sra	s1,t2,0x1f
   12290:	00251713          	sll	a4,a0,0x2
   12294:	01b4d493          	srl	s1,s1,0x1b
   12298:	04070713          	add	a4,a4,64 # 80040 <__alt_data_end+0x60040>
   1229c:	00938533          	add	a0,t2,s1
   122a0:	00270733          	add	a4,a4,sp
   122a4:	fd072703          	lw	a4,-48(a4)
   122a8:	01f57513          	and	a0,a0,31
   122ac:	40a483b3          	sub	t2,s1,a0
   122b0:	02038393          	add	t2,t2,32
   122b4:	00771733          	sll	a4,a4,t2
   122b8:	00e7e7b3          	or	a5,a5,a4
   122bc:	54088e63          	beqz	a7,12818 <__subtf3+0x172c>
   122c0:	05312623          	sw	s3,76(sp)
   122c4:	00241993          	sll	s3,s0,0x2
   122c8:	013e8733          	add	a4,t4,s3
   122cc:	008f0f13          	add	t5,t5,8
   122d0:	413009b3          	neg	s3,s3
   122d4:	00072683          	lw	a3,0(a4)
   122d8:	00472503          	lw	a0,4(a4)
   122dc:	013704b3          	add	s1,a4,s3
   122e0:	0056d6b3          	srl	a3,a3,t0
   122e4:	00751533          	sll	a0,a0,t2
   122e8:	00a6e6b3          	or	a3,a3,a0
   122ec:	00d4a023          	sw	a3,0(s1)
   122f0:	00470713          	add	a4,a4,4
   122f4:	feef10e3          	bne	t5,a4,122d4 <__subtf3+0x11e8>
   122f8:	01c12503          	lw	a0,28(sp)
   122fc:	00289693          	sll	a3,a7,0x2
   12300:	04068713          	add	a4,a3,64
   12304:	002706b3          	add	a3,a4,sp
   12308:	00555533          	srl	a0,a0,t0
   1230c:	00400713          	li	a4,4
   12310:	04c12983          	lw	s3,76(sp)
   12314:	40870733          	sub	a4,a4,s0
   12318:	fca6a823          	sw	a0,-48(a3)
   1231c:	99cff06f          	j	114b8 <__subtf3+0x3cc>
   12320:	38069263          	bnez	a3,126a4 <__subtf3+0x15b8>
   12324:	02612823          	sw	t1,48(sp)
   12328:	02c12a23          	sw	a2,52(sp)
   1232c:	03f12c23          	sw	t6,56(sp)
   12330:	03c12e23          	sw	t3,60(sp)
   12334:	fff80413          	add	s0,a6,-1
   12338:	03010793          	add	a5,sp,48
   1233c:	cb0ff06f          	j	117ec <__subtf3+0x700>
   12340:	02612823          	sw	t1,48(sp)
   12344:	02c12a23          	sw	a2,52(sp)
   12348:	03f12c23          	sw	t6,56(sp)
   1234c:	03c12e23          	sw	t3,60(sp)
   12350:	88070ce3          	beqz	a4,11be8 <__subtf3+0xafc>
   12354:	00ce1793          	sll	a5,t3,0xc
   12358:	00058493          	mv	s1,a1
   1235c:	4c07dc63          	bgez	a5,12834 <__subtf3+0x1748>
   12360:	00100413          	li	s0,1
   12364:	03010793          	add	a5,sp,48
   12368:	ca0ff06f          	j	11808 <__subtf3+0x71c>
   1236c:	41130733          	sub	a4,t1,a7
   12370:	413607b3          	sub	a5,a2,s3
   12374:	00e33833          	sltu	a6,t1,a4
   12378:	00f638b3          	sltu	a7,a2,a5
   1237c:	409f8533          	sub	a0,t6,s1
   12380:	410787b3          	sub	a5,a5,a6
   12384:	00088e93          	mv	t4,a7
   12388:	00afb833          	sltu	a6,t6,a0
   1238c:	00e37463          	bgeu	t1,a4,12394 <__subtf3+0x12a8>
   12390:	38c98463          	beq	s3,a2,12718 <__subtf3+0x162c>
   12394:	41d50533          	sub	a0,a0,t4
   12398:	00080613          	mv	a2,a6
   1239c:	38089063          	bnez	a7,1271c <__subtf3+0x1630>
   123a0:	40de06b3          	sub	a3,t3,a3
   123a4:	04c12983          	lw	s3,76(sp)
   123a8:	40c68e33          	sub	t3,a3,a2
   123ac:	00058493          	mv	s1,a1
   123b0:	00100413          	li	s0,1
   123b4:	ecdfe06f          	j	11280 <__subtf3+0x194>
   123b8:	40ce87b3          	sub	a5,t4,a2
   123bc:	406882b3          	sub	t0,a7,t1
   123c0:	0058b533          	sltu	a0,a7,t0
   123c4:	00feb733          	sltu	a4,t4,a5
   123c8:	00070393          	mv	t2,a4
   123cc:	40a787b3          	sub	a5,a5,a0
   123d0:	01ff3833          	sltu	a6,t5,t6
   123d4:	41ff0533          	sub	a0,t5,t6
   123d8:	0058f463          	bgeu	a7,t0,123e0 <__subtf3+0x12f4>
   123dc:	37d60463          	beq	a2,t4,12744 <__subtf3+0x1658>
   123e0:	40750533          	sub	a0,a0,t2
   123e4:	36071263          	bnez	a4,12748 <__subtf3+0x165c>
   123e8:	41c68733          	sub	a4,a3,t3
   123ec:	41070733          	sub	a4,a4,a6
   123f0:	02e12e23          	sw	a4,60(sp)
   123f4:	02a12c23          	sw	a0,56(sp)
   123f8:	02f12a23          	sw	a5,52(sp)
   123fc:	02512823          	sw	t0,48(sp)
   12400:	00c71813          	sll	a6,a4,0xc
   12404:	32085463          	bgez	a6,1272c <__subtf3+0x1640>
   12408:	41130833          	sub	a6,t1,a7
   1240c:	41d607b3          	sub	a5,a2,t4
   12410:	01033733          	sltu	a4,t1,a6
   12414:	00f638b3          	sltu	a7,a2,a5
   12418:	41ef8f33          	sub	t5,t6,t5
   1241c:	40e787b3          	sub	a5,a5,a4
   12420:	00088513          	mv	a0,a7
   12424:	01efb733          	sltu	a4,t6,t5
   12428:	01037463          	bgeu	t1,a6,12430 <__subtf3+0x1344>
   1242c:	3fd60c63          	beq	a2,t4,12824 <__subtf3+0x1738>
   12430:	40af0633          	sub	a2,t5,a0
   12434:	3e089a63          	bnez	a7,12828 <__subtf3+0x173c>
   12438:	40de06b3          	sub	a3,t3,a3
   1243c:	40e68e33          	sub	t3,a3,a4
   12440:	02f12a23          	sw	a5,52(sp)
   12444:	03c12e23          	sw	t3,60(sp)
   12448:	02c12c23          	sw	a2,56(sp)
   1244c:	03012823          	sw	a6,48(sp)
   12450:	00058493          	mv	s1,a1
   12454:	03010793          	add	a5,sp,48
   12458:	b94ff06f          	j	117ec <__subtf3+0x700>
   1245c:	00100693          	li	a3,1
   12460:	9a5ff06f          	j	11e04 <__subtf3+0xd18>
   12464:	03012703          	lw	a4,48(sp)
   12468:	03c12e83          	lw	t4,60(sp)
   1246c:	02000e13          	li	t3,32
   12470:	40de0e33          	sub	t3,t3,a3
   12474:	01c71733          	sll	a4,a4,t3
   12478:	00dedeb3          	srl	t4,t4,a3
   1247c:	00300513          	li	a0,3
   12480:	00000593          	li	a1,0
   12484:	905ff06f          	j	11d88 <__subtf3+0xc9c>
   12488:	05f00793          	li	a5,95
   1248c:	011999b3          	sll	s3,s3,a7
   12490:	3ac7d863          	bge	a5,a2,12840 <__subtf3+0x1754>
   12494:	03312e23          	sw	s3,60(sp)
   12498:	00200713          	li	a4,2
   1249c:	04c12983          	lw	s3,76(sp)
   124a0:	03010793          	add	a5,sp,48
   124a4:	849ff06f          	j	11cec <__subtf3+0xc00>
   124a8:	41f55413          	sra	s0,a0,0x1f
   124ac:	01f47413          	and	s0,s0,31
   124b0:	00a40433          	add	s0,s0,a0
   124b4:	01f00793          	li	a5,31
   124b8:	40545413          	sra	s0,s0,0x5
   124bc:	9aa7c463          	blt	a5,a0,11664 <__subtf3+0x578>
   124c0:	00040893          	mv	a7,s0
   124c4:	00000793          	li	a5,0
   124c8:	00000413          	li	s0,0
   124cc:	9bcff06f          	j	11688 <__subtf3+0x59c>
   124d0:	00100793          	li	a5,1
   124d4:	d50ff06f          	j	11a24 <__subtf3+0x938>
   124d8:	02012703          	lw	a4,32(sp)
   124dc:	02000393          	li	t2,32
   124e0:	40d383b3          	sub	t2,t2,a3
   124e4:	00771633          	sll	a2,a4,t2
   124e8:	05312623          	sw	s3,76(sp)
   124ec:	00d5d5b3          	srl	a1,a1,a3
   124f0:	00300713          	li	a4,3
   124f4:	00000313          	li	t1,0
   124f8:	8bcff06f          	j	115b4 <__subtf3+0x4c8>
   124fc:	02612823          	sw	t1,48(sp)
   12500:	02c12a23          	sw	a2,52(sp)
   12504:	03f12c23          	sw	t6,56(sp)
   12508:	03c12e23          	sw	t3,60(sp)
   1250c:	00050413          	mv	s0,a0
   12510:	03010793          	add	a5,sp,48
   12514:	ad8ff06f          	j	117ec <__subtf3+0x700>
   12518:	24071463          	bnez	a4,12760 <__subtf3+0x1674>
   1251c:	03112823          	sw	a7,48(sp)
   12520:	03d12a23          	sw	t4,52(sp)
   12524:	03e12c23          	sw	t5,56(sp)
   12528:	02d12e23          	sw	a3,60(sp)
   1252c:	00068e13          	mv	t3,a3
   12530:	fff50413          	add	s0,a0,-1
   12534:	03010793          	add	a5,sp,48
   12538:	ab4ff06f          	j	117ec <__subtf3+0x700>
   1253c:	ffff0613          	add	a2,t5,-1
   12540:	001f3f13          	seqz	t5,t5
   12544:	01e56533          	or	a0,a0,t5
   12548:	bcdff06f          	j	12114 <__subtf3+0x1028>
   1254c:	02612823          	sw	t1,48(sp)
   12550:	02c12a23          	sw	a2,52(sp)
   12554:	03f12c23          	sw	t6,56(sp)
   12558:	03c12e23          	sw	t3,60(sp)
   1255c:	03010793          	add	a5,sp,48
   12560:	a8cff06f          	j	117ec <__subtf3+0x700>
   12564:	00688333          	add	t1,a7,t1
   12568:	00f607b3          	add	a5,a2,a5
   1256c:	011336b3          	sltu	a3,t1,a7
   12570:	00d786b3          	add	a3,a5,a3
   12574:	00c7b633          	sltu	a2,a5,a2
   12578:	00f6b7b3          	sltu	a5,a3,a5
   1257c:	00ef8733          	add	a4,t6,a4
   12580:	00f667b3          	or	a5,a2,a5
   12584:	00f707b3          	add	a5,a4,a5
   12588:	01f73fb3          	sltu	t6,a4,t6
   1258c:	00e7b733          	sltu	a4,a5,a4
   12590:	00efe733          	or	a4,t6,a4
   12594:	00be05b3          	add	a1,t3,a1
   12598:	00b70e33          	add	t3,a4,a1
   1259c:	02f12c23          	sw	a5,56(sp)
   125a0:	02612823          	sw	t1,48(sp)
   125a4:	02d12a23          	sw	a3,52(sp)
   125a8:	00ce1793          	sll	a5,t3,0xc
   125ac:	c207de63          	bgez	a5,119e8 <__subtf3+0x8fc>
   125b0:	fff807b7          	lui	a5,0xfff80
   125b4:	fff78793          	add	a5,a5,-1 # fff7ffff <__alt_data_end+0xfff5ffff>
   125b8:	00fe7e33          	and	t3,t3,a5
   125bc:	03c12e23          	sw	t3,60(sp)
   125c0:	00100413          	li	s0,1
   125c4:	03010793          	add	a5,sp,48
   125c8:	003e5613          	srl	a2,t3,0x3
   125cc:	a50ff06f          	j	1181c <__subtf3+0x730>
   125d0:	04c12983          	lw	s3,76(sp)
   125d4:	00008437          	lui	s0,0x8
   125d8:	02612823          	sw	t1,48(sp)
   125dc:	02c12a23          	sw	a2,52(sp)
   125e0:	03f12c23          	sw	t6,56(sp)
   125e4:	03c12e23          	sw	t3,60(sp)
   125e8:	00058493          	mv	s1,a1
   125ec:	fff40413          	add	s0,s0,-1 # 7fff <_ldcheck+0x23>
   125f0:	03010793          	add	a5,sp,48
   125f4:	9f8ff06f          	j	117ec <__subtf3+0x700>
   125f8:	04c12983          	lw	s3,76(sp)
   125fc:	d34ff06f          	j	11b30 <__subtf3+0xa44>
   12600:	00058513          	mv	a0,a1
   12604:	00000893          	li	a7,0
   12608:	00300393          	li	t2,3
   1260c:	00000793          	li	a5,0
   12610:	41f55713          	sra	a4,a0,0x1f
   12614:	00241293          	sll	t0,s0,0x2
   12618:	01b75713          	srl	a4,a4,0x1b
   1261c:	04028293          	add	t0,t0,64
   12620:	00e50533          	add	a0,a0,a4
   12624:	002282b3          	add	t0,t0,sp
   12628:	fd02a403          	lw	s0,-48(t0)
   1262c:	01f57513          	and	a0,a0,31
   12630:	40a70733          	sub	a4,a4,a0
   12634:	02070293          	add	t0,a4,32
   12638:	00541733          	sll	a4,s0,t0
   1263c:	00e7e7b3          	or	a5,a5,a4
   12640:	20038863          	beqz	t2,12850 <__subtf3+0x1764>
   12644:	05312623          	sw	s3,76(sp)
   12648:	00289993          	sll	s3,a7,0x2
   1264c:	013e8733          	add	a4,t4,s3
   12650:	008f0f13          	add	t5,t5,8
   12654:	413009b3          	neg	s3,s3
   12658:	00072683          	lw	a3,0(a4)
   1265c:	00472503          	lw	a0,4(a4)
   12660:	01370433          	add	s0,a4,s3
   12664:	00b6d6b3          	srl	a3,a3,a1
   12668:	00551533          	sll	a0,a0,t0
   1266c:	00a6e6b3          	or	a3,a3,a0
   12670:	00d42023          	sw	a3,0(s0)
   12674:	00470713          	add	a4,a4,4
   12678:	feef10e3          	bne	t5,a4,12658 <__subtf3+0x156c>
   1267c:	01c12683          	lw	a3,28(sp)
   12680:	00239713          	sll	a4,t2,0x2
   12684:	04070713          	add	a4,a4,64
   12688:	00b6d6b3          	srl	a3,a3,a1
   1268c:	00270733          	add	a4,a4,sp
   12690:	00400593          	li	a1,4
   12694:	04c12983          	lw	s3,76(sp)
   12698:	411588b3          	sub	a7,a1,a7
   1269c:	fcd72823          	sw	a3,-48(a4)
   126a0:	81cff06f          	j	116bc <__subtf3+0x5d0>
   126a4:	01f666b3          	or	a3,a2,t6
   126a8:	0066e6b3          	or	a3,a3,t1
   126ac:	01c6e6b3          	or	a3,a3,t3
   126b0:	12069663          	bnez	a3,127dc <__subtf3+0x16f0>
   126b4:	02f12a23          	sw	a5,52(sp)
   126b8:	03112823          	sw	a7,48(sp)
   126bc:	02e12c23          	sw	a4,56(sp)
   126c0:	02b12e23          	sw	a1,60(sp)
   126c4:	00058e13          	mv	t3,a1
   126c8:	fff80413          	add	s0,a6,-1
   126cc:	03010793          	add	a5,sp,48
   126d0:	91cff06f          	j	117ec <__subtf3+0x700>
   126d4:	00688333          	add	t1,a7,t1
   126d8:	00c78633          	add	a2,a5,a2
   126dc:	011338b3          	sltu	a7,t1,a7
   126e0:	011608b3          	add	a7,a2,a7
   126e4:	00f637b3          	sltu	a5,a2,a5
   126e8:	00c8b633          	sltu	a2,a7,a2
   126ec:	01f28fb3          	add	t6,t0,t6
   126f0:	00c7e7b3          	or	a5,a5,a2
   126f4:	00ff87b3          	add	a5,t6,a5
   126f8:	005fb633          	sltu	a2,t6,t0
   126fc:	01f7bfb3          	sltu	t6,a5,t6
   12700:	01f66633          	or	a2,a2,t6
   12704:	01c686b3          	add	a3,a3,t3
   12708:	00030713          	mv	a4,t1
   1270c:	00d60e33          	add	t3,a2,a3
   12710:	00100413          	li	s0,1
   12714:	874ff06f          	j	11788 <__subtf3+0x69c>
   12718:	fff50513          	add	a0,a0,-1
   1271c:	41f48633          	sub	a2,s1,t6
   12720:	00163613          	seqz	a2,a2
   12724:	00c86633          	or	a2,a6,a2
   12728:	c79ff06f          	j	123a0 <__subtf3+0x12b4>
   1272c:	00f2e7b3          	or	a5,t0,a5
   12730:	00a7e7b3          	or	a5,a5,a0
   12734:	00e7e7b3          	or	a5,a5,a4
   12738:	00070e13          	mv	t3,a4
   1273c:	aa079863          	bnez	a5,119ec <__subtf3+0x900>
   12740:	ca8ff06f          	j	11be8 <__subtf3+0xafc>
   12744:	fff50513          	add	a0,a0,-1
   12748:	41ef8733          	sub	a4,t6,t5
   1274c:	00173713          	seqz	a4,a4
   12750:	00e86833          	or	a6,a6,a4
   12754:	c95ff06f          	j	123e8 <__subtf3+0x12fc>
   12758:	00100793          	li	a5,1
   1275c:	f4cff06f          	j	11ea8 <__subtf3+0xdbc>
   12760:	02a12e23          	sw	a0,60(sp)
   12764:	02012c23          	sw	zero,56(sp)
   12768:	02012a23          	sw	zero,52(sp)
   1276c:	02012823          	sw	zero,48(sp)
   12770:	03010793          	add	a5,sp,48
   12774:	03c10713          	add	a4,sp,60
   12778:	00008637          	lui	a2,0x8
   1277c:	00361593          	sll	a1,a2,0x3
   12780:	ffc72603          	lw	a2,-4(a4)
   12784:	ffc70713          	add	a4,a4,-4
   12788:	01d65693          	srl	a3,a2,0x1d
   1278c:	00b6e6b3          	or	a3,a3,a1
   12790:	00d72223          	sw	a3,4(a4)
   12794:	fee794e3          	bne	a5,a4,1277c <__subtf3+0x1690>
   12798:	905ff06f          	j	1209c <__subtf3+0xfb0>
   1279c:	02612823          	sw	t1,48(sp)
   127a0:	02c12a23          	sw	a2,52(sp)
   127a4:	03f12c23          	sw	t6,56(sp)
   127a8:	03c12e23          	sw	t3,60(sp)
   127ac:	00058493          	mv	s1,a1
   127b0:	fff50413          	add	s0,a0,-1
   127b4:	03010793          	add	a5,sp,48
   127b8:	834ff06f          	j	117ec <__subtf3+0x700>
   127bc:	00008437          	lui	s0,0x8
   127c0:	02612823          	sw	t1,48(sp)
   127c4:	02c12a23          	sw	a2,52(sp)
   127c8:	03f12c23          	sw	t6,56(sp)
   127cc:	03c12e23          	sw	t3,60(sp)
   127d0:	fff40413          	add	s0,s0,-1 # 7fff <_ldcheck+0x23>
   127d4:	03010793          	add	a5,sp,48
   127d8:	814ff06f          	j	117ec <__subtf3+0x700>
   127dc:	03012e23          	sw	a6,60(sp)
   127e0:	02012c23          	sw	zero,56(sp)
   127e4:	02012a23          	sw	zero,52(sp)
   127e8:	02012823          	sw	zero,48(sp)
   127ec:	03010793          	add	a5,sp,48
   127f0:	03c10713          	add	a4,sp,60
   127f4:	00008637          	lui	a2,0x8
   127f8:	00361593          	sll	a1,a2,0x3
   127fc:	ffc72603          	lw	a2,-4(a4)
   12800:	ffc70713          	add	a4,a4,-4
   12804:	01d65693          	srl	a3,a2,0x1d
   12808:	00b6e6b3          	or	a3,a3,a1
   1280c:	00d72223          	sw	a3,4(a4)
   12810:	fee794e3          	bne	a5,a4,127f8 <__subtf3+0x170c>
   12814:	889ff06f          	j	1209c <__subtf3+0xfb0>
   12818:	0056d2b3          	srl	t0,a3,t0
   1281c:	00100713          	li	a4,1
   12820:	ca5fe06f          	j	114c4 <__subtf3+0x3d8>
   12824:	ffff0613          	add	a2,t5,-1
   12828:	001f3f13          	seqz	t5,t5
   1282c:	01e76733          	or	a4,a4,t5
   12830:	c09ff06f          	j	12438 <__subtf3+0x134c>
   12834:	03010793          	add	a5,sp,48
   12838:	003e5613          	srl	a2,t3,0x3
   1283c:	fe1fe06f          	j	1181c <__subtf3+0x730>
   12840:	02000e13          	li	t3,32
   12844:	411e0e33          	sub	t3,t3,a7
   12848:	00200593          	li	a1,2
   1284c:	c44ff06f          	j	11c90 <__subtf3+0xba4>
   12850:	00b6d5b3          	srl	a1,a3,a1
   12854:	00100893          	li	a7,1
   12858:	e71fe06f          	j	116c8 <__subtf3+0x5dc>
   1285c:	02412603          	lw	a2,36(sp)
   12860:	02812f83          	lw	t6,40(sp)
   12864:	02c12e03          	lw	t3,44(sp)
   12868:	b95fe06f          	j	113fc <__subtf3+0x310>
   1286c:	02412603          	lw	a2,36(sp)
   12870:	02812f83          	lw	t6,40(sp)
   12874:	02c12e03          	lw	t3,44(sp)
   12878:	d91fe06f          	j	11608 <__subtf3+0x51c>
   1287c:	00060893          	mv	a7,a2
   12880:	00078613          	mv	a2,a5
   12884:	bf8ff06f          	j	11c7c <__subtf3+0xb90>
   12888:	04c12983          	lw	s3,76(sp)
   1288c:	a21fe06f          	j	112ac <__subtf3+0x1c0>

00012890 <__unordtf2>:
   12890:	00c52803          	lw	a6,12(a0)
   12894:	00c5a303          	lw	t1,12(a1) # 8000c <__alt_data_end+0x6000c>
   12898:	000087b7          	lui	a5,0x8
   1289c:	fff78793          	add	a5,a5,-1 # 7fff <_ldcheck+0x23>
   128a0:	01085713          	srl	a4,a6,0x10
   128a4:	01035693          	srl	a3,t1,0x10
   128a8:	00f77733          	and	a4,a4,a5
   128ac:	00052603          	lw	a2,0(a0)
   128b0:	00452e03          	lw	t3,4(a0)
   128b4:	0005a883          	lw	a7,0(a1)
   128b8:	0045ae83          	lw	t4,4(a1)
   128bc:	00852503          	lw	a0,8(a0)
   128c0:	0085a583          	lw	a1,8(a1)
   128c4:	ff010113          	add	sp,sp,-16
   128c8:	00f6f6b3          	and	a3,a3,a5
   128cc:	02f70a63          	beq	a4,a5,12900 <__unordtf2+0x70>
   128d0:	000087b7          	lui	a5,0x8
   128d4:	fff78793          	add	a5,a5,-1 # 7fff <_ldcheck+0x23>
   128d8:	00000513          	li	a0,0
   128dc:	00f69e63          	bne	a3,a5,128f8 <__unordtf2+0x68>
   128e0:	01d8e533          	or	a0,a7,t4
   128e4:	01031313          	sll	t1,t1,0x10
   128e8:	00b56533          	or	a0,a0,a1
   128ec:	01035313          	srl	t1,t1,0x10
   128f0:	00656533          	or	a0,a0,t1
   128f4:	00a03533          	snez	a0,a0
   128f8:	01010113          	add	sp,sp,16
   128fc:	00008067          	ret
   12900:	01c66633          	or	a2,a2,t3
   12904:	01081813          	sll	a6,a6,0x10
   12908:	00a66633          	or	a2,a2,a0
   1290c:	01085813          	srl	a6,a6,0x10
   12910:	01066633          	or	a2,a2,a6
   12914:	00100513          	li	a0,1
   12918:	fa060ce3          	beqz	a2,128d0 <__unordtf2+0x40>
   1291c:	01010113          	add	sp,sp,16
   12920:	00008067          	ret

00012924 <__fixtfsi>:
   12924:	00c52783          	lw	a5,12(a0)
   12928:	00052583          	lw	a1,0(a0)
   1292c:	00852603          	lw	a2,8(a0)
   12930:	00452503          	lw	a0,4(a0)
   12934:	fe010113          	add	sp,sp,-32
   12938:	00179713          	sll	a4,a5,0x1
   1293c:	000046b7          	lui	a3,0x4
   12940:	00a12223          	sw	a0,4(sp)
   12944:	00b12023          	sw	a1,0(sp)
   12948:	00c12423          	sw	a2,8(sp)
   1294c:	00f12623          	sw	a5,12(sp)
   12950:	00b12823          	sw	a1,16(sp)
   12954:	00c12c23          	sw	a2,24(sp)
   12958:	01175713          	srl	a4,a4,0x11
   1295c:	ffe68693          	add	a3,a3,-2 # 3ffe <_vfprintf_r+0x2d2>
   12960:	00000513          	li	a0,0
   12964:	02e6d063          	bge	a3,a4,12984 <__fixtfsi+0x60>
   12968:	000046b7          	lui	a3,0x4
   1296c:	01d68693          	add	a3,a3,29 # 401d <_vfprintf_r+0x2f1>
   12970:	01f7d593          	srl	a1,a5,0x1f
   12974:	00e6dc63          	bge	a3,a4,1298c <__fixtfsi+0x68>
   12978:	80000537          	lui	a0,0x80000
   1297c:	fff50513          	add	a0,a0,-1 # 7fffffff <__alt_data_end+0x7ffdffff>
   12980:	00a58533          	add	a0,a1,a0
   12984:	02010113          	add	sp,sp,32
   12988:	00008067          	ret
   1298c:	000046b7          	lui	a3,0x4
   12990:	01079793          	sll	a5,a5,0x10
   12994:	06f68693          	add	a3,a3,111 # 406f <_vfprintf_r+0x343>
   12998:	40e686b3          	sub	a3,a3,a4
   1299c:	0107d793          	srl	a5,a5,0x10
   129a0:	00010737          	lui	a4,0x10
   129a4:	00e7e7b3          	or	a5,a5,a4
   129a8:	01f6f513          	and	a0,a3,31
   129ac:	00f12e23          	sw	a5,28(sp)
   129b0:	4056d693          	sra	a3,a3,0x5
   129b4:	04050c63          	beqz	a0,12a0c <__fixtfsi+0xe8>
   129b8:	00200813          	li	a6,2
   129bc:	00000713          	li	a4,0
   129c0:	03069063          	bne	a3,a6,129e0 <__fixtfsi+0xbc>
   129c4:	02000713          	li	a4,32
   129c8:	40a70733          	sub	a4,a4,a0
   129cc:	00e79733          	sll	a4,a5,a4
   129d0:	00a65633          	srl	a2,a2,a0
   129d4:	00c76733          	or	a4,a4,a2
   129d8:	00e12823          	sw	a4,16(sp)
   129dc:	00100713          	li	a4,1
   129e0:	00271713          	sll	a4,a4,0x2
   129e4:	02070713          	add	a4,a4,32 # 10020 <__multf3+0xe8>
   129e8:	00270733          	add	a4,a4,sp
   129ec:	00a7d7b3          	srl	a5,a5,a0
   129f0:	fef72823          	sw	a5,-16(a4)
   129f4:	01012783          	lw	a5,16(sp)
   129f8:	40f00533          	neg	a0,a5
   129fc:	f80594e3          	bnez	a1,12984 <__fixtfsi+0x60>
   12a00:	00078513          	mv	a0,a5
   12a04:	02010113          	add	sp,sp,32
   12a08:	00008067          	ret
   12a0c:	00269693          	sll	a3,a3,0x2
   12a10:	02068793          	add	a5,a3,32
   12a14:	002786b3          	add	a3,a5,sp
   12a18:	ff06a783          	lw	a5,-16(a3)
   12a1c:	00f12823          	sw	a5,16(sp)
   12a20:	fd5ff06f          	j	129f4 <__fixtfsi+0xd0>

00012a24 <__floatsitf>:
   12a24:	fd010113          	add	sp,sp,-48
   12a28:	02912223          	sw	s1,36(sp)
   12a2c:	02112623          	sw	ra,44(sp)
   12a30:	02812423          	sw	s0,40(sp)
   12a34:	00050493          	mv	s1,a0
   12a38:	0a058863          	beqz	a1,12ae8 <__floatsitf+0xc4>
   12a3c:	41f5d793          	sra	a5,a1,0x1f
   12a40:	03212023          	sw	s2,32(sp)
   12a44:	00b7c933          	xor	s2,a5,a1
   12a48:	40f90933          	sub	s2,s2,a5
   12a4c:	00090513          	mv	a0,s2
   12a50:	01f5d413          	srl	s0,a1,0x1f
   12a54:	3b0000ef          	jal	12e04 <__clzsi2>
   12a58:	05150713          	add	a4,a0,81
   12a5c:	000047b7          	lui	a5,0x4
   12a60:	01e78793          	add	a5,a5,30 # 401e <_vfprintf_r+0x2f2>
   12a64:	01f77613          	and	a2,a4,31
   12a68:	01212823          	sw	s2,16(sp)
   12a6c:	00012a23          	sw	zero,20(sp)
   12a70:	00012c23          	sw	zero,24(sp)
   12a74:	00012e23          	sw	zero,28(sp)
   12a78:	40a787b3          	sub	a5,a5,a0
   12a7c:	40575713          	sra	a4,a4,0x5
   12a80:	0a061e63          	bnez	a2,12b3c <__floatsitf+0x118>
   12a84:	00300613          	li	a2,3
   12a88:	40e60633          	sub	a2,a2,a4
   12a8c:	00261613          	sll	a2,a2,0x2
   12a90:	02060693          	add	a3,a2,32 # 8020 <_ldcheck+0x44>
   12a94:	00268633          	add	a2,a3,sp
   12a98:	00200693          	li	a3,2
   12a9c:	ff062603          	lw	a2,-16(a2)
   12aa0:	00d71663          	bne	a4,a3,12aac <__floatsitf+0x88>
   12aa4:	01212c23          	sw	s2,24(sp)
   12aa8:	00100693          	li	a3,1
   12aac:	00269693          	sll	a3,a3,0x2
   12ab0:	00012823          	sw	zero,16(sp)
   12ab4:	00012a23          	sw	zero,20(sp)
   12ab8:	ffc68693          	add	a3,a3,-4
   12abc:	00400713          	li	a4,4
   12ac0:	0ae6fe63          	bgeu	a3,a4,12b7c <__floatsitf+0x158>
   12ac4:	01179793          	sll	a5,a5,0x11
   12ac8:	01061713          	sll	a4,a2,0x10
   12acc:	01012803          	lw	a6,16(sp)
   12ad0:	01412503          	lw	a0,20(sp)
   12ad4:	01812683          	lw	a3,24(sp)
   12ad8:	02012903          	lw	s2,32(sp)
   12adc:	01075713          	srl	a4,a4,0x10
   12ae0:	0117d793          	srl	a5,a5,0x11
   12ae4:	01c0006f          	j	12b00 <__floatsitf+0xdc>
   12ae8:	00000413          	li	s0,0
   12aec:	00000793          	li	a5,0
   12af0:	00000713          	li	a4,0
   12af4:	00000693          	li	a3,0
   12af8:	00000513          	li	a0,0
   12afc:	00000813          	li	a6,0
   12b00:	00f41593          	sll	a1,s0,0xf
   12b04:	00b7e7b3          	or	a5,a5,a1
   12b08:	00e11623          	sh	a4,12(sp)
   12b0c:	00f11723          	sh	a5,14(sp)
   12b10:	00c12783          	lw	a5,12(sp)
   12b14:	02c12083          	lw	ra,44(sp)
   12b18:	02812403          	lw	s0,40(sp)
   12b1c:	00a4a223          	sw	a0,4(s1)
   12b20:	0104a023          	sw	a6,0(s1)
   12b24:	00d4a423          	sw	a3,8(s1)
   12b28:	00f4a623          	sw	a5,12(s1)
   12b2c:	00048513          	mv	a0,s1
   12b30:	02412483          	lw	s1,36(sp)
   12b34:	03010113          	add	sp,sp,48
   12b38:	00008067          	ret
   12b3c:	00200693          	li	a3,2
   12b40:	06d70263          	beq	a4,a3,12ba4 <__floatsitf+0x180>
   12b44:	00200693          	li	a3,2
   12b48:	00300713          	li	a4,3
   12b4c:	00271713          	sll	a4,a4,0x2
   12b50:	02070713          	add	a4,a4,32
   12b54:	00270733          	add	a4,a4,sp
   12b58:	00c91933          	sll	s2,s2,a2
   12b5c:	ff272823          	sw	s2,-16(a4)
   12b60:	00269693          	sll	a3,a3,0x2
   12b64:	00012823          	sw	zero,16(sp)
   12b68:	00012a23          	sw	zero,20(sp)
   12b6c:	ffc68693          	add	a3,a3,-4
   12b70:	00400713          	li	a4,4
   12b74:	01c12603          	lw	a2,28(sp)
   12b78:	f4e6e6e3          	bltu	a3,a4,12ac4 <__floatsitf+0xa0>
   12b7c:	00012c23          	sw	zero,24(sp)
   12b80:	01179793          	sll	a5,a5,0x11
   12b84:	01061713          	sll	a4,a2,0x10
   12b88:	01012803          	lw	a6,16(sp)
   12b8c:	01412503          	lw	a0,20(sp)
   12b90:	01812683          	lw	a3,24(sp)
   12b94:	02012903          	lw	s2,32(sp)
   12b98:	01075713          	srl	a4,a4,0x10
   12b9c:	0117d793          	srl	a5,a5,0x11
   12ba0:	f61ff06f          	j	12b00 <__floatsitf+0xdc>
   12ba4:	02000693          	li	a3,32
   12ba8:	40c686b3          	sub	a3,a3,a2
   12bac:	00d956b3          	srl	a3,s2,a3
   12bb0:	00d12e23          	sw	a3,28(sp)
   12bb4:	00100693          	li	a3,1
   12bb8:	f95ff06f          	j	12b4c <__floatsitf+0x128>

00012bbc <__extenddftf2>:
   12bbc:	01465793          	srl	a5,a2,0x14
   12bc0:	00c61713          	sll	a4,a2,0xc
   12bc4:	7ff7f793          	and	a5,a5,2047
   12bc8:	fd010113          	add	sp,sp,-48
   12bcc:	00c75713          	srl	a4,a4,0xc
   12bd0:	00178693          	add	a3,a5,1
   12bd4:	02812423          	sw	s0,40(sp)
   12bd8:	02912223          	sw	s1,36(sp)
   12bdc:	03212023          	sw	s2,32(sp)
   12be0:	02112623          	sw	ra,44(sp)
   12be4:	00b12823          	sw	a1,16(sp)
   12be8:	00e12a23          	sw	a4,20(sp)
   12bec:	00012e23          	sw	zero,28(sp)
   12bf0:	00012c23          	sw	zero,24(sp)
   12bf4:	7fe6f693          	and	a3,a3,2046
   12bf8:	00058413          	mv	s0,a1
   12bfc:	00050913          	mv	s2,a0
   12c00:	01f65493          	srl	s1,a2,0x1f
   12c04:	06068463          	beqz	a3,12c6c <__extenddftf2+0xb0>
   12c08:	00004637          	lui	a2,0x4
   12c0c:	01c71693          	sll	a3,a4,0x1c
   12c10:	0045d593          	srl	a1,a1,0x4
   12c14:	c0060613          	add	a2,a2,-1024 # 3c00 <_malloc_r+0x6c8>
   12c18:	00b6e6b3          	or	a3,a3,a1
   12c1c:	01c41413          	sll	s0,s0,0x1c
   12c20:	00475713          	srl	a4,a4,0x4
   12c24:	00c787b3          	add	a5,a5,a2
   12c28:	00000513          	li	a0,0
   12c2c:	00f49613          	sll	a2,s1,0xf
   12c30:	00c7e7b3          	or	a5,a5,a2
   12c34:	00e11623          	sh	a4,12(sp)
   12c38:	00f11723          	sh	a5,14(sp)
   12c3c:	00c12783          	lw	a5,12(sp)
   12c40:	00892223          	sw	s0,4(s2)
   12c44:	02c12083          	lw	ra,44(sp)
   12c48:	02812403          	lw	s0,40(sp)
   12c4c:	00a92023          	sw	a0,0(s2)
   12c50:	00d92423          	sw	a3,8(s2)
   12c54:	00f92623          	sw	a5,12(s2)
   12c58:	02412483          	lw	s1,36(sp)
   12c5c:	00090513          	mv	a0,s2
   12c60:	02012903          	lw	s2,32(sp)
   12c64:	03010113          	add	sp,sp,48
   12c68:	00008067          	ret
   12c6c:	00b76533          	or	a0,a4,a1
   12c70:	0a079663          	bnez	a5,12d1c <__extenddftf2+0x160>
   12c74:	0e050663          	beqz	a0,12d60 <__extenddftf2+0x1a4>
   12c78:	0e070e63          	beqz	a4,12d74 <__extenddftf2+0x1b8>
   12c7c:	00070513          	mv	a0,a4
   12c80:	184000ef          	jal	12e04 <__clzsi2>
   12c84:	03150793          	add	a5,a0,49
   12c88:	01f7f593          	and	a1,a5,31
   12c8c:	4057d793          	sra	a5,a5,0x5
   12c90:	10059a63          	bnez	a1,12da4 <__extenddftf2+0x1e8>
   12c94:	40f006b3          	neg	a3,a5
   12c98:	00269693          	sll	a3,a3,0x2
   12c9c:	01010613          	add	a2,sp,16
   12ca0:	00d60733          	add	a4,a2,a3
   12ca4:	00010893          	mv	a7,sp
   12ca8:	40d006b3          	neg	a3,a3
   12cac:	00c72803          	lw	a6,12(a4)
   12cb0:	00d705b3          	add	a1,a4,a3
   12cb4:	ffc70713          	add	a4,a4,-4
   12cb8:	0105a623          	sw	a6,12(a1)
   12cbc:	fee898e3          	bne	a7,a4,12cac <__extenddftf2+0xf0>
   12cc0:	fff78713          	add	a4,a5,-1
   12cc4:	00170793          	add	a5,a4,1
   12cc8:	00279793          	sll	a5,a5,0x2
   12ccc:	00800693          	li	a3,8
   12cd0:	00060713          	mv	a4,a2
   12cd4:	00d7ea63          	bltu	a5,a3,12ce8 <__extenddftf2+0x12c>
   12cd8:	00012823          	sw	zero,16(sp)
   12cdc:	00062223          	sw	zero,4(a2)
   12ce0:	ff878793          	add	a5,a5,-8
   12ce4:	01810713          	add	a4,sp,24
   12ce8:	00400693          	li	a3,4
   12cec:	00d7e463          	bltu	a5,a3,12cf4 <__extenddftf2+0x138>
   12cf0:	00072023          	sw	zero,0(a4)
   12cf4:	000047b7          	lui	a5,0x4
   12cf8:	c0c78793          	add	a5,a5,-1012 # 3c0c <_malloc_r+0x6d4>
   12cfc:	40a787b3          	sub	a5,a5,a0
   12d00:	01179793          	sll	a5,a5,0x11
   12d04:	01012503          	lw	a0,16(sp)
   12d08:	01412403          	lw	s0,20(sp)
   12d0c:	01812683          	lw	a3,24(sp)
   12d10:	01c15703          	lhu	a4,28(sp)
   12d14:	0117d793          	srl	a5,a5,0x11
   12d18:	f15ff06f          	j	12c2c <__extenddftf2+0x70>
   12d1c:	02050663          	beqz	a0,12d48 <__extenddftf2+0x18c>
   12d20:	000087b7          	lui	a5,0x8
   12d24:	01c71693          	sll	a3,a4,0x1c
   12d28:	0045d613          	srl	a2,a1,0x4
   12d2c:	00475713          	srl	a4,a4,0x4
   12d30:	00f76733          	or	a4,a4,a5
   12d34:	00c6e6b3          	or	a3,a3,a2
   12d38:	01c59413          	sll	s0,a1,0x1c
   12d3c:	fff78793          	add	a5,a5,-1 # 7fff <_ldcheck+0x23>
   12d40:	00000513          	li	a0,0
   12d44:	ee9ff06f          	j	12c2c <__extenddftf2+0x70>
   12d48:	000087b7          	lui	a5,0x8
   12d4c:	00000693          	li	a3,0
   12d50:	00000413          	li	s0,0
   12d54:	fff78793          	add	a5,a5,-1 # 7fff <_ldcheck+0x23>
   12d58:	00000713          	li	a4,0
   12d5c:	ed1ff06f          	j	12c2c <__extenddftf2+0x70>
   12d60:	00000693          	li	a3,0
   12d64:	00000413          	li	s0,0
   12d68:	00000793          	li	a5,0
   12d6c:	00000713          	li	a4,0
   12d70:	ebdff06f          	j	12c2c <__extenddftf2+0x70>
   12d74:	090000ef          	jal	12e04 <__clzsi2>
   12d78:	05150793          	add	a5,a0,81
   12d7c:	01f7f593          	and	a1,a5,31
   12d80:	02050513          	add	a0,a0,32
   12d84:	4057d793          	sra	a5,a5,0x5
   12d88:	f00586e3          	beqz	a1,12c94 <__extenddftf2+0xd8>
   12d8c:	00200713          	li	a4,2
   12d90:	00e78a63          	beq	a5,a4,12da4 <__extenddftf2+0x1e8>
   12d94:	00200713          	li	a4,2
   12d98:	00300793          	li	a5,3
   12d9c:	01010613          	add	a2,sp,16
   12da0:	04c0006f          	j	12dec <__extenddftf2+0x230>
   12da4:	40f008b3          	neg	a7,a5
   12da8:	00289893          	sll	a7,a7,0x2
   12dac:	00c88713          	add	a4,a7,12
   12db0:	02000e13          	li	t3,32
   12db4:	01010613          	add	a2,sp,16
   12db8:	40be0e33          	sub	t3,t3,a1
   12dbc:	00e60733          	add	a4,a2,a4
   12dc0:	411008b3          	neg	a7,a7
   12dc4:	00072683          	lw	a3,0(a4)
   12dc8:	ffc72803          	lw	a6,-4(a4)
   12dcc:	01170333          	add	t1,a4,a7
   12dd0:	00b696b3          	sll	a3,a3,a1
   12dd4:	01c85833          	srl	a6,a6,t3
   12dd8:	0106e6b3          	or	a3,a3,a6
   12ddc:	00d32023          	sw	a3,0(t1)
   12de0:	ffc70713          	add	a4,a4,-4
   12de4:	fee610e3          	bne	a2,a4,12dc4 <__extenddftf2+0x208>
   12de8:	fff78713          	add	a4,a5,-1
   12dec:	00279793          	sll	a5,a5,0x2
   12df0:	02078793          	add	a5,a5,32
   12df4:	002787b3          	add	a5,a5,sp
   12df8:	00b415b3          	sll	a1,s0,a1
   12dfc:	feb7a823          	sw	a1,-16(a5)
   12e00:	ec5ff06f          	j	12cc4 <__extenddftf2+0x108>

00012e04 <__clzsi2>:
   12e04:	000107b7          	lui	a5,0x10
   12e08:	02f57a63          	bgeu	a0,a5,12e3c <__clzsi2+0x38>
   12e0c:	10053713          	sltiu	a4,a0,256
   12e10:	00173713          	seqz	a4,a4
   12e14:	00371713          	sll	a4,a4,0x3
   12e18:	000147b7          	lui	a5,0x14
   12e1c:	00e55533          	srl	a0,a0,a4
   12e20:	6d078793          	add	a5,a5,1744 # 146d0 <__clz_tab>
   12e24:	00a787b3          	add	a5,a5,a0
   12e28:	0007c503          	lbu	a0,0(a5)
   12e2c:	02000693          	li	a3,32
   12e30:	40e686b3          	sub	a3,a3,a4
   12e34:	40a68533          	sub	a0,a3,a0
   12e38:	00008067          	ret
   12e3c:	010007b7          	lui	a5,0x1000
   12e40:	02f57463          	bgeu	a0,a5,12e68 <__clzsi2+0x64>
   12e44:	01000713          	li	a4,16
   12e48:	000147b7          	lui	a5,0x14
   12e4c:	00e55533          	srl	a0,a0,a4
   12e50:	6d078793          	add	a5,a5,1744 # 146d0 <__clz_tab>
   12e54:	00a787b3          	add	a5,a5,a0
   12e58:	0007c503          	lbu	a0,0(a5)
   12e5c:	01000693          	li	a3,16
   12e60:	40a68533          	sub	a0,a3,a0
   12e64:	00008067          	ret
   12e68:	01800713          	li	a4,24
   12e6c:	000147b7          	lui	a5,0x14
   12e70:	00e55533          	srl	a0,a0,a4
   12e74:	6d078793          	add	a5,a5,1744 # 146d0 <__clz_tab>
   12e78:	00a787b3          	add	a5,a5,a0
   12e7c:	0007c503          	lbu	a0,0(a5)
   12e80:	00800693          	li	a3,8
   12e84:	40a68533          	sub	a0,a3,a0
   12e88:	00008067          	ret

00012e8c <alt_get_errno>:
  if (fd)
  {
    /*
     * If the associated file system/device has a close function, call it so 
     * that any necessary cleanup code can run.
     */
   12e8c:	ff010113          	add	sp,sp,-16
   12e90:	00112623          	sw	ra,12(sp)
   12e94:	00812423          	sw	s0,8(sp)
   12e98:	01010413          	add	s0,sp,16

   12e9c:	8141a783          	lw	a5,-2028(gp) # 160f0 <alt_errno>
   12ea0:	00078a63          	beqz	a5,12eb4 <alt_get_errno+0x28>
   12ea4:	8141a783          	lw	a5,-2028(gp) # 160f0 <alt_errno>
   12ea8:	000780e7          	jalr	a5
   12eac:	00050793          	mv	a5,a0
   12eb0:	00c0006f          	j	12ebc <alt_get_errno+0x30>
   12eb4:	000187b7          	lui	a5,0x18
   12eb8:	a2478793          	add	a5,a5,-1500 # 17a24 <errno>
    rval = (fd->dev->close) ? fd->dev->close(fd) : 0;
   12ebc:	00078513          	mv	a0,a5
   12ec0:	00c12083          	lw	ra,12(sp)
   12ec4:	00812403          	lw	s0,8(sp)
   12ec8:	01010113          	add	sp,sp,16
   12ecc:	00008067          	ret

00012ed0 <_close>:
{
   12ed0:	fd010113          	add	sp,sp,-48
   12ed4:	02112623          	sw	ra,44(sp)
   12ed8:	02812423          	sw	s0,40(sp)
   12edc:	03010413          	add	s0,sp,48
   12ee0:	fca42e23          	sw	a0,-36(s0)
  fd = (fildes < 0) ? NULL : &alt_fd_list[fildes];
   12ee4:	fdc42783          	lw	a5,-36(s0)
   12ee8:	0207c463          	bltz	a5,12f10 <_close+0x40>
   12eec:	fdc42703          	lw	a4,-36(s0)
   12ef0:	00070793          	mv	a5,a4
   12ef4:	00179793          	sll	a5,a5,0x1
   12ef8:	00e787b3          	add	a5,a5,a4
   12efc:	00279793          	sll	a5,a5,0x2
   12f00:	00016737          	lui	a4,0x16
   12f04:	8b870713          	add	a4,a4,-1864 # 158b8 <alt_fd_list>
   12f08:	00e787b3          	add	a5,a5,a4
   12f0c:	0080006f          	j	12f14 <_close+0x44>
   12f10:	00000793          	li	a5,0
   12f14:	fef42423          	sw	a5,-24(s0)
  if (fd)
   12f18:	fe842783          	lw	a5,-24(s0)
   12f1c:	06078663          	beqz	a5,12f88 <_close+0xb8>
    rval = (fd->dev->close) ? fd->dev->close(fd) : 0;
   12f20:	fe842783          	lw	a5,-24(s0)
   12f24:	0007a783          	lw	a5,0(a5)
   12f28:	0107a783          	lw	a5,16(a5)
   12f2c:	02078063          	beqz	a5,12f4c <_close+0x7c>
   12f30:	fe842783          	lw	a5,-24(s0)
   12f34:	0007a783          	lw	a5,0(a5)
   12f38:	0107a783          	lw	a5,16(a5)
   12f3c:	fe842503          	lw	a0,-24(s0)
   12f40:	000780e7          	jalr	a5
   12f44:	00050793          	mv	a5,a0
   12f48:	0080006f          	j	12f50 <_close+0x80>
   12f4c:	00000793          	li	a5,0
   12f50:	fef42623          	sw	a5,-20(s0)

    /* Free the file descriptor structure and return. */

    alt_release_fd (fildes);
   12f54:	fdc42503          	lw	a0,-36(s0)
   12f58:	95dee0ef          	jal	18b4 <alt_release_fd>
    if (rval < 0)
   12f5c:	fec42783          	lw	a5,-20(s0)
   12f60:	0207d063          	bgez	a5,12f80 <_close+0xb0>
    {
      ALT_ERRNO = -rval;
   12f64:	f29ff0ef          	jal	12e8c <alt_get_errno>
   12f68:	00050713          	mv	a4,a0
   12f6c:	fec42783          	lw	a5,-20(s0)
   12f70:	40f007b3          	neg	a5,a5
   12f74:	00f72023          	sw	a5,0(a4)
      return -1;
   12f78:	fff00793          	li	a5,-1
   12f7c:	0200006f          	j	12f9c <_close+0xcc>
    }
    return 0;
   12f80:	00000793          	li	a5,0
   12f84:	0180006f          	j	12f9c <_close+0xcc>
  }
  else
  {
    ALT_ERRNO = EBADFD;
   12f88:	f05ff0ef          	jal	12e8c <alt_get_errno>
   12f8c:	00050713          	mv	a4,a0
   12f90:	05100793          	li	a5,81
   12f94:	00f72023          	sw	a5,0(a4)
    return -1;
   12f98:	fff00793          	li	a5,-1
  }
}
   12f9c:	00078513          	mv	a0,a5
   12fa0:	02c12083          	lw	ra,44(sp)
   12fa4:	02812403          	lw	s0,40(sp)
   12fa8:	03010113          	add	sp,sp,48
   12fac:	00008067          	ret

00012fb0 <_exit>:
 *
 * ALT_EXIT is mapped onto the _exit() system call in alt_syscall.h
 */

void ALT_EXIT (int exit_code)
{
   12fb0:	fd010113          	add	sp,sp,-48
   12fb4:	02812623          	sw	s0,44(sp)
   12fb8:	03010413          	add	s0,sp,48
   12fbc:	fca42e23          	sw	a0,-36(s0)
  ALT_LOG_PRINT_BOOT("[alt_exit.c] Entering _exit() function.\r\n");
  ALT_LOG_PRINT_BOOT("[alt_exit.c] Exit code from main was %d.\r\n",exit_code);
  /* Stop all other threads */

  ALT_LOG_PRINT_BOOT("[alt_exit.c] Calling ALT_OS_STOP().\r\n");
  ALT_OS_STOP();
   12fc0:	00000013          	nop
   12fc4:	fdc42783          	lw	a5,-36(s0)
   12fc8:	fef42623          	sw	a5,-20(s0)
 * Routine called on exit.
 * TODO: Add support for GMON/gprof.
 */
static ALT_INLINE ALT_ALWAYS_INLINE void alt_sim_halt(int exit_code)
{
  register int a0 asm ("a0") = exit_code;
   12fcc:	fec42503          	lw	a0,-20(s0)
    "ebreak" 
    : 
    : "r"(a0), "r"(a1));

#else /* !DEBUG_STUB */
  if (a0) {
   12fd0:	00050793          	mv	a5,a0
   12fd4:	00078663          	beqz	a5,12fe0 <_exit+0x30>
    ALT_SIM_FAIL();
   12fd8:	7c103013          	sltiu	zero,zero,1985
  } else {
    ALT_SIM_PASS();
  }
#endif /* DEBUG_STUB */
}
   12fdc:	0080006f          	j	12fe4 <_exit+0x34>
    ALT_SIM_PASS();
   12fe0:	7c203013          	sltiu	zero,zero,1986
}
   12fe4:	00000013          	nop
  ALT_SIM_HALT(exit_code);

  /* spin forever, since there's no where to go back to */

  ALT_LOG_PRINT_BOOT("[alt_exit.c] Spinning forever.\r\n");
  while (1);
   12fe8:	00000013          	nop
   12fec:	ffdff06f          	j	12fe8 <_exit+0x38>

00012ff0 <alt_get_errno>:
    case 2: /* stderr file descriptor */
        st->st_mode = _IFCHR;
        return 0;
#endif /* ALT_STDERR_PRESENT */        
    default:
        return -1;
   12ff0:	ff010113          	add	sp,sp,-16
   12ff4:	00112623          	sw	ra,12(sp)
   12ff8:	00812423          	sw	s0,8(sp)
   12ffc:	01010413          	add	s0,sp,16
    }
   13000:	8141a783          	lw	a5,-2028(gp) # 160f0 <alt_errno>
   13004:	00078a63          	beqz	a5,13018 <alt_get_errno+0x28>
   13008:	8141a783          	lw	a5,-2028(gp) # 160f0 <alt_errno>
   1300c:	000780e7          	jalr	a5
   13010:	00050793          	mv	a5,a0
   13014:	00c0006f          	j	13020 <alt_get_errno+0x30>
   13018:	000187b7          	lui	a5,0x18
   1301c:	a2478793          	add	a5,a5,-1500 # 17a24 <errno>

   13020:	00078513          	mv	a0,a5
   13024:	00c12083          	lw	ra,12(sp)
   13028:	00812403          	lw	s0,8(sp)
   1302c:	01010113          	add	sp,sp,16
   13030:	00008067          	ret

00013034 <_fstat>:
}

#else /* !ALT_USE_DIRECT_DRIVERS */

int ALT_FSTAT (int file, struct stat *st)
{
   13034:	fd010113          	add	sp,sp,-48
   13038:	02112623          	sw	ra,44(sp)
   1303c:	02812423          	sw	s0,40(sp)
   13040:	03010413          	add	s0,sp,48
   13044:	fca42e23          	sw	a0,-36(s0)
   13048:	fcb42c23          	sw	a1,-40(s0)
   * A common error case is that when the file descriptor was created, the call
   * to open() failed resulting in a negative file descriptor. This is trapped
   * below so that we don't try and process an invalid file descriptor.
   */

  fd = (file < 0) ? NULL : &alt_fd_list[file];
   1304c:	fdc42783          	lw	a5,-36(s0)
   13050:	0207c463          	bltz	a5,13078 <_fstat+0x44>
   13054:	fdc42703          	lw	a4,-36(s0)
   13058:	00070793          	mv	a5,a4
   1305c:	00179793          	sll	a5,a5,0x1
   13060:	00e787b3          	add	a5,a5,a4
   13064:	00279793          	sll	a5,a5,0x2
   13068:	00016737          	lui	a4,0x16
   1306c:	8b870713          	add	a4,a4,-1864 # 158b8 <alt_fd_list>
   13070:	00e787b3          	add	a5,a5,a4
   13074:	0080006f          	j	1307c <_fstat+0x48>
   13078:	00000793          	li	a5,0
   1307c:	fef42623          	sw	a5,-20(s0)
  
  if (fd)
   13080:	fec42783          	lw	a5,-20(s0)
   13084:	04078463          	beqz	a5,130cc <_fstat+0x98>
  {
    /* Call the drivers fstat() function to fill out the "st" structure. */

    if (fd->dev->fstat)
   13088:	fec42783          	lw	a5,-20(s0)
   1308c:	0007a783          	lw	a5,0(a5)
   13090:	0207a783          	lw	a5,32(a5)
   13094:	02078263          	beqz	a5,130b8 <_fstat+0x84>
    {
      return fd->dev->fstat(fd, st);
   13098:	fec42783          	lw	a5,-20(s0)
   1309c:	0007a783          	lw	a5,0(a5)
   130a0:	0207a783          	lw	a5,32(a5)
   130a4:	fd842583          	lw	a1,-40(s0)
   130a8:	fec42503          	lw	a0,-20(s0)
   130ac:	000780e7          	jalr	a5
   130b0:	00050793          	mv	a5,a0
   130b4:	02c0006f          	j	130e0 <_fstat+0xac>
     * device.
     */
 
    else
    {
      st->st_mode = _IFCHR;
   130b8:	fd842783          	lw	a5,-40(s0)
   130bc:	00002737          	lui	a4,0x2
   130c0:	00e7a223          	sw	a4,4(a5)
      return 0;
   130c4:	00000793          	li	a5,0
   130c8:	0180006f          	j	130e0 <_fstat+0xac>
    }
  }
  else
  {
    ALT_ERRNO = EBADFD;
   130cc:	f25ff0ef          	jal	12ff0 <alt_get_errno>
   130d0:	00050713          	mv	a4,a0
   130d4:	05100793          	li	a5,81
   130d8:	00f72023          	sw	a5,0(a4) # 2000 <global_stdio_init.part.0+0x8>
    return -1;
   130dc:	fff00793          	li	a5,-1
  }
}
   130e0:	00078513          	mv	a0,a5
   130e4:	02c12083          	lw	ra,44(sp)
   130e8:	02812403          	lw	s0,40(sp)
   130ec:	03010113          	add	sp,sp,48
   130f0:	00008067          	ret

000130f4 <_getpid>:
 *
 * ALT_GETPID is mapped onto the getpid() system call in alt_syscall.h
 */
 
int ALT_GETPID (void)
{
   130f4:	ff010113          	add	sp,sp,-16
   130f8:	00812623          	sw	s0,12(sp)
   130fc:	01010413          	add	s0,sp,16
  return 0;
   13100:	00000793          	li	a5,0
}
   13104:	00078513          	mv	a0,a5
   13108:	00c12403          	lw	s0,12(sp)
   1310c:	01010113          	add	sp,sp,16
   13110:	00008067          	ret

00013114 <alt_get_errno>:
 * isatty() can be used to determine whether the input file descriptor "file" 
 * refers to a terminal device or not. If it is a terminal device then the
 * return value is one, otherwise it is zero.  
 *
 * ALT_ISATTY is mapped onto the isatty() system call in alt_syscall.h
 */
   13114:	ff010113          	add	sp,sp,-16
   13118:	00112623          	sw	ra,12(sp)
   1311c:	00812423          	sw	s0,8(sp)
   13120:	01010413          	add	s0,sp,16
 
   13124:	8141a783          	lw	a5,-2028(gp) # 160f0 <alt_errno>
   13128:	00078a63          	beqz	a5,1313c <alt_get_errno+0x28>
   1312c:	8141a783          	lw	a5,-2028(gp) # 160f0 <alt_errno>
   13130:	000780e7          	jalr	a5
   13134:	00050793          	mv	a5,a0
   13138:	00c0006f          	j	13144 <alt_get_errno+0x30>
   1313c:	000187b7          	lui	a5,0x18
   13140:	a2478793          	add	a5,a5,-1500 # 17a24 <errno>
int ALT_ISATTY (int file)
   13144:	00078513          	mv	a0,a5
   13148:	00c12083          	lw	ra,12(sp)
   1314c:	00812403          	lw	s0,8(sp)
   13150:	01010113          	add	sp,sp,16
   13154:	00008067          	ret

00013158 <_isatty>:
{
   13158:	f7010113          	add	sp,sp,-144
   1315c:	08112623          	sw	ra,140(sp)
   13160:	08812423          	sw	s0,136(sp)
   13164:	09010413          	add	s0,sp,144
   13168:	f6a42e23          	sw	a0,-132(s0)
   1316c:	000187b7          	lui	a5,0x18
   13170:	a5c7a703          	lw	a4,-1444(a5) # 17a5c <__stack_chk_guard>
   13174:	fee42623          	sw	a4,-20(s0)
   13178:	00000713          	li	a4,0
  alt_fd*     fd;
  struct stat stat;
  
  stat.st_mode=0;  /* misrac compliance */
   1317c:	f8042a23          	sw	zero,-108(s0)
   * A common error case is that when the file descriptor was created, the call
   * to open() failed resulting in a negative file descriptor. This is trapped
   * below so that we don't try and process an invalid file descriptor.
   */

  fd = (file < 0) ? NULL : &alt_fd_list[file];
   13180:	f7c42783          	lw	a5,-132(s0)
   13184:	0207c463          	bltz	a5,131ac <_isatty+0x54>
   13188:	f7c42703          	lw	a4,-132(s0)
   1318c:	00070793          	mv	a5,a4
   13190:	00179793          	sll	a5,a5,0x1
   13194:	00e787b3          	add	a5,a5,a4
   13198:	00279793          	sll	a5,a5,0x2
   1319c:	00016737          	lui	a4,0x16
   131a0:	8b870713          	add	a4,a4,-1864 # 158b8 <alt_fd_list>
   131a4:	00e787b3          	add	a5,a5,a4
   131a8:	0080006f          	j	131b0 <_isatty+0x58>
   131ac:	00000793          	li	a5,0
   131b0:	f8f42623          	sw	a5,-116(s0)
  
  if (fd)
   131b4:	f8c42783          	lw	a5,-116(s0)
   131b8:	04078a63          	beqz	a5,1320c <_isatty+0xb4>
    /*
     * If a device driver does not provide an fstat() function, then it is 
     * treated as a terminal device by default.
     */

    if (!fd->dev->fstat)
   131bc:	f8c42783          	lw	a5,-116(s0)
   131c0:	0007a783          	lw	a5,0(a5)
   131c4:	0207a783          	lw	a5,32(a5)
   131c8:	00079663          	bnez	a5,131d4 <_isatty+0x7c>
    {
      return 1;
   131cc:	00100793          	li	a5,1
   131d0:	0500006f          	j	13220 <_isatty+0xc8>
     * this is called so that the device can identify itself.
     */ 

    else
    {
      if (fstat (file, &stat) < 0)
   131d4:	f9040793          	add	a5,s0,-112
   131d8:	00078593          	mv	a1,a5
   131dc:	f7c42503          	lw	a0,-132(s0)
   131e0:	3c9000ef          	jal	13da8 <fstat>
   131e4:	00050793          	mv	a5,a0
   131e8:	0007d663          	bgez	a5,131f4 <_isatty+0x9c>
        return 0;  // fstat will set ERRNO
   131ec:	00000793          	li	a5,0
   131f0:	0300006f          	j	13220 <_isatty+0xc8>
      else
        return (stat.st_mode == _IFCHR) ? 1 : 0;
   131f4:	f9442703          	lw	a4,-108(s0)
   131f8:	ffffe7b7          	lui	a5,0xffffe
   131fc:	00f707b3          	add	a5,a4,a5
   13200:	0017b793          	seqz	a5,a5
   13204:	0ff7f793          	zext.b	a5,a5
   13208:	0180006f          	j	13220 <_isatty+0xc8>
    }
  }
  else
  {
    ALT_ERRNO = EBADFD;
   1320c:	f09ff0ef          	jal	13114 <alt_get_errno>
   13210:	00050713          	mv	a4,a0
   13214:	05100793          	li	a5,81
   13218:	00f72023          	sw	a5,0(a4)
    return 0;
   1321c:	00000793          	li	a5,0
  }
}
   13220:	00078713          	mv	a4,a5
   13224:	000187b7          	lui	a5,0x18
   13228:	fec42683          	lw	a3,-20(s0)
   1322c:	a5c7a783          	lw	a5,-1444(a5) # 17a5c <__stack_chk_guard>
   13230:	00f6c7b3          	xor	a5,a3,a5
   13234:	00000693          	li	a3,0
   13238:	00078463          	beqz	a5,13240 <_isatty+0xe8>
   1323c:	37d000ef          	jal	13db8 <__stack_chk_fail>
   13240:	00070513          	mv	a0,a4
   13244:	08c12083          	lw	ra,140(sp)
   13248:	08812403          	lw	s0,136(sp)
   1324c:	09010113          	add	sp,sp,144
   13250:	00008067          	ret

00013254 <alt_get_errno>:
    case SIGSYS:
    case SIGTRAP:
    case SIGVTALRM:
    case SIGXCPU:
    case SIGXFSZ:

   13254:	ff010113          	add	sp,sp,-16
   13258:	00112623          	sw	ra,12(sp)
   1325c:	00812423          	sw	s0,8(sp)
   13260:	01010413          	add	s0,sp,16
      /* 
   13264:	8141a783          	lw	a5,-2028(gp) # 160f0 <alt_errno>
   13268:	00078a63          	beqz	a5,1327c <alt_get_errno+0x28>
   1326c:	8141a783          	lw	a5,-2028(gp) # 160f0 <alt_errno>
   13270:	000780e7          	jalr	a5
   13274:	00050793          	mv	a5,a0
   13278:	00c0006f          	j	13284 <alt_get_errno+0x30>
   1327c:	000187b7          	lui	a5,0x18
   13280:	a2478793          	add	a5,a5,-1500 # 17a24 <errno>
       * The Posix standard defines the default behaviour for all these signals 
   13284:	00078513          	mv	a0,a5
   13288:	00c12083          	lw	ra,12(sp)
   1328c:	00812403          	lw	s0,8(sp)
   13290:	01010113          	add	sp,sp,16
   13294:	00008067          	ret

00013298 <_kill>:
{
   13298:	fd010113          	add	sp,sp,-48
   1329c:	02112623          	sw	ra,44(sp)
   132a0:	02812423          	sw	s0,40(sp)
   132a4:	03010413          	add	s0,sp,48
   132a8:	fca42e23          	sw	a0,-36(s0)
   132ac:	fcb42c23          	sw	a1,-40(s0)
  int status = 0;
   132b0:	fe042623          	sw	zero,-20(s0)
  if (pid <= 0)
   132b4:	fdc42783          	lw	a5,-36(s0)
   132b8:	06f04e63          	bgtz	a5,13334 <_kill+0x9c>
    switch (sig)
   132bc:	fd842783          	lw	a5,-40(s0)
   132c0:	08078463          	beqz	a5,13348 <_kill+0xb0>
   132c4:	fd842783          	lw	a5,-40(s0)
   132c8:	0607c063          	bltz	a5,13328 <_kill+0x90>
   132cc:	fd842703          	lw	a4,-40(s0)
   132d0:	01f00793          	li	a5,31
   132d4:	04e7ca63          	blt	a5,a4,13328 <_kill+0x90>
   132d8:	fd842703          	lw	a4,-40(s0)
   132dc:	00300793          	li	a5,3
   132e0:	04f74463          	blt	a4,a5,13328 <_kill+0x90>
   132e4:	fd842783          	lw	a5,-40(s0)
   132e8:	00100713          	li	a4,1
   132ec:	00f717b3          	sll	a5,a4,a5
   132f0:	cf810737          	lui	a4,0xcf810
   132f4:	f7870713          	add	a4,a4,-136 # cf80ff78 <__alt_data_end+0xcf7eff78>
   132f8:	00e7f733          	and	a4,a5,a4
   132fc:	00e03733          	snez	a4,a4
   13300:	0ff77713          	zext.b	a4,a4
   13304:	00071e63          	bnez	a4,13320 <_kill+0x88>
   13308:	00110737          	lui	a4,0x110
   1330c:	00e7f7b3          	and	a5,a5,a4
   13310:	00f037b3          	snez	a5,a5
   13314:	0ff7f793          	zext.b	a5,a5
   13318:	02079c63          	bnez	a5,13350 <_kill+0xb8>
   1331c:	00c0006f          	j	13328 <_kill+0x90>
       * as being eqivalent to a call to _exit(). No mechanism is provided to 
       * change this behaviour.
       */

      _exit(0);
   13320:	00000513          	li	a0,0
   13324:	c8dff0ef          	jal	12fb0 <_exit>
      break;
    default:

      /* Tried to send an unsupported signal */

      status = EINVAL;
   13328:	01600793          	li	a5,22
   1332c:	fef42623          	sw	a5,-20(s0)
   13330:	0240006f          	j	13354 <_kill+0xbc>
    }
  }

  else if (pid > 0)
   13334:	fdc42783          	lw	a5,-36(s0)
   13338:	00f05e63          	blez	a5,13354 <_kill+0xbc>
  {
    /* Attempted to signal a non-existant process */

    status = ESRCH;
   1333c:	00300793          	li	a5,3
   13340:	fef42623          	sw	a5,-20(s0)
   13344:	0100006f          	j	13354 <_kill+0xbc>
      break;
   13348:	00000013          	nop
   1334c:	0080006f          	j	13354 <_kill+0xbc>
      break;
   13350:	00000013          	nop
  }

  if (status)
   13354:	fec42783          	lw	a5,-20(s0)
   13358:	00078e63          	beqz	a5,13374 <_kill+0xdc>
  {
    ALT_ERRNO = status;
   1335c:	ef9ff0ef          	jal	13254 <alt_get_errno>
   13360:	00050713          	mv	a4,a0
   13364:	fec42783          	lw	a5,-20(s0)
   13368:	00f72023          	sw	a5,0(a4) # 110000 <__alt_data_end+0xf0000>
    return -1;
   1336c:	fff00793          	li	a5,-1
   13370:	0080006f          	j	13378 <_kill+0xe0>
  }

  return 0;
   13374:	00000793          	li	a5,0
}
   13378:	00078513          	mv	a0,a5
   1337c:	02c12083          	lw	ra,44(sp)
   13380:	02812403          	lw	s0,40(sp)
   13384:	03010113          	add	sp,sp,48
   13388:	00008067          	ret

0001338c <alt_get_errno>:
   * to open() failed resulting in a negative file descriptor. This is trapped
   * below so that we don't try and process an invalid file descriptor.
   */

  fd = (file < 0) ? NULL : &alt_fd_list[file];
  
   1338c:	ff010113          	add	sp,sp,-16
   13390:	00112623          	sw	ra,12(sp)
   13394:	00812423          	sw	s0,8(sp)
   13398:	01010413          	add	s0,sp,16
  if (fd) 
   1339c:	8141a783          	lw	a5,-2028(gp) # 160f0 <alt_errno>
   133a0:	00078a63          	beqz	a5,133b4 <alt_get_errno+0x28>
   133a4:	8141a783          	lw	a5,-2028(gp) # 160f0 <alt_errno>
   133a8:	000780e7          	jalr	a5
   133ac:	00050793          	mv	a5,a0
   133b0:	00c0006f          	j	133bc <alt_get_errno+0x30>
   133b4:	000187b7          	lui	a5,0x18
   133b8:	a2478793          	add	a5,a5,-1500 # 17a24 <errno>
  {
   133bc:	00078513          	mv	a0,a5
   133c0:	00c12083          	lw	ra,12(sp)
   133c4:	00812403          	lw	s0,8(sp)
   133c8:	01010113          	add	sp,sp,16
   133cc:	00008067          	ret

000133d0 <_lseek>:
{
   133d0:	fd010113          	add	sp,sp,-48
   133d4:	02112623          	sw	ra,44(sp)
   133d8:	02812423          	sw	s0,40(sp)
   133dc:	03010413          	add	s0,sp,48
   133e0:	fca42e23          	sw	a0,-36(s0)
   133e4:	fcb42c23          	sw	a1,-40(s0)
   133e8:	fcc42a23          	sw	a2,-44(s0)
  off_t   rc = 0; 
   133ec:	fe042423          	sw	zero,-24(s0)
  fd = (file < 0) ? NULL : &alt_fd_list[file];
   133f0:	fdc42783          	lw	a5,-36(s0)
   133f4:	0207c463          	bltz	a5,1341c <_lseek+0x4c>
   133f8:	fdc42703          	lw	a4,-36(s0)
   133fc:	00070793          	mv	a5,a4
   13400:	00179793          	sll	a5,a5,0x1
   13404:	00e787b3          	add	a5,a5,a4
   13408:	00279793          	sll	a5,a5,0x2
   1340c:	00016737          	lui	a4,0x16
   13410:	8b870713          	add	a4,a4,-1864 # 158b8 <alt_fd_list>
   13414:	00e787b3          	add	a5,a5,a4
   13418:	0080006f          	j	13420 <_lseek+0x50>
   1341c:	00000793          	li	a5,0
   13420:	fef42623          	sw	a5,-20(s0)
  if (fd) 
   13424:	fec42783          	lw	a5,-20(s0)
   13428:	04078263          	beqz	a5,1346c <_lseek+0x9c>
    /*
     * If the device driver provides an implementation of the lseek() function,
     * then call that to process the request.
     */
 
    if (fd->dev->lseek)
   1342c:	fec42783          	lw	a5,-20(s0)
   13430:	0007a783          	lw	a5,0(a5)
   13434:	01c7a783          	lw	a5,28(a5)
   13438:	02078463          	beqz	a5,13460 <_lseek+0x90>
    {
      rc = fd->dev->lseek(fd, ptr, dir);
   1343c:	fec42783          	lw	a5,-20(s0)
   13440:	0007a783          	lw	a5,0(a5)
   13444:	01c7a783          	lw	a5,28(a5)
   13448:	fd442603          	lw	a2,-44(s0)
   1344c:	fd842583          	lw	a1,-40(s0)
   13450:	fec42503          	lw	a0,-20(s0)
   13454:	000780e7          	jalr	a5
   13458:	fea42423          	sw	a0,-24(s0)
   1345c:	0180006f          	j	13474 <_lseek+0xa4>
     * Otherwise return an error.
     */

    else
    {
      rc = -ENOTSUP;
   13460:	f7a00793          	li	a5,-134
   13464:	fef42423          	sw	a5,-24(s0)
   13468:	00c0006f          	j	13474 <_lseek+0xa4>
    }
  }
  else  
  {
    rc = -EBADFD;
   1346c:	faf00793          	li	a5,-81
   13470:	fef42423          	sw	a5,-24(s0)
  }

  if (rc < 0)
   13474:	fe842783          	lw	a5,-24(s0)
   13478:	0207d063          	bgez	a5,13498 <_lseek+0xc8>
  {
    ALT_ERRNO = -rc;
   1347c:	f11ff0ef          	jal	1338c <alt_get_errno>
   13480:	00050713          	mv	a4,a0
   13484:	fe842783          	lw	a5,-24(s0)
   13488:	40f007b3          	neg	a5,a5
   1348c:	00f72023          	sw	a5,0(a4)
    rc = -1;
   13490:	fff00793          	li	a5,-1
   13494:	fef42423          	sw	a5,-24(s0)
  }

  return rc;
   13498:	fe842783          	lw	a5,-24(s0)
}
   1349c:	00078513          	mv	a0,a5
   134a0:	02c12083          	lw	ra,44(sp)
   134a4:	02812403          	lw	s0,40(sp)
   134a8:	03010113          	add	sp,sp,48
   134ac:	00008067          	ret

000134b0 <alt_get_errno>:
   */

  for (i = 0; i <= alt_max_fd; i++)
  {
    if ((alt_fd_list[i].dev == fd->dev) &&
        (alt_fd_list[i].fd_flags & ALT_FD_EXCL) &&
   134b0:	ff010113          	add	sp,sp,-16
   134b4:	00112623          	sw	ra,12(sp)
   134b8:	00812423          	sw	s0,8(sp)
   134bc:	01010413          	add	s0,sp,16
        (&alt_fd_list[i] != fd))
   134c0:	8141a783          	lw	a5,-2028(gp) # 160f0 <alt_errno>
   134c4:	00078a63          	beqz	a5,134d8 <alt_get_errno+0x28>
   134c8:	8141a783          	lw	a5,-2028(gp) # 160f0 <alt_errno>
   134cc:	000780e7          	jalr	a5
   134d0:	00050793          	mv	a5,a0
   134d4:	00c0006f          	j	134e0 <alt_get_errno+0x30>
   134d8:	000187b7          	lui	a5,0x18
   134dc:	a2478793          	add	a5,a5,-1500 # 17a24 <errno>
    {
   134e0:	00078513          	mv	a0,a5
   134e4:	00c12083          	lw	ra,12(sp)
   134e8:	00812403          	lw	s0,8(sp)
   134ec:	01010113          	add	sp,sp,16
   134f0:	00008067          	ret

000134f4 <alt_file_locked>:
{
   134f4:	fd010113          	add	sp,sp,-48
   134f8:	02812623          	sw	s0,44(sp)
   134fc:	03010413          	add	s0,sp,48
   13500:	fca42e23          	sw	a0,-36(s0)
  fd->fd_flags |= ALT_FD_DEV;
   13504:	fdc42783          	lw	a5,-36(s0)
   13508:	0087a703          	lw	a4,8(a5)
   1350c:	400007b7          	lui	a5,0x40000
   13510:	00f76733          	or	a4,a4,a5
   13514:	fdc42783          	lw	a5,-36(s0)
   13518:	00e7a423          	sw	a4,8(a5) # 40000008 <__alt_data_end+0x3ffe0008>
  for (i = 0; i <= alt_max_fd; i++)
   1351c:	fe042623          	sw	zero,-20(s0)
   13520:	0980006f          	j	135b8 <alt_file_locked+0xc4>
    if ((alt_fd_list[i].dev == fd->dev) &&
   13524:	000167b7          	lui	a5,0x16
   13528:	8b878693          	add	a3,a5,-1864 # 158b8 <alt_fd_list>
   1352c:	fec42703          	lw	a4,-20(s0)
   13530:	00070793          	mv	a5,a4
   13534:	00179793          	sll	a5,a5,0x1
   13538:	00e787b3          	add	a5,a5,a4
   1353c:	00279793          	sll	a5,a5,0x2
   13540:	00f687b3          	add	a5,a3,a5
   13544:	0007a703          	lw	a4,0(a5)
   13548:	fdc42783          	lw	a5,-36(s0)
   1354c:	0007a783          	lw	a5,0(a5)
   13550:	04f71e63          	bne	a4,a5,135ac <alt_file_locked+0xb8>
        (alt_fd_list[i].fd_flags & ALT_FD_EXCL) &&
   13554:	000167b7          	lui	a5,0x16
   13558:	8b878693          	add	a3,a5,-1864 # 158b8 <alt_fd_list>
   1355c:	fec42703          	lw	a4,-20(s0)
   13560:	00070793          	mv	a5,a4
   13564:	00179793          	sll	a5,a5,0x1
   13568:	00e787b3          	add	a5,a5,a4
   1356c:	00279793          	sll	a5,a5,0x2
   13570:	00f687b3          	add	a5,a3,a5
   13574:	0087a783          	lw	a5,8(a5)
    if ((alt_fd_list[i].dev == fd->dev) &&
   13578:	0207da63          	bgez	a5,135ac <alt_file_locked+0xb8>
        (&alt_fd_list[i] != fd))
   1357c:	fec42703          	lw	a4,-20(s0)
   13580:	00070793          	mv	a5,a4
   13584:	00179793          	sll	a5,a5,0x1
   13588:	00e787b3          	add	a5,a5,a4
   1358c:	00279793          	sll	a5,a5,0x2
   13590:	00016737          	lui	a4,0x16
   13594:	8b870713          	add	a4,a4,-1864 # 158b8 <alt_fd_list>
   13598:	00e787b3          	add	a5,a5,a4
        (alt_fd_list[i].fd_flags & ALT_FD_EXCL) &&
   1359c:	fdc42703          	lw	a4,-36(s0)
   135a0:	00f70663          	beq	a4,a5,135ac <alt_file_locked+0xb8>
      return -EACCES;
   135a4:	ff300793          	li	a5,-13
   135a8:	0240006f          	j	135cc <alt_file_locked+0xd8>
  for (i = 0; i <= alt_max_fd; i++)
   135ac:	fec42783          	lw	a5,-20(s0)
   135b0:	00178793          	add	a5,a5,1
   135b4:	fef42623          	sw	a5,-20(s0)
   135b8:	8101a783          	lw	a5,-2032(gp) # 160ec <alt_max_fd>
   135bc:	00078713          	mv	a4,a5
   135c0:	fec42783          	lw	a5,-20(s0)
   135c4:	f6f770e3          	bgeu	a4,a5,13524 <alt_file_locked+0x30>
    }
  }
  
  /* The device is not locked */
 
  return 0;
   135c8:	00000793          	li	a5,0
}
   135cc:	00078513          	mv	a0,a5
   135d0:	02c12403          	lw	s0,44(sp)
   135d4:	03010113          	add	sp,sp,48
   135d8:	00008067          	ret

000135dc <_open>:
 *
 * ALT_OPEN is mapped onto the open() system call in alt_syscall.h
 */
 
int ALT_OPEN (const char* file, int flags, int mode)
{ 
   135dc:	fc010113          	add	sp,sp,-64
   135e0:	02112e23          	sw	ra,60(sp)
   135e4:	02812c23          	sw	s0,56(sp)
   135e8:	04010413          	add	s0,sp,64
   135ec:	fca42623          	sw	a0,-52(s0)
   135f0:	fcb42423          	sw	a1,-56(s0)
   135f4:	fcc42223          	sw	a2,-60(s0)
  alt_dev* dev;
  alt_fd*  fd;
  int index  = -1;
   135f8:	fff00793          	li	a5,-1
   135fc:	fef42023          	sw	a5,-32(s0)
  int status = -ENODEV;
   13600:	fed00793          	li	a5,-19
   13604:	fef42223          	sw	a5,-28(s0)
  int isafs = 0;
   13608:	fe042423          	sw	zero,-24(s0)
  /* 
   * Check the device list, to see if a device with a matching name is 
   * registered.
   */
  
  if (!(dev = alt_find_dev (file, &alt_dev_list)))
   1360c:	000167b7          	lui	a5,0x16
   13610:	0e478593          	add	a1,a5,228 # 160e4 <alt_dev_list>
   13614:	fcc42503          	lw	a0,-52(s0)
   13618:	474000ef          	jal	13a8c <alt_find_dev>
   1361c:	fca42e23          	sw	a0,-36(s0)
   13620:	fdc42783          	lw	a5,-36(s0)
   13624:	00079c63          	bnez	a5,1363c <_open+0x60>
  {
    /* No matching device, so try the filesystem list */

    dev   = alt_find_file (file);
   13628:	fcc42503          	lw	a0,-52(s0)
   1362c:	580000ef          	jal	13bac <alt_find_file>
   13630:	fca42e23          	sw	a0,-36(s0)
    isafs = 1;
   13634:	00100793          	li	a5,1
   13638:	fef42423          	sw	a5,-24(s0)

  /* 
   * If a matching device or filesystem is found, allocate a file descriptor. 
   */

  if (dev)
   1363c:	fdc42783          	lw	a5,-36(s0)
   13640:	0a078c63          	beqz	a5,136f8 <_open+0x11c>
  {
    if ((index = alt_get_fd (dev)) < 0)
   13644:	fdc42503          	lw	a0,-36(s0)
   13648:	6a0000ef          	jal	13ce8 <alt_get_fd>
   1364c:	fea42023          	sw	a0,-32(s0)
   13650:	fe042783          	lw	a5,-32(s0)
   13654:	0007d863          	bgez	a5,13664 <_open+0x88>
    {
      status = index;
   13658:	fe042783          	lw	a5,-32(s0)
   1365c:	fef42223          	sw	a5,-28(s0)
   13660:	0a00006f          	j	13700 <_open+0x124>
    }
    else
    {
      fd = &alt_fd_list[index];
   13664:	fe042703          	lw	a4,-32(s0)
   13668:	00070793          	mv	a5,a4
   1366c:	00179793          	sll	a5,a5,0x1
   13670:	00e787b3          	add	a5,a5,a4
   13674:	00279793          	sll	a5,a5,0x2
   13678:	00016737          	lui	a4,0x16
   1367c:	8b870713          	add	a4,a4,-1864 # 158b8 <alt_fd_list>
   13680:	00e787b3          	add	a5,a5,a4
   13684:	fef42623          	sw	a5,-20(s0)
      fd->fd_flags = (flags & ~ALT_FD_FLAGS_MASK);
   13688:	fc842703          	lw	a4,-56(s0)
   1368c:	400007b7          	lui	a5,0x40000
   13690:	fff78793          	add	a5,a5,-1 # 3fffffff <__alt_data_end+0x3ffdffff>
   13694:	00f77733          	and	a4,a4,a5
   13698:	fec42783          	lw	a5,-20(s0)
   1369c:	00e7a423          	sw	a4,8(a5)
      
      /* If this is a device, ensure it isn't already locked */

      if (isafs || ((status = alt_file_locked (fd)) >= 0))
   136a0:	fe842783          	lw	a5,-24(s0)
   136a4:	00079c63          	bnez	a5,136bc <_open+0xe0>
   136a8:	fec42503          	lw	a0,-20(s0)
   136ac:	e49ff0ef          	jal	134f4 <alt_file_locked>
   136b0:	fea42223          	sw	a0,-28(s0)
   136b4:	fe442783          	lw	a5,-28(s0)
   136b8:	0407c463          	bltz	a5,13700 <_open+0x124>
        /* 
         * If the device or filesystem provides an open() callback function,
         * call it now to perform any device/filesystem specific operations.
         */
    
        status = (dev->open) ? dev->open(fd, file, flags, mode): 0;
   136bc:	fdc42783          	lw	a5,-36(s0)
   136c0:	00c7a783          	lw	a5,12(a5)
   136c4:	02078463          	beqz	a5,136ec <_open+0x110>
   136c8:	fdc42783          	lw	a5,-36(s0)
   136cc:	00c7a783          	lw	a5,12(a5)
   136d0:	fc442683          	lw	a3,-60(s0)
   136d4:	fc842603          	lw	a2,-56(s0)
   136d8:	fcc42583          	lw	a1,-52(s0)
   136dc:	fec42503          	lw	a0,-20(s0)
   136e0:	000780e7          	jalr	a5
   136e4:	00050793          	mv	a5,a0
   136e8:	0080006f          	j	136f0 <_open+0x114>
   136ec:	00000793          	li	a5,0
   136f0:	fef42223          	sw	a5,-28(s0)
   136f4:	00c0006f          	j	13700 <_open+0x124>
      }
    }
  }
  else
  {
    status = -ENODEV;
   136f8:	fed00793          	li	a5,-19
   136fc:	fef42223          	sw	a5,-28(s0)
  }

  /* Allocation failed, so clean up and return an error */ 

  if (status < 0)
   13700:	fe442783          	lw	a5,-28(s0)
   13704:	0207d463          	bgez	a5,1372c <_open+0x150>
  {
    alt_release_fd (index);  
   13708:	fe042503          	lw	a0,-32(s0)
   1370c:	9a8ee0ef          	jal	18b4 <alt_release_fd>
    ALT_ERRNO = -status;
   13710:	da1ff0ef          	jal	134b0 <alt_get_errno>
   13714:	00050713          	mv	a4,a0
   13718:	fe442783          	lw	a5,-28(s0)
   1371c:	40f007b3          	neg	a5,a5
   13720:	00f72023          	sw	a5,0(a4)
    return -1;
   13724:	fff00793          	li	a5,-1
   13728:	0080006f          	j	13730 <_open+0x154>
  }
  
  /* return the reference upon success */

  return index;
   1372c:	fe042783          	lw	a5,-32(s0)
}
   13730:	00078513          	mv	a0,a5
   13734:	03c12083          	lw	ra,60(sp)
   13738:	03812403          	lw	s0,56(sp)
   1373c:	04010113          	add	sp,sp,64
   13740:	00008067          	ret

00013744 <alt_get_errno>:
    }
}

#else /* !ALT_USE_DIRECT_DRIVERS */

int ALT_READ (int file, void *ptr, size_t len)
   13744:	ff010113          	add	sp,sp,-16
   13748:	00112623          	sw	ra,12(sp)
   1374c:	00812423          	sw	s0,8(sp)
   13750:	01010413          	add	s0,sp,16
{
   13754:	8141a783          	lw	a5,-2028(gp) # 160f0 <alt_errno>
   13758:	00078a63          	beqz	a5,1376c <alt_get_errno+0x28>
   1375c:	8141a783          	lw	a5,-2028(gp) # 160f0 <alt_errno>
   13760:	000780e7          	jalr	a5
   13764:	00050793          	mv	a5,a0
   13768:	00c0006f          	j	13774 <alt_get_errno+0x30>
   1376c:	000187b7          	lui	a5,0x18
   13770:	a2478793          	add	a5,a5,-1500 # 17a24 <errno>
  alt_fd*  fd;
   13774:	00078513          	mv	a0,a5
   13778:	00c12083          	lw	ra,12(sp)
   1377c:	00812403          	lw	s0,8(sp)
   13780:	01010113          	add	sp,sp,16
   13784:	00008067          	ret

00013788 <_read>:
{
   13788:	fd010113          	add	sp,sp,-48
   1378c:	02112623          	sw	ra,44(sp)
   13790:	02812423          	sw	s0,40(sp)
   13794:	03010413          	add	s0,sp,48
   13798:	fca42e23          	sw	a0,-36(s0)
   1379c:	fcb42c23          	sw	a1,-40(s0)
   137a0:	fcc42a23          	sw	a2,-44(s0)
   * A common error case is that when the file descriptor was created, the call
   * to open() failed resulting in a negative file descriptor. This is trapped
   * below so that we don't try and process an invalid file descriptor.
   */

  fd = (file < 0) ? NULL : &alt_fd_list[file];
   137a4:	fdc42783          	lw	a5,-36(s0)
   137a8:	0207c463          	bltz	a5,137d0 <_read+0x48>
   137ac:	fdc42703          	lw	a4,-36(s0)
   137b0:	00070793          	mv	a5,a4
   137b4:	00179793          	sll	a5,a5,0x1
   137b8:	00e787b3          	add	a5,a5,a4
   137bc:	00279793          	sll	a5,a5,0x2
   137c0:	00016737          	lui	a4,0x16
   137c4:	8b870713          	add	a4,a4,-1864 # 158b8 <alt_fd_list>
   137c8:	00e787b3          	add	a5,a5,a4
   137cc:	0080006f          	j	137d4 <_read+0x4c>
   137d0:	00000793          	li	a5,0
   137d4:	fef42423          	sw	a5,-24(s0)
  
  if (fd)
   137d8:	fe842783          	lw	a5,-24(s0)
   137dc:	08078663          	beqz	a5,13868 <_read+0xe0>
     * If the file has not been opened with read access, or if the driver does
     * not provide an implementation of read(), generate an error. Otherwise
     * call the drivers read() function to process the request.
     */

    if (((fd->fd_flags & O_ACCMODE) != O_WRONLY) && 
   137e0:	fe842783          	lw	a5,-24(s0)
   137e4:	0087a783          	lw	a5,8(a5)
   137e8:	0037f713          	and	a4,a5,3
   137ec:	00100793          	li	a5,1
   137f0:	06f70263          	beq	a4,a5,13854 <_read+0xcc>
        (fd->dev->read))
   137f4:	fe842783          	lw	a5,-24(s0)
   137f8:	0007a783          	lw	a5,0(a5)
   137fc:	0147a783          	lw	a5,20(a5)
    if (((fd->fd_flags & O_ACCMODE) != O_WRONLY) && 
   13800:	04078a63          	beqz	a5,13854 <_read+0xcc>
      {
        if ((rval = fd->dev->read(fd, ptr, len)) < 0)
   13804:	fe842783          	lw	a5,-24(s0)
   13808:	0007a783          	lw	a5,0(a5)
   1380c:	0147a783          	lw	a5,20(a5)
   13810:	fd442703          	lw	a4,-44(s0)
   13814:	00070613          	mv	a2,a4
   13818:	fd842583          	lw	a1,-40(s0)
   1381c:	fe842503          	lw	a0,-24(s0)
   13820:	000780e7          	jalr	a5
   13824:	fea42623          	sw	a0,-20(s0)
   13828:	fec42783          	lw	a5,-20(s0)
   1382c:	0207d063          	bgez	a5,1384c <_read+0xc4>
        {
          ALT_ERRNO = -rval;
   13830:	f15ff0ef          	jal	13744 <alt_get_errno>
   13834:	00050713          	mv	a4,a0
   13838:	fec42783          	lw	a5,-20(s0)
   1383c:	40f007b3          	neg	a5,a5
   13840:	00f72023          	sw	a5,0(a4)
          return -1;
   13844:	fff00793          	li	a5,-1
   13848:	0340006f          	j	1387c <_read+0xf4>
        }
        return rval;
   1384c:	fec42783          	lw	a5,-20(s0)
   13850:	02c0006f          	j	1387c <_read+0xf4>
      }
      else
      {
        ALT_ERRNO = EACCES;
   13854:	ef1ff0ef          	jal	13744 <alt_get_errno>
   13858:	00050713          	mv	a4,a0
   1385c:	00d00793          	li	a5,13
   13860:	00f72023          	sw	a5,0(a4)
   13864:	0140006f          	j	13878 <_read+0xf0>
      }
    }
  else
  {
    ALT_ERRNO = EBADFD;
   13868:	eddff0ef          	jal	13744 <alt_get_errno>
   1386c:	00050713          	mv	a4,a0
   13870:	05100793          	li	a5,81
   13874:	00f72023          	sw	a5,0(a4)
  }
  return -1;
   13878:	fff00793          	li	a5,-1
}
   1387c:	00078513          	mv	a0,a5
   13880:	02c12083          	lw	ra,44(sp)
   13884:	02812403          	lw	s0,40(sp)
   13888:	03010113          	add	sp,sp,48
   1388c:	00008067          	ret

00013890 <_sbrk>:
#endif
 
caddr_t ALT_SBRK (int incr) __attribute__ ((no_instrument_function ));

caddr_t ALT_SBRK (int incr)
{ 
   13890:	fc010113          	add	sp,sp,-64
   13894:	02812e23          	sw	s0,60(sp)
   13898:	04010413          	add	s0,sp,64
   1389c:	fca42623          	sw	a0,-52(s0)
    NIOSV_READ_AND_CLR_CSR(NIOSV_MSTATUS_CSR, context, NIOSV_MSTATUS_MIE_MASK);
   138a0:	00800793          	li	a5,8
   138a4:	3007b7f3          	csrrc	a5,mstatus,a5
   138a8:	fef42223          	sw	a5,-28(s0)
    return context;
   138ac:	fe442783          	lw	a5,-28(s0)
  alt_irq_context context;
  char *prev_heap_end; 

  context = alt_irq_disable_all();
   138b0:	fcf42e23          	sw	a5,-36(s0)

  /* Always return data aligned on a word boundary */
  heap_end = (char *)(((unsigned int)heap_end + 3) & ~3);
   138b4:	8301a783          	lw	a5,-2000(gp) # 1610c <heap_end>
   138b8:	00378793          	add	a5,a5,3
   138bc:	ffc7f793          	and	a5,a5,-4
   138c0:	00078713          	mv	a4,a5
   138c4:	82e1a823          	sw	a4,-2000(gp) # 1610c <heap_end>
  if (((heap_end + incr) - __alt_heap_start) > ALT_MAX_HEAP_BYTES) {
    alt_irq_enable_all(context);
    return (caddr_t)-1;
  }
#else
  if ((heap_end + incr) > __alt_heap_limit) {
   138c8:	8301a703          	lw	a4,-2000(gp) # 1610c <heap_end>
   138cc:	fcc42783          	lw	a5,-52(s0)
   138d0:	00f70733          	add	a4,a4,a5
   138d4:	000207b7          	lui	a5,0x20
   138d8:	00078793          	mv	a5,a5
   138dc:	02e7f263          	bgeu	a5,a4,13900 <_sbrk+0x70>
   138e0:	fdc42783          	lw	a5,-36(s0)
   138e4:	fef42423          	sw	a5,-24(s0)
    NIOSV_SET_CSR(NIOSV_MSTATUS_CSR, context & NIOSV_MSTATUS_MIE_MASK);
   138e8:	fe842783          	lw	a5,-24(s0)
   138ec:	0087f793          	and	a5,a5,8
   138f0:	3007a073          	csrs	mstatus,a5
}
   138f4:	00000013          	nop
    alt_irq_enable_all(context);
    return (caddr_t)-1;
   138f8:	fff00793          	li	a5,-1
   138fc:	0380006f          	j	13934 <_sbrk+0xa4>
  }
#endif

  prev_heap_end = heap_end; 
   13900:	8301a783          	lw	a5,-2000(gp) # 1610c <heap_end>
   13904:	fef42023          	sw	a5,-32(s0)
  heap_end += incr; 
   13908:	8301a703          	lw	a4,-2000(gp) # 1610c <heap_end>
   1390c:	fcc42783          	lw	a5,-52(s0)
   13910:	00f70733          	add	a4,a4,a5
   13914:	82e1a823          	sw	a4,-2000(gp) # 1610c <heap_end>
   13918:	fdc42783          	lw	a5,-36(s0)
   1391c:	fef42623          	sw	a5,-20(s0)
    NIOSV_SET_CSR(NIOSV_MSTATUS_CSR, context & NIOSV_MSTATUS_MIE_MASK);
   13920:	fec42783          	lw	a5,-20(s0)
   13924:	0087f793          	and	a5,a5,8
   13928:	3007a073          	csrs	mstatus,a5
}
   1392c:	00000013          	nop

#endif

  alt_irq_enable_all(context);

  return (caddr_t) prev_heap_end; 
   13930:	fe042783          	lw	a5,-32(s0)
}
   13934:	00078513          	mv	a0,a5
   13938:	03c12403          	lw	s0,60(sp)
   1393c:	04010113          	add	sp,sp,64
   13940:	00008067          	ret

00013944 <alt_get_errno>:
    case 1: /* stdout file descriptor */
        return ALT_DRIVER_WRITE(ALT_STDOUT_DEV, ptr, len, 0);
#endif /* ALT_STDOUT_PRESENT */
#ifdef ALT_STDERR_PRESENT
    case 2: /* stderr file descriptor */
        return ALT_DRIVER_WRITE(ALT_STDERR_DEV, ptr, len, 0);
   13944:	ff010113          	add	sp,sp,-16
   13948:	00112623          	sw	ra,12(sp)
   1394c:	00812423          	sw	s0,8(sp)
   13950:	01010413          	add	s0,sp,16
#endif /* ALT_STDERR_PRESENT */
   13954:	8141a783          	lw	a5,-2028(gp) # 160f0 <alt_errno>
   13958:	00078a63          	beqz	a5,1396c <alt_get_errno+0x28>
   1395c:	8141a783          	lw	a5,-2028(gp) # 160f0 <alt_errno>
   13960:	000780e7          	jalr	a5 # 20000 <__alt_data_end>
   13964:	00050793          	mv	a5,a0
   13968:	00c0006f          	j	13974 <alt_get_errno+0x30>
   1396c:	000187b7          	lui	a5,0x18
   13970:	a2478793          	add	a5,a5,-1500 # 17a24 <errno>
    default:
   13974:	00078513          	mv	a0,a5
   13978:	00c12083          	lw	ra,12(sp)
   1397c:	00812403          	lw	s0,8(sp)
   13980:	01010113          	add	sp,sp,16
   13984:	00008067          	ret

00013988 <_write>:
}

#else /* !ALT_USE_DIRECT_DRIVERS */

int ALT_WRITE (int file, const void *ptr, size_t len)
{
   13988:	fd010113          	add	sp,sp,-48
   1398c:	02112623          	sw	ra,44(sp)
   13990:	02812423          	sw	s0,40(sp)
   13994:	03010413          	add	s0,sp,48
   13998:	fca42e23          	sw	a0,-36(s0)
   1399c:	fcb42c23          	sw	a1,-40(s0)
   139a0:	fcc42a23          	sw	a2,-44(s0)
   * A common error case is that when the file descriptor was created, the call
   * to open() failed resulting in a negative file descriptor. This is trapped
   * below so that we don't try and process an invalid file descriptor.
   */

  fd = (file < 0) ? NULL : &alt_fd_list[file];
   139a4:	fdc42783          	lw	a5,-36(s0)
   139a8:	0207c463          	bltz	a5,139d0 <_write+0x48>
   139ac:	fdc42703          	lw	a4,-36(s0)
   139b0:	00070793          	mv	a5,a4
   139b4:	00179793          	sll	a5,a5,0x1
   139b8:	00e787b3          	add	a5,a5,a4
   139bc:	00279793          	sll	a5,a5,0x2
   139c0:	00016737          	lui	a4,0x16
   139c4:	8b870713          	add	a4,a4,-1864 # 158b8 <alt_fd_list>
   139c8:	00e787b3          	add	a5,a5,a4
   139cc:	0080006f          	j	139d4 <_write+0x4c>
   139d0:	00000793          	li	a5,0
   139d4:	fef42423          	sw	a5,-24(s0)
  
  if (fd)
   139d8:	fe842783          	lw	a5,-24(s0)
   139dc:	08078463          	beqz	a5,13a64 <_write+0xdc>
     * If the file has not been opened with write access, or if the driver does
     * not provide an implementation of write(), generate an error. Otherwise
     * call the drivers write() function to process the request.
     */

    if (((fd->fd_flags & O_ACCMODE) != O_RDONLY) && fd->dev->write)
   139e0:	fe842783          	lw	a5,-24(s0)
   139e4:	0087a783          	lw	a5,8(a5)
   139e8:	0037f793          	and	a5,a5,3
   139ec:	06078263          	beqz	a5,13a50 <_write+0xc8>
   139f0:	fe842783          	lw	a5,-24(s0)
   139f4:	0007a783          	lw	a5,0(a5)
   139f8:	0187a783          	lw	a5,24(a5)
   139fc:	04078a63          	beqz	a5,13a50 <_write+0xc8>
    {
      
      /* ALT_LOG - see altera_hal/HAL/inc/sys/alt_log_printf.h */
      ALT_LOG_WRITE_FUNCTION(ptr,len);

      if ((rval = fd->dev->write(fd, ptr, len)) < 0)
   13a00:	fe842783          	lw	a5,-24(s0)
   13a04:	0007a783          	lw	a5,0(a5)
   13a08:	0187a783          	lw	a5,24(a5)
   13a0c:	fd442703          	lw	a4,-44(s0)
   13a10:	00070613          	mv	a2,a4
   13a14:	fd842583          	lw	a1,-40(s0)
   13a18:	fe842503          	lw	a0,-24(s0)
   13a1c:	000780e7          	jalr	a5
   13a20:	fea42623          	sw	a0,-20(s0)
   13a24:	fec42783          	lw	a5,-20(s0)
   13a28:	0207d063          	bgez	a5,13a48 <_write+0xc0>
      {
        ALT_ERRNO = -rval;
   13a2c:	f19ff0ef          	jal	13944 <alt_get_errno>
   13a30:	00050713          	mv	a4,a0
   13a34:	fec42783          	lw	a5,-20(s0)
   13a38:	40f007b3          	neg	a5,a5
   13a3c:	00f72023          	sw	a5,0(a4)
        return -1;
   13a40:	fff00793          	li	a5,-1
   13a44:	0340006f          	j	13a78 <_write+0xf0>
      }
      return rval;
   13a48:	fec42783          	lw	a5,-20(s0)
   13a4c:	02c0006f          	j	13a78 <_write+0xf0>
    }
    else
    {
      ALT_ERRNO = EACCES;
   13a50:	ef5ff0ef          	jal	13944 <alt_get_errno>
   13a54:	00050713          	mv	a4,a0
   13a58:	00d00793          	li	a5,13
   13a5c:	00f72023          	sw	a5,0(a4)
   13a60:	0140006f          	j	13a74 <_write+0xec>
    }
  }
  else  
  {
    ALT_ERRNO = EBADFD;
   13a64:	ee1ff0ef          	jal	13944 <alt_get_errno>
   13a68:	00050713          	mv	a4,a0
   13a6c:	05100793          	li	a5,81
   13a70:	00f72023          	sw	a5,0(a4)
  }
  return -1;
   13a74:	fff00793          	li	a5,-1
}
   13a78:	00078513          	mv	a0,a5
   13a7c:	02c12083          	lw	ra,44(sp)
   13a80:	02812403          	lw	s0,40(sp)
   13a84:	03010113          	add	sp,sp,48
   13a88:	00008067          	ret

00013a8c <alt_find_dev>:
 * "name" must be an exact match for the devices registered name for a match to
 * be found.
 */
 
alt_dev* alt_find_dev(const char* name, alt_llist* llist)
{
   13a8c:	fd010113          	add	sp,sp,-48
   13a90:	02812623          	sw	s0,44(sp)
   13a94:	03010413          	add	s0,sp,48
   13a98:	fca42e23          	sw	a0,-36(s0)
   13a9c:	fcb42c23          	sw	a1,-40(s0)
    alt_dev* next=NULL; 
   13aa0:	fe042223          	sw	zero,-28(s0)
    alt_32   len=0;
   13aa4:	fe042423          	sw	zero,-24(s0)
    alt_32   MAX_STRING_LENGTH=1000;
   13aa8:	3e800793          	li	a5,1000
   13aac:	fef42623          	sw	a5,-20(s0)
    
    if (llist == NULL) { return NULL; }
   13ab0:	fd842783          	lw	a5,-40(s0)
   13ab4:	00079663          	bnez	a5,13ac0 <alt_find_dev+0x34>
   13ab8:	00000793          	li	a5,0
   13abc:	0e00006f          	j	13b9c <alt_find_dev+0x110>
    next = (alt_dev*) llist->next;
   13ac0:	fd842783          	lw	a5,-40(s0)
   13ac4:	0007a783          	lw	a5,0(a5)
   13ac8:	fef42223          	sw	a5,-28(s0)
    /*
     * Check each list entry in turn, until a match is found, or we reach the
     * end of the list (i.e. next winds up pointing back to the list head).
     */ 

    while (next != (alt_dev*) llist)
   13acc:	0c00006f          	j	13b8c <alt_find_dev+0x100>
    {
        len=0;
   13ad0:	fe042423          	sw	zero,-24(s0)
        while ((name[len] != 0) && (next->name[len]!=0) && (len < MAX_STRING_LENGTH))
   13ad4:	0380006f          	j	13b0c <alt_find_dev+0x80>
        {
            if (next->name[len] != name[len]) { break; }
   13ad8:	fe442783          	lw	a5,-28(s0)
   13adc:	0087a703          	lw	a4,8(a5)
   13ae0:	fe842783          	lw	a5,-24(s0)
   13ae4:	00f707b3          	add	a5,a4,a5
   13ae8:	0007c703          	lbu	a4,0(a5)
   13aec:	fe842783          	lw	a5,-24(s0)
   13af0:	fdc42683          	lw	a3,-36(s0)
   13af4:	00f687b3          	add	a5,a3,a5
   13af8:	0007c783          	lbu	a5,0(a5)
   13afc:	04f71663          	bne	a4,a5,13b48 <alt_find_dev+0xbc>
            len++;
   13b00:	fe842783          	lw	a5,-24(s0)
   13b04:	00178793          	add	a5,a5,1
   13b08:	fef42423          	sw	a5,-24(s0)
        while ((name[len] != 0) && (next->name[len]!=0) && (len < MAX_STRING_LENGTH))
   13b0c:	fe842783          	lw	a5,-24(s0)
   13b10:	fdc42703          	lw	a4,-36(s0)
   13b14:	00f707b3          	add	a5,a4,a5
   13b18:	0007c783          	lbu	a5,0(a5)
   13b1c:	02078863          	beqz	a5,13b4c <alt_find_dev+0xc0>
   13b20:	fe442783          	lw	a5,-28(s0)
   13b24:	0087a703          	lw	a4,8(a5)
   13b28:	fe842783          	lw	a5,-24(s0)
   13b2c:	00f707b3          	add	a5,a4,a5
   13b30:	0007c783          	lbu	a5,0(a5)
   13b34:	00078c63          	beqz	a5,13b4c <alt_find_dev+0xc0>
   13b38:	fe842703          	lw	a4,-24(s0)
   13b3c:	fec42783          	lw	a5,-20(s0)
   13b40:	f8f74ce3          	blt	a4,a5,13ad8 <alt_find_dev+0x4c>
   13b44:	0080006f          	j	13b4c <alt_find_dev+0xc0>
            if (next->name[len] != name[len]) { break; }
   13b48:	00000013          	nop
        }
    
        /* match found */
        if ((name[len] == 0) && (next->name[len]==0)) {  return next; }
   13b4c:	fe842783          	lw	a5,-24(s0)
   13b50:	fdc42703          	lw	a4,-36(s0)
   13b54:	00f707b3          	add	a5,a4,a5
   13b58:	0007c783          	lbu	a5,0(a5)
   13b5c:	02079263          	bnez	a5,13b80 <alt_find_dev+0xf4>
   13b60:	fe442783          	lw	a5,-28(s0)
   13b64:	0087a703          	lw	a4,8(a5)
   13b68:	fe842783          	lw	a5,-24(s0)
   13b6c:	00f707b3          	add	a5,a4,a5
   13b70:	0007c783          	lbu	a5,0(a5)
   13b74:	00079663          	bnez	a5,13b80 <alt_find_dev+0xf4>
   13b78:	fe442783          	lw	a5,-28(s0)
   13b7c:	0200006f          	j	13b9c <alt_find_dev+0x110>

        next = (alt_dev*) next->llist.next;
   13b80:	fe442783          	lw	a5,-28(s0)
   13b84:	0007a783          	lw	a5,0(a5)
   13b88:	fef42223          	sw	a5,-28(s0)
    while (next != (alt_dev*) llist)
   13b8c:	fe442703          	lw	a4,-28(s0)
   13b90:	fd842783          	lw	a5,-40(s0)
   13b94:	f2f71ee3          	bne	a4,a5,13ad0 <alt_find_dev+0x44>
    }
  
    /* No match found */
  
    return NULL;
   13b98:	00000793          	li	a5,0
}
   13b9c:	00078513          	mv	a0,a5
   13ba0:	02c12403          	lw	s0,44(sp)
   13ba4:	03010113          	add	sp,sp,48
   13ba8:	00008067          	ret

00013bac <alt_find_file>:
 * either '/' or '\0' is the prefix of the filename. For example the filename:
 * "/myfilesystem/junk.txt" would match: "/myfilesystem", but not: "/myfile". 
 */
 
alt_dev* alt_find_file (const char* name)
{
   13bac:	fd010113          	add	sp,sp,-48
   13bb0:	02812623          	sw	s0,44(sp)
   13bb4:	03010413          	add	s0,sp,48
   13bb8:	fca42e23          	sw	a0,-36(s0)
    alt_dev* next = (alt_dev*) alt_fs_list.next;   
   13bbc:	000167b7          	lui	a5,0x16
   13bc0:	0dc78793          	add	a5,a5,220 # 160dc <alt_fs_list>
   13bc4:	0007a783          	lw	a5,0(a5)
   13bc8:	fef42223          	sw	a5,-28(s0)
    alt_32   len=0;
   13bcc:	fe042423          	sw	zero,-24(s0)
    alt_32   MAX_STRING_LENGTH=1000;
   13bd0:	3e800793          	li	a5,1000
   13bd4:	fef42623          	sw	a5,-20(s0)
 
    /*
    * Check each list entry in turn, until a match is found, or we reach the
    * end of the list (i.e. next winds up pointing back to the list head).
    */ 
    while (next != (alt_dev*) &alt_fs_list)
   13bd8:	0ec0006f          	j	13cc4 <alt_find_file+0x118>
    {
        len=0;
   13bdc:	fe042423          	sw	zero,-24(s0)
        while (len < MAX_STRING_LENGTH)    
   13be0:	0bc0006f          	j	13c9c <alt_find_file+0xf0>
        {
            if (((next->name[len]== '/') && (next->name[len+1] == 0)) || (next->name[len] == 0))
   13be4:	fe442783          	lw	a5,-28(s0)
   13be8:	0087a703          	lw	a4,8(a5)
   13bec:	fe842783          	lw	a5,-24(s0)
   13bf0:	00f707b3          	add	a5,a4,a5
   13bf4:	0007c703          	lbu	a4,0(a5)
   13bf8:	02f00793          	li	a5,47
   13bfc:	02f71063          	bne	a4,a5,13c1c <alt_find_file+0x70>
   13c00:	fe442783          	lw	a5,-28(s0)
   13c04:	0087a703          	lw	a4,8(a5)
   13c08:	fe842783          	lw	a5,-24(s0)
   13c0c:	00178793          	add	a5,a5,1
   13c10:	00f707b3          	add	a5,a4,a5
   13c14:	0007c783          	lbu	a5,0(a5)
   13c18:	00078e63          	beqz	a5,13c34 <alt_find_file+0x88>
   13c1c:	fe442783          	lw	a5,-28(s0)
   13c20:	0087a703          	lw	a4,8(a5)
   13c24:	fe842783          	lw	a5,-24(s0)
   13c28:	00f707b3          	add	a5,a4,a5
   13c2c:	0007c783          	lbu	a5,0(a5)
   13c30:	02079c63          	bnez	a5,13c68 <alt_find_file+0xbc>
            { 
                if ((name[len]== '/') || (name[len] == 0))
   13c34:	fe842783          	lw	a5,-24(s0)
   13c38:	fdc42703          	lw	a4,-36(s0)
   13c3c:	00f707b3          	add	a5,a4,a5
   13c40:	0007c703          	lbu	a4,0(a5)
   13c44:	02f00793          	li	a5,47
   13c48:	00f70c63          	beq	a4,a5,13c60 <alt_find_file+0xb4>
   13c4c:	fe842783          	lw	a5,-24(s0)
   13c50:	fdc42703          	lw	a4,-36(s0)
   13c54:	00f707b3          	add	a5,a4,a5
   13c58:	0007c783          	lbu	a5,0(a5)
   13c5c:	04079863          	bnez	a5,13cac <alt_find_file+0x100>
                {
                    return next;
   13c60:	fe442783          	lw	a5,-28(s0)
   13c64:	0740006f          	j	13cd8 <alt_find_file+0x12c>
                }
                break;
            }
            
            if (next->name[len]!=name[len]) { break; }
   13c68:	fe442783          	lw	a5,-28(s0)
   13c6c:	0087a703          	lw	a4,8(a5)
   13c70:	fe842783          	lw	a5,-24(s0)
   13c74:	00f707b3          	add	a5,a4,a5
   13c78:	0007c703          	lbu	a4,0(a5)
   13c7c:	fe842783          	lw	a5,-24(s0)
   13c80:	fdc42683          	lw	a3,-36(s0)
   13c84:	00f687b3          	add	a5,a3,a5
   13c88:	0007c783          	lbu	a5,0(a5)
   13c8c:	02f71463          	bne	a4,a5,13cb4 <alt_find_file+0x108>
            len++;
   13c90:	fe842783          	lw	a5,-24(s0)
   13c94:	00178793          	add	a5,a5,1
   13c98:	fef42423          	sw	a5,-24(s0)
        while (len < MAX_STRING_LENGTH)    
   13c9c:	fe842703          	lw	a4,-24(s0)
   13ca0:	fec42783          	lw	a5,-20(s0)
   13ca4:	f4f740e3          	blt	a4,a5,13be4 <alt_find_file+0x38>
   13ca8:	0100006f          	j	13cb8 <alt_find_file+0x10c>
                break;
   13cac:	00000013          	nop
   13cb0:	0080006f          	j	13cb8 <alt_find_file+0x10c>
            if (next->name[len]!=name[len]) { break; }
   13cb4:	00000013          	nop
        }  
        
        next = (alt_dev*) next->llist.next;
   13cb8:	fe442783          	lw	a5,-28(s0)
   13cbc:	0007a783          	lw	a5,0(a5)
   13cc0:	fef42223          	sw	a5,-28(s0)
    while (next != (alt_dev*) &alt_fs_list)
   13cc4:	fe442703          	lw	a4,-28(s0)
   13cc8:	000167b7          	lui	a5,0x16
   13ccc:	0dc78793          	add	a5,a5,220 # 160dc <alt_fs_list>
   13cd0:	f0f716e3          	bne	a4,a5,13bdc <alt_find_file+0x30>
    }
  
    /* No match found */
  
    return NULL;     
   13cd4:	00000793          	li	a5,0
}
   13cd8:	00078513          	mv	a0,a5
   13cdc:	02c12403          	lw	s0,44(sp)
   13ce0:	03010113          	add	sp,sp,48
   13ce4:	00008067          	ret

00013ce8 <alt_get_fd>:
 * the offset of the file descriptor within the file descriptor array). A
 * negative value indicates failure.
 */

int alt_get_fd (alt_dev* dev)
{
   13ce8:	fd010113          	add	sp,sp,-48
   13cec:	02812623          	sw	s0,44(sp)
   13cf0:	03010413          	add	s0,sp,48
   13cf4:	fca42e23          	sw	a0,-36(s0)
  alt_32 i;
  int rc = -EMFILE;
   13cf8:	fe800793          	li	a5,-24
   13cfc:	fef42623          	sw	a5,-20(s0)
   * indicates the highest file descriptor ever allocated. This is used to
   * improve efficency when searching the file descriptor list, and 
   * therefore reduce contention on the alt_fd_list_lock semaphore. 
   */

  for (i = 0; i < ALT_MAX_FD; i++)
   13d00:	fe042423          	sw	zero,-24(s0)
   13d04:	0800006f          	j	13d84 <alt_get_fd+0x9c>
  {
    if (!alt_fd_list[i].dev)
   13d08:	000167b7          	lui	a5,0x16
   13d0c:	8b878693          	add	a3,a5,-1864 # 158b8 <alt_fd_list>
   13d10:	fe842703          	lw	a4,-24(s0)
   13d14:	00070793          	mv	a5,a4
   13d18:	00179793          	sll	a5,a5,0x1
   13d1c:	00e787b3          	add	a5,a5,a4
   13d20:	00279793          	sll	a5,a5,0x2
   13d24:	00f687b3          	add	a5,a3,a5
   13d28:	0007a783          	lw	a5,0(a5)
   13d2c:	04079663          	bnez	a5,13d78 <alt_get_fd+0x90>
    {
      alt_fd_list[i].dev = dev;
   13d30:	000167b7          	lui	a5,0x16
   13d34:	8b878693          	add	a3,a5,-1864 # 158b8 <alt_fd_list>
   13d38:	fe842703          	lw	a4,-24(s0)
   13d3c:	00070793          	mv	a5,a4
   13d40:	00179793          	sll	a5,a5,0x1
   13d44:	00e787b3          	add	a5,a5,a4
   13d48:	00279793          	sll	a5,a5,0x2
   13d4c:	00f687b3          	add	a5,a3,a5
   13d50:	fdc42703          	lw	a4,-36(s0)
   13d54:	00e7a023          	sw	a4,0(a5)
      if (i > alt_max_fd)
   13d58:	8101a783          	lw	a5,-2032(gp) # 160ec <alt_max_fd>
   13d5c:	fe842703          	lw	a4,-24(s0)
   13d60:	00e7d663          	bge	a5,a4,13d6c <alt_get_fd+0x84>
      {
        alt_max_fd = i;
   13d64:	fe842703          	lw	a4,-24(s0)
   13d68:	80e1a823          	sw	a4,-2032(gp) # 160ec <alt_max_fd>
      }
      rc = i;
   13d6c:	fe842783          	lw	a5,-24(s0)
   13d70:	fef42623          	sw	a5,-20(s0)
      goto alt_get_fd_exit;
   13d74:	0200006f          	j	13d94 <alt_get_fd+0xac>
  for (i = 0; i < ALT_MAX_FD; i++)
   13d78:	fe842783          	lw	a5,-24(s0)
   13d7c:	00178793          	add	a5,a5,1
   13d80:	fef42423          	sw	a5,-24(s0)
   13d84:	fe842703          	lw	a4,-24(s0)
   13d88:	01f00793          	li	a5,31
   13d8c:	f6e7dee3          	bge	a5,a4,13d08 <alt_get_fd+0x20>
    }
  }

 alt_get_fd_exit:
   13d90:	00000013          	nop
   * file descriptor pool.
   */

  ALT_SEM_POST(alt_fd_list_lock);

  return rc;
   13d94:	fec42783          	lw	a5,-20(s0)
}
   13d98:	00078513          	mv	a0,a5
   13d9c:	02c12403          	lw	s0,44(sp)
   13da0:	03010113          	add	sp,sp,48
   13da4:	00008067          	ret

00013da8 <fstat>:
   13da8:	00058613          	mv	a2,a1
   13dac:	00050593          	mv	a1,a0
   13db0:	8201a503          	lw	a0,-2016(gp) # 160fc <_impure_ptr>
   13db4:	a5df306f          	j	7810 <_fstat_r>

00013db8 <__stack_chk_fail>:
   13db8:	00000797          	auipc	a5,0x0
   13dbc:	24c78793          	add	a5,a5,588 # 14004 <__flash_rodata_start+0x164>
   13dc0:	0007af83          	lw	t6,0(a5)
   13dc4:	0047af03          	lw	t5,4(a5)
   13dc8:	0087ae83          	lw	t4,8(a5)
   13dcc:	00c7ae03          	lw	t3,12(a5)
   13dd0:	0107a303          	lw	t1,16(a5)
   13dd4:	0147a883          	lw	a7,20(a5)
   13dd8:	0187a803          	lw	a6,24(a5)
   13ddc:	0247a683          	lw	a3,36(a5)
   13de0:	0287a703          	lw	a4,40(a5)
   13de4:	01c7a583          	lw	a1,28(a5)
   13de8:	0207a603          	lw	a2,32(a5)
   13dec:	02c7c783          	lbu	a5,44(a5)
   13df0:	fc010113          	add	sp,sp,-64
   13df4:	00010513          	mv	a0,sp
   13df8:	02112e23          	sw	ra,60(sp)
   13dfc:	01f12023          	sw	t6,0(sp)
   13e00:	01e12223          	sw	t5,4(sp)
   13e04:	01d12423          	sw	t4,8(sp)
   13e08:	01c12623          	sw	t3,12(sp)
   13e0c:	00612823          	sw	t1,16(sp)
   13e10:	01112a23          	sw	a7,20(sp)
   13e14:	01012c23          	sw	a6,24(sp)
   13e18:	02d12223          	sw	a3,36(sp)
   13e1c:	02e12423          	sw	a4,40(sp)
   13e20:	02f10623          	sb	a5,44(sp)
   13e24:	00b12e23          	sw	a1,28(sp)
   13e28:	02c12023          	sw	a2,32(sp)
   13e2c:	cc1f30ef          	jal	7aec <strlen>
   13e30:	00050613          	mv	a2,a0
   13e34:	00010593          	mv	a1,sp
   13e38:	00200513          	li	a0,2
   13e3c:	03c000ef          	jal	13e78 <write>
   13e40:	00600513          	li	a0,6
   13e44:	e58f90ef          	jal	d49c <raise>
   13e48:	07f00513          	li	a0,127
   13e4c:	964ff0ef          	jal	12fb0 <_exit>

00013e50 <__stack_chk_fail_local>:
   13e50:	ff010113          	add	sp,sp,-16
   13e54:	00112623          	sw	ra,12(sp)
   13e58:	f61ff0ef          	jal	13db8 <__stack_chk_fail>

00013e5c <__stack_chk_init>:
   13e5c:	00004797          	auipc	a5,0x4
   13e60:	c0078793          	add	a5,a5,-1024 # 17a5c <__stack_chk_guard>
   13e64:	0007a703          	lw	a4,0(a5)
   13e68:	00071663          	bnez	a4,13e74 <__stack_chk_init+0x18>
   13e6c:	ff0a0737          	lui	a4,0xff0a0
   13e70:	00e7a023          	sw	a4,0(a5)
   13e74:	00008067          	ret

00013e78 <write>:
   13e78:	00060693          	mv	a3,a2
   13e7c:	00058613          	mv	a2,a1
   13e80:	00050593          	mv	a1,a0
   13e84:	8201a503          	lw	a0,-2016(gp) # 160fc <_impure_ptr>
   13e88:	c91ee06f          	j	2b18 <_write_r>
   13e8c:	30c0                	.insn	2, 0x30c0
   13e8e:	0000                	.insn	2, 0x
   13e90:	3e5c                	.insn	2, 0x3e5c
   13e92:	0001                	.insn	2, 0x0001
